Archive member included because of file (symbol)

c:/program files (x86)/microchip/xc32/v2.15/bin/bin/../../lib/gcc/pic32mx/4.8.3/../../../../pic32mx/lib/fpu64\libsupc++.a(class_type_info.o)
                              build/default/production/_ext/1003616436/main.o (vtable for __cxxabiv1::__class_type_info)
c:/program files (x86)/microchip/xc32/v2.15/bin/bin/../../lib/gcc/pic32mx/4.8.3/../../../../pic32mx/lib/fpu64\libsupc++.a(del_op.o)
                              build/default/production/_ext/1003616436/main.o (operator delete(void*))
c:/program files (x86)/microchip/xc32/v2.15/bin/bin/../../lib/gcc/pic32mx/4.8.3/../../../../pic32mx/lib/fpu64\libsupc++.a(eh_alloc.o)
                              build/default/production/_ext/1003616436/main.o (__cxa_allocate_exception)
c:/program files (x86)/microchip/xc32/v2.15/bin/bin/../../lib/gcc/pic32mx/4.8.3/../../../../pic32mx/lib/fpu64\libsupc++.a(eh_catch.o)
                              build/default/production/_ext/1003616436/main.o (__cxa_begin_catch)
c:/program files (x86)/microchip/xc32/v2.15/bin/bin/../../lib/gcc/pic32mx/4.8.3/../../../../pic32mx/lib/fpu64\libsupc++.a(eh_exception.o)
                              build/default/production/_ext/1003616436/main.o (std::exception::~exception())
c:/program files (x86)/microchip/xc32/v2.15/bin/bin/../../lib/gcc/pic32mx/4.8.3/../../../../pic32mx/lib/fpu64\libsupc++.a(eh_globals.o)
                              c:/program files (x86)/microchip/xc32/v2.15/bin/bin/../../lib/gcc/pic32mx/4.8.3/../../../../pic32mx/lib/fpu64\libsupc++.a(eh_catch.o) (__cxa_get_globals_fast)
c:/program files (x86)/microchip/xc32/v2.15/bin/bin/../../lib/gcc/pic32mx/4.8.3/../../../../pic32mx/lib/fpu64\libsupc++.a(eh_personality.o)
                              build/default/production/_ext/1003616436/main.o (__gxx_personality_sj0)
c:/program files (x86)/microchip/xc32/v2.15/bin/bin/../../lib/gcc/pic32mx/4.8.3/../../../../pic32mx/lib/fpu64\libsupc++.a(eh_terminate.o)
                              c:/program files (x86)/microchip/xc32/v2.15/bin/bin/../../lib/gcc/pic32mx/4.8.3/../../../../pic32mx/lib/fpu64\libsupc++.a(eh_personality.o) (__cxxabiv1::__terminate(void (*)()))
c:/program files (x86)/microchip/xc32/v2.15/bin/bin/../../lib/gcc/pic32mx/4.8.3/../../../../pic32mx/lib/fpu64\libsupc++.a(eh_throw.o)
                              build/default/production/_ext/1003616436/main.o (__cxa_throw)
c:/program files (x86)/microchip/xc32/v2.15/bin/bin/../../lib/gcc/pic32mx/4.8.3/../../../../pic32mx/lib/fpu64\libsupc++.a(eh_unex_handler.o)
                              c:/program files (x86)/microchip/xc32/v2.15/bin/bin/../../lib/gcc/pic32mx/4.8.3/../../../../pic32mx/lib/fpu64\libsupc++.a(eh_terminate.o) (__cxxabiv1::__unexpected_handler)
c:/program files (x86)/microchip/xc32/v2.15/bin/bin/../../lib/gcc/pic32mx/4.8.3/../../../../pic32mx/lib/fpu64\libsupc++.a(new_op.o)
                              build/default/production/_ext/1003616436/main.o (operator new(unsigned long))
c:/program files (x86)/microchip/xc32/v2.15/bin/bin/../../lib/gcc/pic32mx/4.8.3/../../../../pic32mx/lib/fpu64\libsupc++.a(si_class_type_info.o)
                              build/default/production/_ext/1003616436/main.o (vtable for __cxxabiv1::__si_class_type_info)
c:/program files (x86)/microchip/xc32/v2.15/bin/bin/../../lib/gcc/pic32mx/4.8.3/../../../../pic32mx/lib/fpu64\libsupc++.a(tinfo.o)
                              c:/program files (x86)/microchip/xc32/v2.15/bin/bin/../../lib/gcc/pic32mx/4.8.3/../../../../pic32mx/lib/fpu64\libsupc++.a(class_type_info.o) (std::type_info::~type_info())
c:/program files (x86)/microchip/xc32/v2.15/bin/bin/../../lib/gcc/pic32mx/4.8.3/../../../../pic32mx/lib/fpu64\libsupc++.a(pure.o)
                              build/default/production/_ext/1003616436/main.o (__cxa_pure_virtual)
c:/program files (x86)/microchip/xc32/v2.15/bin/bin/../../lib/gcc/pic32mx/4.8.3/../../../../pic32mx/lib/fpu64\libsupc++.a(eh_call.o)
                              c:/program files (x86)/microchip/xc32/v2.15/bin/bin/../../lib/gcc/pic32mx/4.8.3/../../../../pic32mx/lib/fpu64\libsupc++.a(eh_personality.o) (__cxa_call_terminate)
c:/program files (x86)/microchip/xc32/v2.15/bin/bin/../../lib/gcc/pic32mx/4.8.3/../../../../pic32mx/lib/fpu64\libsupc++.a(eh_term_handler.o)
                              c:/program files (x86)/microchip/xc32/v2.15/bin/bin/../../lib/gcc/pic32mx/4.8.3/../../../../pic32mx/lib/fpu64\libsupc++.a(eh_terminate.o) (__cxxabiv1::__terminate_handler)
c:/program files (x86)/microchip/xc32/v2.15/bin/bin/../../lib/gcc/pic32mx/4.8.3/../../../../pic32mx/lib/fpu64\libsupc++.a(new_handler.o)
                              c:/program files (x86)/microchip/xc32/v2.15/bin/bin/../../lib/gcc/pic32mx/4.8.3/../../../../pic32mx/lib/fpu64\libsupc++.a(new_op.o) (__new_handler)
c:/program files (x86)/microchip/xc32/v2.15/bin/bin/../../lib/gcc/pic32mx/4.8.3/fpu64\libgcc.a(unwind-sjlj.o)
                              build/default/production/_ext/1003616436/main.o (_Unwind_SjLj_Register)
c:/program files (x86)/microchip/xc32/v2.15/bin/bin/../../lib/gcc/pic32mx/4.8.3/../../../../pic32mx/lib/fpu64\libpic32.a(memcpy.o)
                              build/default/production/_ext/763370911/usb_device.o (memcpy)
c:/program files (x86)/microchip/xc32/v2.15/bin/bin/../../lib/gcc/pic32mx/4.8.3/../../../../pic32mx/lib/fpu64\libpic32.a(memset.o)
                              c:/program files (x86)/microchip/xc32/v2.15/bin/bin/../../lib/gcc/pic32mx/4.8.3/../../../../pic32mx/lib/fpu64\libsupc++.a(eh_alloc.o) (memset)
c:/program files (x86)/microchip/xc32/v2.15/bin/bin/../../lib/gcc/pic32mx/4.8.3/../../../../pic32mx/lib/fpu64\libpic32.a(strcmp.o)
                              c:/program files (x86)/microchip/xc32/v2.15/bin/bin/../../lib/gcc/pic32mx/4.8.3/../../../../pic32mx/lib/fpu64\libsupc++.a(class_type_info.o) (strcmp)
c:/program files (x86)/microchip/xc32/v2.15/bin/bin/../../lib/gcc/pic32mx/4.8.3/../../../../pic32mx/lib/fpu64\libpic32.a(strlen.o)
                              build/default/production/_ext/1003616436/main.o (strlen)
c:/program files (x86)/microchip/xc32/v2.15/bin/bin/../../lib/gcc/pic32mx/4.8.3/../../../../pic32mx/lib/fpu64\libpic32.a(default-on-reset.o)
                              C:\Users\Andrew\AppData\Local\Temp\ccsLlpbg.o (_on_reset)
c:/program files (x86)/microchip/xc32/v2.15/bin/bin/../../lib/gcc/pic32mx/4.8.3/../../../../pic32mx/lib/fpu64\libpic32.a(default-on-bootstrap.o)
                              C:\Users\Andrew\AppData\Local\Temp\ccsLlpbg.o (_on_bootstrap)
c:/program files (x86)/microchip/xc32/v2.15/bin/bin/../../lib/gcc/pic32mx/4.8.3/../../../../pic32mx/lib/fpu64\libpic32.a(default-nmi-handler.o)
                              C:\Users\Andrew\AppData\Local\Temp\ccsLlpbg.o (_nmi_handler)
c:/program files (x86)/microchip/xc32/v2.15/bin/bin/../../lib/gcc/pic32mx/4.8.3/../../../../pic32mx/lib/fpu64\libpic32.a(pic32_data_init.o)
                              C:\Users\Andrew\AppData\Local\Temp\ccsLlpbg.o (__pic32_data_init)
c:/program files (x86)/microchip/xc32/v2.15/bin/bin/../../lib/gcc/pic32mx/4.8.3/../../../../pic32mx/lib/fpu64\libpic32.a(pic32_init_cache.o)
                              C:\Users\Andrew\AppData\Local\Temp\ccsLlpbg.o (__pic32_init_cache)
c:/program files (x86)/microchip/xc32/v2.15/bin/bin/../../lib/gcc/pic32mx/4.8.3/../../../../pic32mx/lib/fpu64\libpic32.a(pic32_init_tlb_ebi_sqi.o)
                              C:\Users\Andrew\AppData\Local\Temp\ccsLlpbg.o (__pic32_tlb_init_ebi_sqi)
c:/program files (x86)/microchip/xc32/v2.15/bin/bin/../../lib/gcc/pic32mx/4.8.3/../../../../pic32mx/lib/fpu64\libpic32.a(general-exception.o)
                              C:\Users\Andrew\AppData\Local\Temp\ccsLlpbg.o (_general_exception_context)
c:/program files (x86)/microchip/xc32/v2.15/bin/bin/../../lib/gcc/pic32mx/4.8.3/../../../../pic32mx/lib/fpu64\libpic32.a(cache-err-exception.o)
                              C:\Users\Andrew\AppData\Local\Temp\ccsLlpbg.o (_cache_err_exception_context)
c:/program files (x86)/microchip/xc32/v2.15/bin/bin/../../lib/gcc/pic32mx/4.8.3/../../../../pic32mx/lib/fpu64\libpic32.a(simple-tlb-refill-exception.o)
                              C:\Users\Andrew\AppData\Local\Temp\ccsLlpbg.o (_simple_tlb_refill_exception_context)
c:/program files (x86)/microchip/xc32/v2.15/bin/bin/../../lib/gcc/pic32mx/4.8.3/../../../../pic32mx/lib/fpu64\libpic32.a(defaultinterrupt.o)
                              C:\Users\Andrew\AppData\Local\Temp\ccodWkAM.o (_DefaultInterrupt)
c:/program files (x86)/microchip/xc32/v2.15/bin/bin/../../lib/gcc/pic32mx/4.8.3/../../../../pic32mx/lib/fpu64\libxcpp.a(xthrow.o)
                              build/default/production/_ext/1003616436/main.o (std::_Xlength_error(char const*))
c:/program files (x86)/microchip/xc32/v2.15/bin/bin/../../lib/gcc/pic32mx/4.8.3/../../../../pic32mx/lib/fpu64\libxcpp.a(abort.o)
                              c:/program files (x86)/microchip/xc32/v2.15/bin/bin/../../lib/gcc/pic32mx/4.8.3/../../../../pic32mx/lib/fpu64\libsupc++.a(eh_personality.o) (abort)
c:/program files (x86)/microchip/xc32/v2.15/bin/bin/../../lib/gcc/pic32mx/4.8.3/../../../../pic32mx/lib/fpu64\libxcpp.a(abs.o)
                              c:/program files (x86)/microchip/xc32/v2.15/bin/bin/../../lib/gcc/pic32mx/4.8.3/../../../../pic32mx/lib/fpu64\libsupc++.a(eh_personality.o) (abs)
c:/program files (x86)/microchip/xc32/v2.15/bin/bin/../../lib/gcc/pic32mx/4.8.3/../../../../pic32mx/lib/fpu64\libxcpp.a(exit.o)
                              c:/program files (x86)/microchip/xc32/v2.15/bin/bin/../../lib/gcc/pic32mx/4.8.3/../../../../pic32mx/lib/fpu64\libxcpp.a(abort.o) (exit)
c:/program files (x86)/microchip/xc32/v2.15/bin/bin/../../lib/gcc/pic32mx/4.8.3/../../../../pic32mx/lib/fpu64\libxcpp.a(free.o)
                              c:/program files (x86)/microchip/xc32/v2.15/bin/bin/../../lib/gcc/pic32mx/4.8.3/../../../../pic32mx/lib/fpu64\libsupc++.a(del_op.o) (free)
c:/program files (x86)/microchip/xc32/v2.15/bin/bin/../../lib/gcc/pic32mx/4.8.3/../../../../pic32mx/lib/fpu64\libxcpp.a(malloc.o)
                              c:/program files (x86)/microchip/xc32/v2.15/bin/bin/../../lib/gcc/pic32mx/4.8.3/../../../../pic32mx/lib/fpu64\libsupc++.a(eh_alloc.o) (malloc)
c:/program files (x86)/microchip/xc32/v2.15/bin/bin/../../lib/gcc/pic32mx/4.8.3/../../../../pic32mx/lib/fpu64\libxcpp.a(memmove.o)
                              c:/program files (x86)/microchip/xc32/v2.15/bin/bin/../../lib/gcc/pic32mx/4.8.3/../../../../pic32mx/lib/fpu64\libxcpp.a(xthrow.o) (memmove)
c:/program files (x86)/microchip/xc32/v2.15/bin/bin/../../lib/gcc/pic32mx/4.8.3/../../../../pic32mx/lib/fpu64\libxcpp.a(raise.o)
                              c:/program files (x86)/microchip/xc32/v2.15/bin/bin/../../lib/gcc/pic32mx/4.8.3/../../../../pic32mx/lib/fpu64\libxcpp.a(abort.o) (raise)
c:/program files (x86)/microchip/xc32/v2.15/bin/bin/../../lib/gcc/pic32mx/4.8.3/../../../../pic32mx/lib/fpu64\libxcpp.a(vsnprint.o)
                              build/default/production/_ext/1003616436/main.o (vsnprintf)
c:/program files (x86)/microchip/xc32/v2.15/bin/bin/../../lib/gcc/pic32mx/4.8.3/../../../../pic32mx/lib/fpu64\libxcpp.a(xexit.o)
                              c:/program files (x86)/microchip/xc32/v2.15/bin/bin/../../lib/gcc/pic32mx/4.8.3/../../../../pic32mx/lib/fpu64\libxcpp.a(exit.o) (_Exit)
c:/program files (x86)/microchip/xc32/v2.15/bin/bin/../../lib/gcc/pic32mx/4.8.3/../../../../pic32mx/lib/fpu64\libxcpp.a(xgetmem.o)
                              c:/program files (x86)/microchip/xc32/v2.15/bin/bin/../../lib/gcc/pic32mx/4.8.3/../../../../pic32mx/lib/fpu64\libxcpp.a(malloc.o) (_Getmem)
c:/program files (x86)/microchip/xc32/v2.15/bin/bin/../../lib/gcc/pic32mx/4.8.3/../../../../pic32mx/lib/fpu64\libxcpp.a(xprintf.o)
                              c:/program files (x86)/microchip/xc32/v2.15/bin/bin/../../lib/gcc/pic32mx/4.8.3/../../../../pic32mx/lib/fpu64\libxcpp.a(vsnprint.o) (_Printf)
c:/program files (x86)/microchip/xc32/v2.15/bin/bin/../../lib/gcc/pic32mx/4.8.3/../../../../pic32mx/lib/fpu64\libxcpp.a(xputfld.o)
                              c:/program files (x86)/microchip/xc32/v2.15/bin/bin/../../lib/gcc/pic32mx/4.8.3/../../../../pic32mx/lib/fpu64\libxcpp.a(xprintf.o) (_Putfld)
c:/program files (x86)/microchip/xc32/v2.15/bin/bin/../../lib/gcc/pic32mx/4.8.3/../../../../pic32mx/lib/fpu64\libxcpp.a(xputstr.o)
                              c:/program files (x86)/microchip/xc32/v2.15/bin/bin/../../lib/gcc/pic32mx/4.8.3/../../../../pic32mx/lib/fpu64\libxcpp.a(xputfld.o) (_Putstr)
c:/program files (x86)/microchip/xc32/v2.15/bin/bin/../../lib/gcc/pic32mx/4.8.3/../../../../pic32mx/lib/fpu64\libxcpp.a(xputtxt.o)
                              c:/program files (x86)/microchip/xc32/v2.15/bin/bin/../../lib/gcc/pic32mx/4.8.3/../../../../pic32mx/lib/fpu64\libxcpp.a(xprintf.o) (_Puttxt)
c:/program files (x86)/microchip/xc32/v2.15/bin/bin/../../lib/gcc/pic32mx/4.8.3/../../../../pic32mx/lib/fpu64\libxcpp.a(xstate.o)
                              c:/program files (x86)/microchip/xc32/v2.15/bin/bin/../../lib/gcc/pic32mx/4.8.3/../../../../pic32mx/lib/fpu64\libxcpp.a(xputstr.o) (_Getmbcurmax)
c:/program files (x86)/microchip/xc32/v2.15/bin/bin/../../lib/gcc/pic32mx/4.8.3/../../../../pic32mx/lib/fpu64\libxcpp.a(xvacopy.o)
                              c:/program files (x86)/microchip/xc32/v2.15/bin/bin/../../lib/gcc/pic32mx/4.8.3/../../../../pic32mx/lib/fpu64\libxcpp.a(xprintf.o) (_Vacopy)
c:/program files (x86)/microchip/xc32/v2.15/bin/bin/../../lib/gcc/pic32mx/4.8.3/../../../../pic32mx/lib/fpu64\libxcpp.a(xwctomb.o)
                              c:/program files (x86)/microchip/xc32/v2.15/bin/bin/../../lib/gcc/pic32mx/4.8.3/../../../../pic32mx/lib/fpu64\libxcpp.a(xputstr.o) (_Wctomb)
c:/program files (x86)/microchip/xc32/v2.15/bin/bin/../../lib/gcc/pic32mx/4.8.3/../../../../pic32mx/lib/fpu64\libxcpp.a(xfail_s.o)
                              c:/program files (x86)/microchip/xc32/v2.15/bin/bin/../../lib/gcc/pic32mx/4.8.3/../../../../pic32mx/lib/fpu64\libxcpp.a(xputfld.o) (_Fail_s)
c:/program files (x86)/microchip/xc32/v2.15/bin/bin/../../lib/gcc/pic32mx/4.8.3/../../../../pic32mx/lib/fpu64\libxcpp.a(errno.o)
                              c:/program files (x86)/microchip/xc32/v2.15/bin/bin/../../lib/gcc/pic32mx/4.8.3/../../../../pic32mx/lib/fpu64\libxcpp.a(xwctomb.o) (_Errno)
c:/program files (x86)/microchip/xc32/v2.15/bin/bin/../../lib/gcc/pic32mx/4.8.3/../../../../pic32mx/lib/fpu64\libxcpp.a(fputc.o)
                              c:/program files (x86)/microchip/xc32/v2.15/bin/bin/../../lib/gcc/pic32mx/4.8.3/../../../../pic32mx/lib/fpu64\libxcpp.a(xfail_s.o) (fputc)
c:/program files (x86)/microchip/xc32/v2.15/bin/bin/../../lib/gcc/pic32mx/4.8.3/../../../../pic32mx/lib/fpu64\libxcpp.a(fputs.o)
                              c:/program files (x86)/microchip/xc32/v2.15/bin/bin/../../lib/gcc/pic32mx/4.8.3/../../../../pic32mx/lib/fpu64\libxcpp.a(xfail_s.o) (fputs)
c:/program files (x86)/microchip/xc32/v2.15/bin/bin/../../lib/gcc/pic32mx/4.8.3/../../../../pic32mx/lib/fpu64\libxcpp.a(memchr.o)
                              c:/program files (x86)/microchip/xc32/v2.15/bin/bin/../../lib/gcc/pic32mx/4.8.3/../../../../pic32mx/lib/fpu64\libxcpp.a(xprintf.o) (memchr)
c:/program files (x86)/microchip/xc32/v2.15/bin/bin/../../lib/gcc/pic32mx/4.8.3/../../../../pic32mx/lib/fpu64\libxcpp.a(strchr.o)
                              c:/program files (x86)/microchip/xc32/v2.15/bin/bin/../../lib/gcc/pic32mx/4.8.3/../../../../pic32mx/lib/fpu64\libxcpp.a(xprintf.o) (strchr)
c:/program files (x86)/microchip/xc32/v2.15/bin/bin/../../lib/gcc/pic32mx/4.8.3/../../../../pic32mx/lib/fpu64\libxcpp.a(strrchr.o)
                              c:/program files (x86)/microchip/xc32/v2.15/bin/bin/../../lib/gcc/pic32mx/4.8.3/../../../../pic32mx/lib/fpu64\libxcpp.a(fputs.o) (strrchr)
c:/program files (x86)/microchip/xc32/v2.15/bin/bin/../../lib/gcc/pic32mx/4.8.3/../../../../pic32mx/lib/fpu64\libxcpp.a(xctype.o)
                              c:/program files (x86)/microchip/xc32/v2.15/bin/bin/../../lib/gcc/pic32mx/4.8.3/../../../../pic32mx/lib/fpu64\libxcpp.a(xprintf.o) (_Ctype)
c:/program files (x86)/microchip/xc32/v2.15/bin/bin/../../lib/gcc/pic32mx/4.8.3/../../../../pic32mx/lib/fpu64\libxcpp.a(xfiles.o)
                              c:/program files (x86)/microchip/xc32/v2.15/bin/bin/../../lib/gcc/pic32mx/4.8.3/../../../../pic32mx/lib/fpu64\libxcpp.a(xfail_s.o) (_Stderr)
c:/program files (x86)/microchip/xc32/v2.15/bin/bin/../../lib/gcc/pic32mx/4.8.3/../../../../pic32mx/lib/fpu64\libxcpp.a(xfwprep.o)
                              c:/program files (x86)/microchip/xc32/v2.15/bin/bin/../../lib/gcc/pic32mx/4.8.3/../../../../pic32mx/lib/fpu64\libxcpp.a(fputc.o) (_Fwprep)
c:/program files (x86)/microchip/xc32/v2.15/bin/bin/../../lib/gcc/pic32mx/4.8.3/../../../../pic32mx/lib/fpu64\libxcpp.a(xldtob.o)
                              c:/program files (x86)/microchip/xc32/v2.15/bin/bin/../../lib/gcc/pic32mx/4.8.3/../../../../pic32mx/lib/fpu64\libxcpp.a(xputfld.o) (_Ldtob)
c:/program files (x86)/microchip/xc32/v2.15/bin/bin/../../lib/gcc/pic32mx/4.8.3/../../../../pic32mx/lib/fpu64\libxcpp.a(xldunsca.o)
                              c:/program files (x86)/microchip/xc32/v2.15/bin/bin/../../lib/gcc/pic32mx/4.8.3/../../../../pic32mx/lib/fpu64\libxcpp.a(xldtob.o) (_LDunscale)
c:/program files (x86)/microchip/xc32/v2.15/bin/bin/../../lib/gcc/pic32mx/4.8.3/../../../../pic32mx/lib/fpu64\libxcpp.a(xlitob.o)
                              c:/program files (x86)/microchip/xc32/v2.15/bin/bin/../../lib/gcc/pic32mx/4.8.3/../../../../pic32mx/lib/fpu64\libxcpp.a(xputfld.o) (_Litob)
c:/program files (x86)/microchip/xc32/v2.15/bin/bin/../../lib/gcc/pic32mx/4.8.3/../../../../pic32mx/lib/fpu64\libxcpp.a(xlprec.o)
                              c:/program files (x86)/microchip/xc32/v2.15/bin/bin/../../lib/gcc/pic32mx/4.8.3/../../../../pic32mx/lib/fpu64\libxcpp.a(xldtob.o) (_LXp_setw)
c:/program files (x86)/microchip/xc32/v2.15/bin/bin/../../lib/gcc/pic32mx/4.8.3/../../../../pic32mx/lib/fpu64\libxcpp.a(xlvalues.o)
                              c:/program files (x86)/microchip/xc32/v2.15/bin/bin/../../lib/gcc/pic32mx/4.8.3/../../../../pic32mx/lib/fpu64\libxcpp.a(xlprec.o) (_LNan)
c:/program files (x86)/microchip/xc32/v2.15/bin/bin/../../lib/gcc/pic32mx/4.8.3/../../../../pic32mx/lib/fpu64\libxcpp.a(xmbtowc.o)
                              c:/program files (x86)/microchip/xc32/v2.15/bin/bin/../../lib/gcc/pic32mx/4.8.3/../../../../pic32mx/lib/fpu64\libxcpp.a(xprintf.o) (_Mbtowc)
c:/program files (x86)/microchip/xc32/v2.15/bin/bin/../../lib/gcc/pic32mx/4.8.3/../../../../pic32mx/lib/fpu64\libxcpp.a(xwcstate.o)
                              c:/program files (x86)/microchip/xc32/v2.15/bin/bin/../../lib/gcc/pic32mx/4.8.3/../../../../pic32mx/lib/fpu64\libxcpp.a(xwctomb.o) (_Tls_setup__Wcstate)
c:/program files (x86)/microchip/xc32/v2.15/bin/bin/../../lib/gcc/pic32mx/4.8.3/../../../../pic32mx/lib/fpu64\libxcpp.a(strnlen_s.o)
                              c:/program files (x86)/microchip/xc32/v2.15/bin/bin/../../lib/gcc/pic32mx/4.8.3/../../../../pic32mx/lib/fpu64\libxcpp.a(xfail_s.o) (strnlen_s)
c:/program files (x86)/microchip/xc32/v2.15/bin/bin/../../lib/gcc/pic32mx/4.8.3/../../../../pic32mx/lib/fpu64\libxcpp.a(fclose.o)
                              c:/program files (x86)/microchip/xc32/v2.15/bin/bin/../../lib/gcc/pic32mx/4.8.3/../../../../pic32mx/lib/fpu64\libxcpp.a(xfwprep.o) (_Closreg)
c:/program files (x86)/microchip/xc32/v2.15/bin/bin/../../lib/gcc/pic32mx/4.8.3/../../../../pic32mx/lib/fpu64\libxcpp.a(fflush.o)
                              c:/program files (x86)/microchip/xc32/v2.15/bin/bin/../../lib/gcc/pic32mx/4.8.3/../../../../pic32mx/lib/fpu64\libxcpp.a(fputc.o) (fflush)
c:/program files (x86)/microchip/xc32/v2.15/bin/bin/../../lib/gcc/pic32mx/4.8.3/../../../../pic32mx/lib/fpu64\libxcpp.a(ldexpl.o)
                              c:/program files (x86)/microchip/xc32/v2.15/bin/bin/../../lib/gcc/pic32mx/4.8.3/../../../../pic32mx/lib/fpu64\libxcpp.a(xlprec.o) (ldexpl)
c:/program files (x86)/microchip/xc32/v2.15/bin/bin/../../lib/gcc/pic32mx/4.8.3/../../../../pic32mx/lib/fpu64\libxcpp.a(ldiv.o)
                              c:/program files (x86)/microchip/xc32/v2.15/bin/bin/../../lib/gcc/pic32mx/4.8.3/../../../../pic32mx/lib/fpu64\libxcpp.a(xldtob.o) (ldiv)
c:/program files (x86)/microchip/xc32/v2.15/bin/bin/../../lib/gcc/pic32mx/4.8.3/../../../../pic32mx/lib/fpu64\libxcpp.a(remove.o)
                              c:/program files (x86)/microchip/xc32/v2.15/bin/bin/../../lib/gcc/pic32mx/4.8.3/../../../../pic32mx/lib/fpu64\libxcpp.a(fclose.o) (remove)
c:/program files (x86)/microchip/xc32/v2.15/bin/bin/../../lib/gcc/pic32mx/4.8.3/../../../../pic32mx/lib/fpu64\libxcpp.a(sqrtl.o)
                              c:/program files (x86)/microchip/xc32/v2.15/bin/bin/../../lib/gcc/pic32mx/4.8.3/../../../../pic32mx/lib/fpu64\libxcpp.a(xlprec.o) (sqrtl)
c:/program files (x86)/microchip/xc32/v2.15/bin/bin/../../lib/gcc/pic32mx/4.8.3/../../../../pic32mx/lib/fpu64\libxcpp.a(xatexit.o)
                              c:/program files (x86)/microchip/xc32/v2.15/bin/bin/../../lib/gcc/pic32mx/4.8.3/../../../../pic32mx/lib/fpu64\libxcpp.a(fclose.o) (_Atexit)
c:/program files (x86)/microchip/xc32/v2.15/bin/bin/../../lib/gcc/pic32mx/4.8.3/../../../../pic32mx/lib/fpu64\libxcpp.a(xdunscal.o)
                              c:/program files (x86)/microchip/xc32/v2.15/bin/bin/../../lib/gcc/pic32mx/4.8.3/../../../../pic32mx/lib/fpu64\libxcpp.a(xldunsca.o) (_Dunscale)
c:/program files (x86)/microchip/xc32/v2.15/bin/bin/../../lib/gcc/pic32mx/4.8.3/../../../../pic32mx/lib/fpu64\libxcpp.a(xferaise.o)
                              c:/program files (x86)/microchip/xc32/v2.15/bin/bin/../../lib/gcc/pic32mx/4.8.3/../../../../pic32mx/lib/fpu64\libxcpp.a(xlprec.o) (_Feraise)
c:/program files (x86)/microchip/xc32/v2.15/bin/bin/../../lib/gcc/pic32mx/4.8.3/../../../../pic32mx/lib/fpu64\libxcpp.a(xfofind.o)
                              c:/program files (x86)/microchip/xc32/v2.15/bin/bin/../../lib/gcc/pic32mx/4.8.3/../../../../pic32mx/lib/fpu64\libxcpp.a(fclose.o) (_Fofree)
c:/program files (x86)/microchip/xc32/v2.15/bin/bin/../../lib/gcc/pic32mx/4.8.3/../../../../pic32mx/lib/fpu64\libxcpp.a(xgenld.o)
                              c:/program files (x86)/microchip/xc32/v2.15/bin/bin/../../lib/gcc/pic32mx/4.8.3/../../../../pic32mx/lib/fpu64\libxcpp.a(xldtob.o) (_Genld)
c:/program files (x86)/microchip/xc32/v2.15/bin/bin/../../lib/gcc/pic32mx/4.8.3/../../../../pic32mx/lib/fpu64\libxcpp.a(xldint.o)
                              c:/program files (x86)/microchip/xc32/v2.15/bin/bin/../../lib/gcc/pic32mx/4.8.3/../../../../pic32mx/lib/fpu64\libxcpp.a(xlprec.o) (_LDint)
c:/program files (x86)/microchip/xc32/v2.15/bin/bin/../../lib/gcc/pic32mx/4.8.3/../../../../pic32mx/lib/fpu64\libxcpp.a(xldscale.o)
                              c:/program files (x86)/microchip/xc32/v2.15/bin/bin/../../lib/gcc/pic32mx/4.8.3/../../../../pic32mx/lib/fpu64\libxcpp.a(xldtob.o) (_LDscale)
c:/program files (x86)/microchip/xc32/v2.15/bin/bin/../../lib/gcc/pic32mx/4.8.3/../../../../pic32mx/lib/fpu64\libxcpp.a(xldtest.o)
                              c:/program files (x86)/microchip/xc32/v2.15/bin/bin/../../lib/gcc/pic32mx/4.8.3/../../../../pic32mx/lib/fpu64\libxcpp.a(xlprec.o) (_LDtest)
c:/program files (x86)/microchip/xc32/v2.15/bin/bin/../../lib/gcc/pic32mx/4.8.3/../../../../pic32mx/lib/fpu64\libxcpp.a(feraiseexcept.o)
                              c:/program files (x86)/microchip/xc32/v2.15/bin/bin/../../lib/gcc/pic32mx/4.8.3/../../../../pic32mx/lib/fpu64\libxcpp.a(xferaise.o) (feraiseexcept)
c:/program files (x86)/microchip/xc32/v2.15/bin/bin/../../lib/gcc/pic32mx/4.8.3/../../../../pic32mx/lib/fpu64\libxcpp.a(fesetenv.o)
                              c:/program files (x86)/microchip/xc32/v2.15/bin/bin/../../lib/gcc/pic32mx/4.8.3/../../../../pic32mx/lib/fpu64\libxcpp.a(feraiseexcept.o) (fesetenv)
c:/program files (x86)/microchip/xc32/v2.15/bin/bin/../../lib/gcc/pic32mx/4.8.3/../../../../pic32mx/lib/fpu64\libxcpp.a(div.o)
                              c:/program files (x86)/microchip/xc32/v2.15/bin/bin/../../lib/gcc/pic32mx/4.8.3/../../../../pic32mx/lib/fpu64\libxcpp.a(xgenld.o) (div)
c:/program files (x86)/microchip/xc32/v2.15/bin/bin/../../lib/gcc/pic32mx/4.8.3/../../../../pic32mx/lib/fpu64\libxcpp.a(localeco.o)
                              c:/program files (x86)/microchip/xc32/v2.15/bin/bin/../../lib/gcc/pic32mx/4.8.3/../../../../pic32mx/lib/fpu64\libxcpp.a(xgenld.o) (localeconv)
c:/program files (x86)/microchip/xc32/v2.15/bin/bin/../../lib/gcc/pic32mx/4.8.3/../../../../pic32mx/lib/fpu64\libxcpp.a(xdint.o)
                              c:/program files (x86)/microchip/xc32/v2.15/bin/bin/../../lib/gcc/pic32mx/4.8.3/../../../../pic32mx/lib/fpu64\libxcpp.a(xldint.o) (_Dint)
c:/program files (x86)/microchip/xc32/v2.15/bin/bin/../../lib/gcc/pic32mx/4.8.3/../../../../pic32mx/lib/fpu64\libxcpp.a(xdnorm.o)
                              c:/program files (x86)/microchip/xc32/v2.15/bin/bin/../../lib/gcc/pic32mx/4.8.3/../../../../pic32mx/lib/fpu64\libxcpp.a(xdunscal.o) (_Dnorm)
c:/program files (x86)/microchip/xc32/v2.15/bin/bin/../../lib/gcc/pic32mx/4.8.3/../../../../pic32mx/lib/fpu64\libxcpp.a(xdscale.o)
                              c:/program files (x86)/microchip/xc32/v2.15/bin/bin/../../lib/gcc/pic32mx/4.8.3/../../../../pic32mx/lib/fpu64\libxcpp.a(xldscale.o) (_Dscale)
c:/program files (x86)/microchip/xc32/v2.15/bin/bin/../../lib/gcc/pic32mx/4.8.3/../../../../pic32mx/lib/fpu64\libxcpp.a(xdtest.o)
                              c:/program files (x86)/microchip/xc32/v2.15/bin/bin/../../lib/gcc/pic32mx/4.8.3/../../../../pic32mx/lib/fpu64\libxcpp.a(xldtest.o) (_Dtest)
c:/program files (x86)/microchip/xc32/v2.15/bin/bin/../../lib/gcc/pic32mx/4.8.3/../../../../pic32mx/lib/fpu64\libxcpp.a(xvalues.o)
                              c:/program files (x86)/microchip/xc32/v2.15/bin/bin/../../lib/gcc/pic32mx/4.8.3/../../../../pic32mx/lib/fpu64\libxcpp.a(xdscale.o) (_Inf)
c:/program files (x86)/microchip/xc32/v2.15/bin/bin/../../lib/gcc/pic32mx/4.8.3/../../../../pic32mx/lib/fpu64\libxcpp.a(fegetenv.o)
                              c:/program files (x86)/microchip/xc32/v2.15/bin/bin/../../lib/gcc/pic32mx/4.8.3/../../../../pic32mx/lib/fpu64\libxcpp.a(feraiseexcept.o) (fegetenv)
c:/program files (x86)/microchip/xc32/v2.15/bin/bin/../../lib/gcc/pic32mx/4.8.3/../../../../pic32mx/lib/fpu64\libpic32.a(sbrk.o)
                              c:/program files (x86)/microchip/xc32/v2.15/bin/bin/../../lib/gcc/pic32mx/4.8.3/../../../../pic32mx/lib/fpu64\libxcpp.a(xgetmem.o) (sbrk)
c:/program files (x86)/microchip/xc32/v2.15/bin/bin/../../lib/gcc/pic32mx/4.8.3/../../../../pic32mx/lib/fpu64\libpic32.a(_exit.o)
                              c:/program files (x86)/microchip/xc32/v2.15/bin/bin/../../lib/gcc/pic32mx/4.8.3/../../../../pic32mx/lib/fpu64\libxcpp.a(xexit.o) (_exit)
c:/program files (x86)/microchip/xc32/v2.15/bin/bin/../../lib/gcc/pic32mx/4.8.3/../../../../pic32mx/lib/fpu64\libpic32.a(isatty.o)
                              c:/program files (x86)/microchip/xc32/v2.15/bin/bin/../../lib/gcc/pic32mx/4.8.3/../../../../pic32mx/lib/fpu64\libxcpp.a(xfwprep.o) (isatty)
c:/program files (x86)/microchip/xc32/v2.15/bin/bin/../../lib/gcc/pic32mx/4.8.3/../../../../pic32mx/lib/fpu64\libpic32.a(write.o)
                              c:/program files (x86)/microchip/xc32/v2.15/bin/bin/../../lib/gcc/pic32mx/4.8.3/../../../../pic32mx/lib/fpu64\libxcpp.a(fflush.o) (write)
c:/program files (x86)/microchip/xc32/v2.15/bin/bin/../../lib/gcc/pic32mx/4.8.3/../../../../pic32mx/lib/fpu64\libpic32.a(close.o)
                              c:/program files (x86)/microchip/xc32/v2.15/bin/bin/../../lib/gcc/pic32mx/4.8.3/../../../../pic32mx/lib/fpu64\libxcpp.a(fclose.o) (close)
c:/program files (x86)/microchip/xc32/v2.15/bin/bin/../../lib/gcc/pic32mx/4.8.3/../../../../pic32mx/lib/fpu64\libpic32.a(unlink.o)
                              c:/program files (x86)/microchip/xc32/v2.15/bin/bin/../../lib/gcc/pic32mx/4.8.3/../../../../pic32mx/lib/fpu64\libxcpp.a(remove.o) (unlink)
c:/program files (x86)/microchip/xc32/v2.15/bin/bin/../../lib/gcc/pic32mx/4.8.3/../../../../pic32mx/lib/fpu64\libpic32.a(kill.o)
                              c:/program files (x86)/microchip/xc32/v2.15/bin/bin/../../lib/gcc/pic32mx/4.8.3/../../../../pic32mx/lib/fpu64\libxcpp.a(raise.o) (kill)
c:/program files (x86)/microchip/xc32/v2.15/bin/bin/../../lib/gcc/pic32mx/4.8.3/../../../../pic32mx/lib/fpu64\libpic32.a(getpid.o)
                              c:/program files (x86)/microchip/xc32/v2.15/bin/bin/../../lib/gcc/pic32mx/4.8.3/../../../../pic32mx/lib/fpu64\libxcpp.a(raise.o) (getpid)
c:/program files (x86)/microchip/xc32/v2.15/bin/bin/../../lib/gcc/pic32mx/4.8.3/../../../../pic32mx/lib/fpu64\libpic32.a(errno.o)
                              c:/program files (x86)/microchip/xc32/v2.15/bin/bin/../../lib/gcc/pic32mx/4.8.3/../../../../pic32mx/lib/fpu64\libpic32.a(sbrk.o) (errno)
c:/program files (x86)/microchip/xc32/v2.15/bin/bin/../../lib/gcc/pic32mx/4.8.3/../../../../pic32mx/lib/fpu64\libpic32.a(rmdir.o)
                              c:/program files (x86)/microchip/xc32/v2.15/bin/bin/../../lib/gcc/pic32mx/4.8.3/../../../../pic32mx/lib/fpu64\libxcpp.a(remove.o) (rmdir)
c:/program files (x86)/microchip/xc32/v2.15/bin/bin/../../lib/gcc/pic32mx/4.8.3/fpu64\libgcc.a(_udivdi3.o)
                              c:/program files (x86)/microchip/xc32/v2.15/bin/bin/../../lib/gcc/pic32mx/4.8.3/../../../../pic32mx/lib/fpu64\libxcpp.a(xlitob.o) (__udivdi3)
c:/program files (x86)/microchip/xc32/v2.15/bin/bin/../../lib/gcc/pic32mx/4.8.3/fpu64\libgcc.a(_umoddi3.o)
                              c:/program files (x86)/microchip/xc32/v2.15/bin/bin/../../lib/gcc/pic32mx/4.8.3/../../../../pic32mx/lib/fpu64\libxcpp.a(xlitob.o) (__umoddi3)

Allocating common symbols
Common symbol       size              file

gUSBDeviceCDCInstance
                    0x40              build/default/production/_ext/763370911/usb_device_cdc.o
gUSBDeviceCDCIRP    0x6c              build/default/production/_ext/763370911/usb_device_cdc.o
gDrvUSBEndpoints    0xa0              build/default/production/_ext/490896790/drv_usbhs.o
sysObj              0x8               build/default/production/_ext/1160401513/initialization.o
gDrvUSBObj          0x134             build/default/production/_ext/490896790/drv_usbhs.o
g_appData           0x20              build/default/production/_ext/1003616436/app.o
uart6Obj            0x30              build/default/production/_ext/301408759/plib_uart6.o
gUSBDeviceCdcCommonDataObj
                    0x2               build/default/production/_ext/763370911/usb_device_cdc.o

Microchip PIC32 Memory-Usage Report

kseg0 Program-Memory Usage
section                    address  length [bytes]      (dec)  Description
-------                 ----------  -------------------------  -----------
.simple_tlb_refill_excp 0x9d000000           0x10          16   
.text.free              0x9d000010           0xe8         232   
.text.BSP_Initialize    0x9d0000f8            0x8           8   
.cache_err_excpt        0x9d000100           0x10          16   
.text._ZL23__gxx_except 0x9d000110           0x70         112   
.app_excpt              0x9d000180           0x10          16  General-Exception 
.text._USB_DEVICE_CDC_D 0x9d000190           0x6c         108   
.rodata                 0x9d0001fc            0x4           4  Read-only const 
.vectors                0x9d000200           0x70         112   
.text                   0x9d000270         0x11e8        4584  App's exec code 
.init                   0x9d001458           0x24          36   
.fini                   0x9d00147c           0x1c          28   
.ctors                  0x9d001498            0xc          12   
.dtors                  0x9d0014a4            0xc          12   
.rodata                 0x9d0014b0          0x23c         572  Read-only const 
.text._Putfld           0x9d0016ec          0xa8c        2700   
.dinit                  0x9d002178          0xa50        2640   
.text._DRV_USBHS_DEVICE 0x9d002bc8          0x9f0        2544   
.text._Ldtob            0x9d0035b8          0x8c0        2240   
.text._Genld            0x9d003e78          0x5bc        1468   
.text                   0x9d004434          0x5a8        1448  App's exec code 
.text.DRV_USBHS_DEVICE_ 0x9d0049dc          0x52c        1324   
.text._Printf           0x9d004f08          0x4f8        1272   
.text.main              0x9d005400          0x464        1124   
.text                   0x9d005864          0x8bc        2236  App's exec code 
.text._LXp_addh         0x9d006120          0x42c        1068   
.text._DRV_USBHS_Proces 0x9d00654c          0x424        1060   
.text.DRV_USBHS_DEVICE_ 0x9d006970          0x3cc         972   
.text._Puttxt           0x9d006d3c          0x33c         828   
.text._Dscale           0x9d007078          0x2dc         732   
.text._Wctombx          0x9d007354          0x2d8         728   
.text._Litob            0x9d00762c          0x2bc         700   
.text._DRV_USBHS_DEVICE 0x9d0078e8          0x2a4         676   
.text.DRV_USBHS_Tasks   0x9d007b8c          0x290         656   
.text.DRV_USBHS_DEVICE_ 0x9d007e1c          0x26c         620   
.text                   0x9d008088          0x258         600  App's exec code 
.text._LXp_mulh         0x9d0082e0          0x254         596   
.text._Mbtowcx          0x9d008534          0x254         596   
.rodata                 0x9d008788          0x250         592  Read-only const 
.text.DRV_USBHS_DEVICE_ 0x9d0089d8          0x238         568   
.text._Putstr           0x9d008c10          0x22c         556   
.text._USB_DEVICE_Other 0x9d008e3c          0x224         548   
.text.malloc            0x9d009060          0x220         544   
.text._USB_DEVICE_Event 0x9d009280          0x21c         540   
.text._USB_DEVICE_Proce 0x9d00949c          0x214         532   
.text.DRV_USBHS_DEVICE_ 0x9d0096b0          0x20c         524   
.text._USB_DEVICE_Proce 0x9d0098bc          0x204         516   
.text._USB_DEVICE_Contr 0x9d009ac0          0x204         516   
.rodata                 0x9d009cc4          0x204         516  Read-only const 
.text.DRV_USBHS_DEVICE_ 0x9d009ec8          0x1dc         476   
.text.USB_DEVICE_CDC_Wr 0x9d00a0a4          0x1cc         460   
.text.DRV_USBHS_DEVICE_ 0x9d00a270          0x1ac         428   
.text.USB_DEVICE_CDC_Re 0x9d00a41c          0x1ac         428   
.rodata                 0x9d00a5c8          0x1a4         420  Read-only const 
.text.USB_Handler       0x9d00a76c          0x1a0         416   
.text.USB_DMA_Handler   0x9d00a90c          0x1a0         416   
.text.UART6_FAULT_Handl 0x9d00aaac          0x1a0         416   
.text.UART6_RX_Handler  0x9d00ac4c          0x1a0         416   
.text.UART6_TX_Handler  0x9d00adec          0x1a0         416   
.text.fputs             0x9d00af8c          0x194         404   
.text._sbrk_init        0x9d00b120          0x194         404   
.text._USB_DEVICE_Ep0Re 0x9d00b2b4          0x184         388   
.text._ZL28read_encoded 0x9d00b438          0x17c         380   
.text.USB_DEVICE_Tasks  0x9d00b5b4          0x178         376   
.text._USB_DEVICE_CDC_A 0x9d00b72c          0x170         368   
.text._LXp_mulx         0x9d00b89c          0x170         368   
.text._ZNK10__cxxabiv12 0x9d00ba0c          0x16c         364   
.text._Dnorm            0x9d00bb78          0x16c         364   
.text                   0x9d00bce4          0x2d0         720  App's exec code 
.text.DRV_USBHS_DEVICE_ 0x9d00bfb4          0x164         356   
.text._Dint             0x9d00c118          0x160         352   
.text.USB_DEVICE_Initia 0x9d00c278          0x15c         348   
.text.fflush            0x9d00c3d4          0x154         340   
.text._Fwprep           0x9d00c528          0x150         336   
.text._LXp_setw         0x9d00c678          0x150         336   
.text._USB_DEVICE_CDC_I 0x9d00c7c8          0x14c         332   
.text._DRV_USBHS_DEVICE 0x9d00c914          0x13c         316   
.text._ZL17parse_lsda_h 0x9d00ca50          0x12c         300   
.text                   0x9d00cb7c          0x120         288  App's exec code 
.text._ZN7USB_CDC16_CDC 0x9d00cc9c          0x114         276   
.text                   0x9d00cdb0          0x10c         268  App's exec code 
.text._Atrealloc        0x9d00cebc          0x108         264   
.text._USB_DEVICE_Confi 0x9d00cfc4          0x100         256   
.text._USB_DEVICE_Proce 0x9d00d0c4          0x100         256   
.text._Wctomb           0x9d00d1c4           0xfc         252   
.text._USB_DEVICE_CDC_C 0x9d00d2c0           0xf8         248   
.text.UART6_RX_Interrup 0x9d00d3b8           0xf4         244   
.text.fclose            0x9d00d4ac           0xf4         244   
.text._Dunscale         0x9d00d5a0           0xe4         228   
.text._ZNK10__cxxabiv11 0x9d00d684           0xe0         224   
.text.general_exception 0x9d00d764           0xdc         220   
.text.UART6_TX_Interrup 0x9d00d840           0xd8         216   
.text._cache_err_except 0x9d00d918           0xd8         216   
.text.simple_tlb_refill 0x9d00d9f0           0xd8         216   
.text._ZNK10__cxxabiv11 0x9d00dac8           0xd4         212   
.text._USB_DEVICE_GetSt 0x9d00db9c           0xd0         208   
.text._ZN7USB_CDC7start 0x9d00dc6c           0xd0         208   
.text.__cxa_end_catch   0x9d00dd3c           0xd0         208   
.text.SYS_Initialize    0x9d00de0c           0xcc         204   
.text.fputc             0x9d00ded8           0xcc         204   
.text._DRV_USBHS_DEVICE 0x9d00dfa4           0xc8         200   
.text.exit              0x9d00e06c           0xc8         200   
.text._sbrk             0x9d00e134           0xc8         200   
.text.GPIO_Initialize   0x9d00e1fc           0xc4         196   
.text.__cxa_begin_catch 0x9d00e2c0           0xc4         196   
.text._USB_DEVICE_Ep0Tr 0x9d00e384           0xc0         192   
.tlb.__pic32_tlb_init_e 0x9d00e444           0xbc         188   
.text._LXp_addx         0x9d00e500           0xbc         188   
.text.DRV_USBHS_Initial 0x9d00e5bc           0xb8         184   
.text.DRV_USBHS_Open    0x9d00e674           0xb8         184   
.text._ZSt14_Xlength_er 0x9d00e72c           0xb8         184   
.text._ZSt14_Xout_of_ra 0x9d00e7e4           0xb8         184   
.text._Fail_s           0x9d00e89c           0xb0         176   
.text.UART6_Write       0x9d00e94c           0xac         172   
.text._ZL20check_except 0x9d00e9f8           0xac         172   
.text.DRV_USBHS_ClientE 0x9d00eaa4           0xa8         168   
.text._USB_DEVICE_DeIni 0x9d00eb4c           0xa8         168   
.text._ZL21size_of_enco 0x9d00ebf4           0xa8         168   
.text                   0x9d00ec9c           0xa8         168  App's exec code 
.text._ZN7USB_CDC19_dev 0x9d00ed44           0xa4         164   
.text.__cxa_allocate_ex 0x9d00ede8           0xa4         164   
.text._ZL21base_of_enco 0x9d00ee8c           0xa4         164   
.text._Fofree           0x9d00ef30           0xa4         164   
.text._USB_DEVICE_CDC_R 0x9d00efd4           0xa0         160   
.text._USB_DEVICE_CDC_W 0x9d00f074           0xa0         160   
.text._Z14UART6_TxStrin 0x9d00f114           0xa0         160   
.text                   0x9d00f1b4           0xa0         160  App's exec code 
.text.DRV_USBHS_Tasks_I 0x9d00f254           0x9c         156   
.text._USB_DEVICE_Forwa 0x9d00f2f0           0x9c         156   
.text.__cxa_throw       0x9d00f38c           0x9c         156   
.text._Atexit           0x9d00f428           0x9c         156   
.text.write             0x9d00f4c4           0x9c         156   
.text.CLK_Initialize    0x9d00f560           0x94         148   
.text._ZNK10__cxxabiv12 0x9d00f5f4           0x94         148   
.text.DRV_USBHS_Tasks_I 0x9d00f688           0x90         144   
.text._DRV_USBHS_DEVICE 0x9d00f718           0x8c         140   
.text.__cxa_rethrow     0x9d00f7a4           0x8c         140   
.text._Znwm             0x9d00f830           0x8c         140   
.text.UART6_ErrorGet    0x9d00f8bc           0x88         136   
.text._Dtest            0x9d00f944           0x88         136   
.text.UART6_Initialize  0x9d00f9cc           0x84         132   
.text._USB_DEVICE_GetFu 0x9d00fa50           0x84         132   
.text._USB_DEVICE_FindE 0x9d00fad4           0x84         132   
.text.USB_DEVICE_Contro 0x9d00fb58           0x84         132   
.text._ZNK10__cxxabiv11 0x9d00fbdc           0x84         132   
.text                   0x9d00fc60           0x84         132  App's exec code 
.text.UART6_Read        0x9d00fce4           0x80         128   
.text._ZL16get_adjusted 0x9d00fd64           0x80         128   
.text.USB_DEVICE_Contro 0x9d00fde4           0x7c         124   
.text._ZN10__cxxabiv111 0x9d00fe60           0x74         116   
.text.APP_Initialize    0x9d00fed4           0x6c         108   
.text._Z16LED_RGB_setCo 0x9d00ff40           0x6c         108   
.text.__cxa_free_except 0x9d00ffac           0x6c         108   
.text._ZNK10__cxxabiv12 0x9d010018           0x6c         108   
.text.memmove           0x9d010084           0x6c         108   
.text._Feraise          0x9d0100f0           0x6c         108   
.text._ZNK10__cxxabiv11 0x9d01015c           0x68         104   
.rodata                 0x9d0101c4           0x68         104  Read-only const 
.text.closeall          0x9d01022c           0x68         104   
.text._DRV_USBHS_DEVICE 0x9d010294           0x64         100   
.text._DRV_USBHS_DEVICE 0x9d0102f8           0x64         100   
.text._ZN7USB_CDC10open 0x9d01035c           0x64         100   
.text.__cxa_call_termin 0x9d0103c0           0x64         100   
.text.prout             0x9d010424           0x64         100   
.text._ZL15get_ttype_en 0x9d010488           0x60          96   
.text.CORETIMER_Start   0x9d0104e8           0x5c          92   
.text.USB_DEVICE_Endpoi 0x9d010544           0x5c          92   
.text._ZSt9_AllocateIcE 0x9d0105a0           0x5c          92   
.text.SYS_INT_SourceDis 0x9d0105fc           0x58          88   
.text.USB_DEVICE_EventH 0x9d010654           0x58          88   
.text.USB_DEVICE_IRPSub 0x9d0106ac           0x58          88   
.text._Mbtowc           0x9d010704           0x58          88   
.text                   0x9d01075c           0x58          88  App's exec code 
.text.main_entry        0x9d0107b4           0x54          84   
.text.strnlen_s         0x9d010808           0x54          84   
.text.DRV_USBHS_DEVICE_ 0x9d01085c           0x50          80   
.text.DRV_USBHS_DEVICE_ 0x9d0108ac           0x50          80   
.text.USB_DEVICE_Detach 0x9d0108fc           0x50          80   
.text._ZL12read_sleb128 0x9d01094c           0x50          80   
.text._ZNKSt9type_info1 0x9d01099c           0x50          80   
.text.vsnprintf         0x9d0109ec           0x50          80   
.rodata                 0x9d010a40           0x50          80  Read-only const 
.text.sbrk              0x9d010a90           0x50          80   
.text.DRV_USBHS_DEVICE_ 0x9d010ae0           0x4c          76   
.text._DRV_USBHS_DEVICE 0x9d010b2c           0x4c          76   
.text.EVIC_Initialize   0x9d010b78           0x4c          76   
.text.UART6_FAULT_Inter 0x9d010bc4           0x4c          76   
.text.USB_DEVICE_Open   0x9d010c10           0x4c          76   
.text._USB_DEVICE_Redir 0x9d010c5c           0x4c          76   
.text._USB_DEVICE_CDC_E 0x9d010ca8           0x4c          76   
.text.DRV_USBHS_DEVICE_ 0x9d010cf4           0x48          72   
.text.USB_DEVICE_Attach 0x9d010d3c           0x48          72   
.text.USB_DEVICE_Endpoi 0x9d010d84           0x48          72   
.text.USB_DEVICE_Contro 0x9d010dcc           0x48          72   
.text.USB_DEVICE_IRPCan 0x9d010e14           0x48          72   
.rodata                 0x9d010e5c           0x48          72  Read-only const 
.text.memchr            0x9d010ea4           0x48          72   
.text.SUSB_DefaultConte 0x9d010eec           0x44          68   
.text                   0x9d010f30           0x44          68  App's exec code 
.text._ZN7USB_CDCC2Ev   0x9d010f74           0x40          64   
.text._Closreg          0x9d010fb4           0x40          64   
.text.CORETIMER_Initial 0x9d010ff4           0x3c          60   
.text._Getmbcurmax      0x9d011030           0x3c          60   
.text.remove            0x9d01106c           0x3c          60   
.text.DRV_USBHS_DEVICE_ 0x9d0110a8           0x38          56   
.rodata                 0x9d0110e0           0x38          56  Read-only const 
.text.USB_DEVICE_CDC_Ev 0x9d011118           0x38          56   
.text._ZN10__cxxabiv117 0x9d011150           0x38          56   
.text._ZN10__cxxabiv120 0x9d011188           0x38          56   
.rodata                 0x9d0111c0           0x38          56  Read-only const 
.text._Z14LED_RGB_enabl 0x9d0111f8           0x34          52   
.text._GLOBAL__sub_I_rx 0x9d01122c           0x34          52   
.text._Getmem           0x9d011260           0x34          52   
.text.strchr            0x9d011294           0x34          52   
.text._LXp_movx         0x9d0112c8           0x34          52   
.text.DRV_USBHS_Close   0x9d0112fc           0x30          48   
.text.TMR2_Initialize   0x9d01132c           0x30          48   
.rodata                 0x9d01135c           0x30          48  Read-only const 
.text._Z16UART6_RxCallb 0x9d01138c           0x30          48   
.text.raise             0x9d0113bc           0x30          48   
.rodata                 0x9d0113ec           0x30          48  Read-only const 
.text                   0x9d01141c           0x30          48  App's exec code 
.text.SYS_Tasks         0x9d01144c           0x2c          44   
.text._Z16UART6_TxCallb 0x9d011478           0x2c          44   
.text._ZN7USB_CDC13sche 0x9d0114a4           0x2c          44   
.rodata                 0x9d0114d0           0x2c          44  Read-only const 
.text._stub_sbd_memlayo 0x9d0114fc           0x2c          44   
.text.EVIC_SourceEnable 0x9d011528           0x28          40   
.text.EVIC_SourceDisabl 0x9d011550           0x28          40   
.text.EVIC_SourceStatus 0x9d011578           0x28          40   
.text.OCMP8_Initialize  0x9d0115a0           0x28          40   
.text.OCMP5_Initialize  0x9d0115c8           0x28          40   
.text.OCMP3_Initialize  0x9d0115f0           0x28          40   
.text._USB_DEVICE_Clien 0x9d011618           0x28          40   
.text._GLOBAL__sub_D_rx 0x9d011640           0x28          40   
.text._ZdlPv            0x9d011668           0x28          40   
.text.strrchr           0x9d011690           0x28          40   
.rodata                 0x9d0116b8           0x28          40  Read-only const 
.text._DRV_USBHS_DEVICE 0x9d0116e0           0x24          36   
.text.SYS_INT_Restore   0x9d011704           0x24          36   
.text._general_exceptio 0x9d011728           0x24          36   
.text._bootstrap_except 0x9d01174c           0x24          36   
.text._cache_err_except 0x9d011770           0x24          36   
.text._simple_tlb_refil 0x9d011794           0x24          36   
.text._ZN7USB_CDC12sche 0x9d0117b8           0x24          36   
.text._ZN10__cxxabiv117 0x9d0117dc           0x24          36   
.rodata                 0x9d011800           0x24          36  Read-only const 
.text._ZNSt9exceptionD0 0x9d011824           0x24          36   
.text._ZN10__cxxabiv120 0x9d011848           0x24          36   
.text._ZNSt9type_infoD0 0x9d01186c           0x24          36   
.text._Vacopy           0x9d011890           0x24          36   
.text.ldiv              0x9d0118b4           0x24          36   
.text.div               0x9d0118d8           0x24          36   
.text.EVIC_SourceIsEnab 0x9d0118fc           0x20          32   
.text.SYS_INT_Disable   0x9d01191c           0x20          32   
.text._USB_DEVICE_CDC_G 0x9d01193c           0x20          32   
.rodata                 0x9d01195c           0x20          32  Read-only const 
.text.DRV_USBHS_Interru 0x9d01197c           0x1c          28   
.text.DRV_USBHS_DMAInte 0x9d011998           0x1c          28   
.text._ZNK10__cxxabiv11 0x9d0119b4           0x1c          28   
.text._LDunscale        0x9d0119d0           0x1c          28   
.text._LDint            0x9d0119ec           0x1c          28   
.text._LDscale          0x9d011a08           0x1c          28   
.text._LDtest           0x9d011a24           0x1c          28   
.text.CORETIMER_Counter 0x9d011a40           0x18          24   
.text._ZN10__cxxabiv112 0x9d011a58           0x18          24   
.text                   0x9d011a70           0x18          24  App's exec code 
.text.abort             0x9d011a88           0x18          24   
.rodata                 0x9d011aa0           0x18          24  Read-only const 
.text.OCMP8_Enable      0x9d011ab8           0x14          20   
.text.OCMP5_Enable      0x9d011acc           0x14          20   
.text.OCMP3_Enable      0x9d011ae0           0x14          20   
.text.TMR2_Start        0x9d011af4           0x14          20   
.text.UART6_ReadCallbac 0x9d011b08           0x14          20   
.text.UART6_WriteCallba 0x9d011b1c           0x14          20   
.rodata                 0x9d011b30           0x14          20  Read-only const 
.text._Z14USB_RxCallbac 0x9d011b44           0x14          20   
.text._ZSt9terminatev   0x9d011b58           0x14          20   
.text._ZSt10unexpectedv 0x9d011b6c           0x14          20   
.text.unlink            0x9d011b80           0x14          20   
.text.rmdir             0x9d011b94           0x14          20   
.text.OCMP8_CompareSeco 0x9d011ba8           0x10          16   
.text.OCMP5_CompareSeco 0x9d011bb8           0x10          16   
.text.OCMP3_CompareSeco 0x9d011bc8           0x10          16   
.text.TMR2_PeriodSet    0x9d011bd8           0x10          16   
.text.TMR2_PeriodGet    0x9d011be8           0x10          16   
.text._Z14USB_TxCallbac 0x9d011bf8           0x10          16   
.text._ZNSt9exceptionD2 0x9d011c08           0x10          16   
.text._ZNSt9type_infoD2 0x9d011c18           0x10          16   
.text._Exit             0x9d011c28           0x10          16   
.text.UART6_WriteIsBusy 0x9d011c38            0xc          12   
.text._ZN7USB_CDC20read 0x9d011c44            0xc          12   
.text._ZN7USB_CDC21writ 0x9d011c50            0xc          12   
.text._ZNKSt9exception4 0x9d011c5c            0xc          12   
.text.__cxa_get_globals 0x9d011c68            0xc          12   
.text.__cxa_get_globals 0x9d011c74            0xc          12   
.text.localeconv        0x9d011c80            0xc          12   
.text.DRV_USBHS_DEVICE_ 0x9d011c8c            0x8           8   
.text.DRV_USBHS_DEVICE_ 0x9d011c94            0x8           8   
.text.DRV_USBHS_DEVICE_ 0x9d011c9c            0x8           8   
.text._mon_putc         0x9d011ca4            0x8           8   
.text.APP_Tasks         0x9d011cac            0x8           8   
.text._ZNKSt9type_info1 0x9d011cb4            0x8           8   
.text._ZNKSt9type_info1 0x9d011cbc            0x8           8   
.text._ZNKSt9type_info1 0x9d011cc4            0x8           8   
.text._on_reset         0x9d011ccc            0x8           8   
.text._on_bootstrap     0x9d011cd4            0x8           8   
.text._exit             0x9d011cdc            0x8           8   
.text.isatty            0x9d011ce4            0x8           8   
.text.close             0x9d011cec            0x8           8   
.text.kill              0x9d011cf4            0x8           8   
.text.getpid            0x9d011cfc            0x8           8   
      Total kseg0_program_mem used  :     0x11d00       72960  3.5% of 0x200000

kseg0 Boot-Memory Usage
section                    address  length [bytes]      (dec)  Description
-------                 ----------  -------------------------  -----------
         Total kseg0_boot_mem used  :           0           0  

kseg1 Boot-Memory Usage
section                    address  length [bytes]      (dec)  Description
-------                 ----------  -------------------------  -----------
.reset                  0xbfc00000          0x1c0         448  Reset handler 
.bev_excpt              0xbfc00380           0x10          16  BEV-Exception 
         Total kseg1_boot_mem used  :       0x1d0         464  40.3% of 0x480
        --------------------------------------------------------------------------
         Total Program Memory used  :     0x11ed0       73424  3.5% of 0x200480
        --------------------------------------------------------------------------


kseg0 Data-Memory Usage
section                    address  length [bytes]      (dec)  Description
-------                 ----------  -------------------------  -----------
.jcr                    0x80000000            0x4           4   
.eh_frame               0x80000004            0x4           4   
.gcc_except_table       0x80000008           0x94         148   
.sdata                  0x8000009c           0x38          56  Small init data 
.sbss                   0x800000d4           0x28          40  Small uninit data 
.bss                    0x800000fc          0x2d0         720  Uninitialized data 
.bss._ZL14emergency_use 0x800003cc            0x4           4   
.bss._ZL16emergency_buf 0x800007d0          0x800        2048   
.bss                    0x80000fd0          0x240         576  Uninitialized data 
.data                   0x80001210          0x19c         412  Initialized data 
.bss                    0x800013ac          0x29c         668  Uninitialized data 
.data                   0x80001648           0xe0         224  Initialized data 
.data                   0x80001728           0xa0         160  Initialized data 
.bss                    0x800017c8           0x8c         140  Uninitialized data 
.data                   0x80001854           0x3c          60  Initialized data 
.bss                    0x80001890           0x44          68  Uninitialized data 
.data._ZN10__cxxabiv120 0x800018d4            0x4           4   
.data                   0x800018d8           0x18          24  Initialized data 
.bss                    0x800018f0           0x10          16  Uninitialized data 
.data                   0x80001900            0xc          12  Initialized data 
.bss._ZL10eh_globals.eh 0x8000190c            0x8           8   
.bss                    0x80001914           0x10          16  Uninitialized data 
.data._ZN10__cxxabiv119 0x80001924            0x4           4   
.bss.__new_handler.__ne 0x80001928            0x4           4   
.bss                    0x8000192c            0x4           4  Uninitialized data 
.data                   0x80001930            0x4           4  Initialized data 
.bss                    0x80001934            0x4           4  Uninitialized data 
.data                   0x80001938            0x4           4  Initialized data 
.bss.errno              0x8000193c            0x4           4   
.data                   0x80001940            0x1           1  Initialized data 
.bss                    0x80001941            0x1           1  Uninitialized data 
.COHERENTBSS$           0x800003d0          0x400        1024   
         Total kseg0_data_mem used  :      0x1942        6466  1.2% of 0x80000
        --------------------------------------------------------------------------
            Total Data Memory used  :      0x1942        6466  1.2% of 0x80000
        --------------------------------------------------------------------------


Dynamic Data-Memory Reservation
section                    address  length [bytes]      (dec)  Description
-------                 ----------  -------------------------  -----------
heap                    0x80001948          0x200         512  Reserved for heap 
stack                   0x80001b60        0x7e490      517264  Reserved for stack 

        --------------------------------------------------------------------------

Discarded input sections

 .text          0x00000000        0x0 c:/program files (x86)/microchip/xc32/v2.15/bin/bin/../../lib/gcc/pic32mx/4.8.3/fpu64/crti.o
 .data          0x00000000        0x0 c:/program files (x86)/microchip/xc32/v2.15/bin/bin/../../lib/gcc/pic32mx/4.8.3/fpu64/crti.o
 .bss           0x00000000        0x0 c:/program files (x86)/microchip/xc32/v2.15/bin/bin/../../lib/gcc/pic32mx/4.8.3/fpu64/crti.o
 .data          0x00000000        0x4 c:/program files (x86)/microchip/xc32/v2.15/bin/bin/../../lib/gcc/pic32mx/4.8.3/fpu64/crtbegin.o
 .reginfo       0x00000000       0x18 c:/program files (x86)/microchip/xc32/v2.15/bin/bin/../../lib/gcc/pic32mx/4.8.3/fpu64/crtbegin.o
 .text          0x00000000        0x0 build/default/production/_ext/694295097/bsp.o
 .data          0x00000000        0x0 build/default/production/_ext/694295097/bsp.o
 .bss           0x00000000        0x0 build/default/production/_ext/694295097/bsp.o
 .reginfo       0x00000000       0x18 build/default/production/_ext/694295097/bsp.o
 .text          0x00000000        0x0 build/default/production/_ext/490896790/drv_usbhs.o
 .data          0x00000000        0x0 build/default/production/_ext/490896790/drv_usbhs.o
 .bss           0x00000000        0x0 build/default/production/_ext/490896790/drv_usbhs.o
 .reginfo       0x00000000       0x18 build/default/production/_ext/490896790/drv_usbhs.o
 .text.DRV_USBHS_Deinitialize
                0x00000000       0x78 build/default/production/_ext/490896790/drv_usbhs.o
 .text.DRV_USBHS_Status
                0x00000000       0x40 build/default/production/_ext/490896790/drv_usbhs.o
 .text          0x00000000        0x0 build/default/production/_ext/490896790/drv_usbhs_device.o
 .bss           0x00000000        0x0 build/default/production/_ext/490896790/drv_usbhs_device.o
 .reginfo       0x00000000       0x18 build/default/production/_ext/490896790/drv_usbhs_device.o
 .text._DRV_USBHS_DEVICE_EndpointObjectEnable
                0x00000000       0x1c build/default/production/_ext/490896790/drv_usbhs_device.o
 .text.DRV_USBHS_DEVICE_IRPCancel
                0x00000000      0x1a8 build/default/production/_ext/490896790/drv_usbhs_device.o
 .text.DRV_USBHS_DEVICE_TestModeExit
                0x00000000       0xa4 build/default/production/_ext/490896790/drv_usbhs_device.o
 .text          0x00000000        0x0 build/default/production/_ext/2068470151/plib_clk.o
 .data          0x00000000        0x0 build/default/production/_ext/2068470151/plib_clk.o
 .bss           0x00000000        0x0 build/default/production/_ext/2068470151/plib_clk.o
 .reginfo       0x00000000       0x18 build/default/production/_ext/2068470151/plib_clk.o
 .text          0x00000000        0x0 build/default/production/_ext/1465287765/plib_coretimer.o
 .data          0x00000000        0x0 build/default/production/_ext/1465287765/plib_coretimer.o
 .bss           0x00000000        0x0 build/default/production/_ext/1465287765/plib_coretimer.o
 .reginfo       0x00000000       0x18 build/default/production/_ext/1465287765/plib_coretimer.o
 .text.CORETIMER_Stop
                0x00000000       0x28 build/default/production/_ext/1465287765/plib_coretimer.o
 .text.CORETIMER_FrequencyGet
                0x00000000        0xc build/default/production/_ext/1465287765/plib_coretimer.o
 .text.CORETIMER_CompareSet
                0x00000000       0x20 build/default/production/_ext/1465287765/plib_coretimer.o
 .text.CORETIMER_CompareHasExpired
                0x00000000       0x2c build/default/production/_ext/1465287765/plib_coretimer.o
 .text.CORETIMER_DelayMs
                0x00000000       0x4c build/default/production/_ext/1465287765/plib_coretimer.o
 .text.CORETIMER_DelayUs
                0x00000000       0x38 build/default/production/_ext/1465287765/plib_coretimer.o
 .text          0x00000000        0x0 build/default/production/_ext/301865530/plib_evic.o
 .data          0x00000000        0x0 build/default/production/_ext/301865530/plib_evic.o
 .bss           0x00000000        0x0 build/default/production/_ext/301865530/plib_evic.o
 .reginfo       0x00000000       0x18 build/default/production/_ext/301865530/plib_evic.o
 .text.EVIC_SourceStatusGet
                0x00000000       0x20 build/default/production/_ext/301865530/plib_evic.o
 .text.EVIC_SourceStatusSet
                0x00000000       0x28 build/default/production/_ext/301865530/plib_evic.o
 .text          0x00000000        0x0 build/default/production/_ext/301811702/plib_gpio.o
 .data          0x00000000        0x0 build/default/production/_ext/301811702/plib_gpio.o
 .bss           0x00000000        0x0 build/default/production/_ext/301811702/plib_gpio.o
 .reginfo       0x00000000       0x18 build/default/production/_ext/301811702/plib_gpio.o
 .text.GPIO_PortRead
                0x00000000       0x18 build/default/production/_ext/301811702/plib_gpio.o
 .text.GPIO_PortWrite
                0x00000000       0x30 build/default/production/_ext/301811702/plib_gpio.o
 .text.GPIO_PortLatchRead
                0x00000000       0x18 build/default/production/_ext/301811702/plib_gpio.o
 .text.GPIO_PortSet
                0x00000000       0x1c build/default/production/_ext/301811702/plib_gpio.o
 .text.GPIO_PortClear
                0x00000000       0x1c build/default/production/_ext/301811702/plib_gpio.o
 .text.GPIO_PortToggle
                0x00000000       0x1c build/default/production/_ext/301811702/plib_gpio.o
 .text.GPIO_PortInputEnable
                0x00000000       0x1c build/default/production/_ext/301811702/plib_gpio.o
 .text.GPIO_PortOutputEnable
                0x00000000       0x1c build/default/production/_ext/301811702/plib_gpio.o
 .text          0x00000000        0x0 build/default/production/_ext/301585742/plib_ocmp8.o
 .data          0x00000000        0x0 build/default/production/_ext/301585742/plib_ocmp8.o
 .bss           0x00000000        0x0 build/default/production/_ext/301585742/plib_ocmp8.o
 .reginfo       0x00000000       0x18 build/default/production/_ext/301585742/plib_ocmp8.o
 .text.OCMP8_Disable
                0x00000000       0x14 build/default/production/_ext/301585742/plib_ocmp8.o
 .text.OCMP8_CompareValueGet
                0x00000000       0x10 build/default/production/_ext/301585742/plib_ocmp8.o
 .text.OCMP8_CompareSecondaryValueGet
                0x00000000       0x10 build/default/production/_ext/301585742/plib_ocmp8.o
 .text          0x00000000        0x0 build/default/production/_ext/301585742/plib_ocmp5.o
 .data          0x00000000        0x0 build/default/production/_ext/301585742/plib_ocmp5.o
 .bss           0x00000000        0x0 build/default/production/_ext/301585742/plib_ocmp5.o
 .reginfo       0x00000000       0x18 build/default/production/_ext/301585742/plib_ocmp5.o
 .text.OCMP5_Disable
                0x00000000       0x14 build/default/production/_ext/301585742/plib_ocmp5.o
 .text.OCMP5_CompareValueGet
                0x00000000       0x10 build/default/production/_ext/301585742/plib_ocmp5.o
 .text.OCMP5_CompareSecondaryValueGet
                0x00000000       0x10 build/default/production/_ext/301585742/plib_ocmp5.o
 .text          0x00000000        0x0 build/default/production/_ext/301585742/plib_ocmp3.o
 .data          0x00000000        0x0 build/default/production/_ext/301585742/plib_ocmp3.o
 .bss           0x00000000        0x0 build/default/production/_ext/301585742/plib_ocmp3.o
 .reginfo       0x00000000       0x18 build/default/production/_ext/301585742/plib_ocmp3.o
 .text.OCMP3_Disable
                0x00000000       0x14 build/default/production/_ext/301585742/plib_ocmp3.o
 .text.OCMP3_CompareValueGet
                0x00000000       0x10 build/default/production/_ext/301585742/plib_ocmp3.o
 .text.OCMP3_CompareSecondaryValueGet
                0x00000000       0x10 build/default/production/_ext/301585742/plib_ocmp3.o
 .text          0x00000000        0x0 build/default/production/_ext/2068486526/plib_tmr2.o
 .data          0x00000000        0x0 build/default/production/_ext/2068486526/plib_tmr2.o
 .bss           0x00000000        0x0 build/default/production/_ext/2068486526/plib_tmr2.o
 .reginfo       0x00000000       0x18 build/default/production/_ext/2068486526/plib_tmr2.o
 .text.TMR2_Stop
                0x00000000       0x14 build/default/production/_ext/2068486526/plib_tmr2.o
 .text.TMR2_CounterGet
                0x00000000       0x10 build/default/production/_ext/2068486526/plib_tmr2.o
 .text.TMR2_FrequencyGet
                0x00000000        0xc build/default/production/_ext/2068486526/plib_tmr2.o
 .text          0x00000000        0x0 build/default/production/_ext/301408759/plib_uart6.o
 .data          0x00000000        0x0 build/default/production/_ext/301408759/plib_uart6.o
 .bss           0x00000000        0x0 build/default/production/_ext/301408759/plib_uart6.o
 .reginfo       0x00000000       0x18 build/default/production/_ext/301408759/plib_uart6.o
 .text.UART6_SerialSetup
                0x00000000      0x128 build/default/production/_ext/301408759/plib_uart6.o
 .text.UART6_ReadIsBusy
                0x00000000        0xc build/default/production/_ext/301408759/plib_uart6.o
 .text.UART6_ReadCountGet
                0x00000000        0xc build/default/production/_ext/301408759/plib_uart6.o
 .text.UART6_ReadAbort
                0x00000000       0x3c build/default/production/_ext/301408759/plib_uart6.o
 .text.UART6_WriteCountGet
                0x00000000        0xc build/default/production/_ext/301408759/plib_uart6.o
 .text          0x00000000        0x0 build/default/production/_ext/1481935855/xc32_monitor.o
 .data          0x00000000        0x0 build/default/production/_ext/1481935855/xc32_monitor.o
 .bss           0x00000000        0x0 build/default/production/_ext/1481935855/xc32_monitor.o
 .reginfo       0x00000000       0x18 build/default/production/_ext/1481935855/xc32_monitor.o
 .text._mon_getc
                0x00000000        0x8 build/default/production/_ext/1481935855/xc32_monitor.o
 .text          0x00000000        0x0 build/default/production/_ext/404994212/sys_int.o
 .data          0x00000000        0x0 build/default/production/_ext/404994212/sys_int.o
 .bss           0x00000000        0x0 build/default/production/_ext/404994212/sys_int.o
 .reginfo       0x00000000       0x18 build/default/production/_ext/404994212/sys_int.o
 .text.SYS_INT_Enable
                0x00000000       0x18 build/default/production/_ext/404994212/sys_int.o
 .text.SYS_INT_SourceRestore
                0x00000000       0x28 build/default/production/_ext/404994212/sys_int.o
 .text          0x00000000        0x0 build/default/production/_ext/763370911/usb_device.o
 .data          0x00000000        0x0 build/default/production/_ext/763370911/usb_device.o
 .reginfo       0x00000000       0x18 build/default/production/_ext/763370911/usb_device.o
 .text.USB_DEVICE_Status
                0x00000000       0x44 build/default/production/_ext/763370911/usb_device.o
 .text.USB_DEVICE_Deinitialize
                0x00000000       0x40 build/default/production/_ext/763370911/usb_device.o
 .text.USB_DEVICE_EndpointIsEnabled
                0x00000000       0x48 build/default/production/_ext/763370911/usb_device.o
 .text.USB_DEVICE_EndpointStall
                0x00000000       0x40 build/default/production/_ext/763370911/usb_device.o
 .text.USB_DEVICE_EndpointStallClear
                0x00000000       0x40 build/default/production/_ext/763370911/usb_device.o
 .text.USB_DEVICE_EndpointIsStalled
                0x00000000       0x48 build/default/production/_ext/763370911/usb_device.o
 .text.USB_DEVICE_IsSuspended
                0x00000000       0x2c build/default/production/_ext/763370911/usb_device.o
 .text.USB_DEVICE_StateGet
                0x00000000       0x2c build/default/production/_ext/763370911/usb_device.o
 .text.USB_DEVICE_Close
                0x00000000       0x2c build/default/production/_ext/763370911/usb_device.o
 .text.USB_DEVICE_ClientStatusGet
                0x00000000       0x28 build/default/production/_ext/763370911/usb_device.o
 .text.USB_DEVICE_ActiveConfigurationGet
                0x00000000       0x28 build/default/production/_ext/763370911/usb_device.o
 .text.USB_DEVICE_ActiveSpeedGet
                0x00000000       0x2c build/default/production/_ext/763370911/usb_device.o
 .text.USB_DEVICE_PowerStateSet
                0x00000000       0x38 build/default/production/_ext/763370911/usb_device.o
 .text.USB_DEVICE_RemoteWakeupStatusGet
                0x00000000       0x28 build/default/production/_ext/763370911/usb_device.o
 .text.USB_DEVICE_RemoteWakeupStop
                0x00000000       0x34 build/default/production/_ext/763370911/usb_device.o
 .text.USB_DEVICE_RemoteWakeupStart
                0x00000000       0x34 build/default/production/_ext/763370911/usb_device.o
 .text.USB_DEVICE_IRPCancel
                0x00000000       0x48 build/default/production/_ext/763370911/usb_device.o
 .text._USB_DEVICE_EndpointMutexCreateFunction
                0x00000000       0x1c build/default/production/_ext/763370911/usb_device.o
 .text._USB_DEVICE_EndpointMutexDeleteFunction
                0x00000000        0x8 build/default/production/_ext/763370911/usb_device.o
 .text._USB_DEVICE_GetStringDescriptorRequestProcessAdvanced
                0x00000000       0xa8 build/default/production/_ext/763370911/usb_device.o
 .text          0x00000000        0x0 build/default/production/_ext/763370911/usb_device_cdc.o
 .data          0x00000000        0x0 build/default/production/_ext/763370911/usb_device_cdc.o
 .bss           0x00000000        0x0 build/default/production/_ext/763370911/usb_device_cdc.o
 .reginfo       0x00000000       0x18 build/default/production/_ext/763370911/usb_device_cdc.o
 .text._USB_DEVICE_CDC_SerialStateSendIRPCallback
                0x00000000       0xa0 build/default/production/_ext/763370911/usb_device_cdc.o
 .text.USB_DEVICE_CDC_ReadPacketSizeGet
                0x00000000       0x18 build/default/production/_ext/763370911/usb_device_cdc.o
 .text.USB_DEVICE_CDC_WritePacketSizeGet
                0x00000000       0x18 build/default/production/_ext/763370911/usb_device_cdc.o
 .text.USB_DEVICE_CDC_SerialStateNotificationSend
                0x00000000      0x188 build/default/production/_ext/763370911/usb_device_cdc.o
 .text          0x00000000        0x0 build/default/production/_ext/763370911/usb_device_cdc_acm.o
 .data          0x00000000        0x0 build/default/production/_ext/763370911/usb_device_cdc_acm.o
 .bss           0x00000000        0x0 build/default/production/_ext/763370911/usb_device_cdc_acm.o
 .reginfo       0x00000000       0x18 build/default/production/_ext/763370911/usb_device_cdc_acm.o
 .text          0x00000000        0x0 build/default/production/_ext/1160401513/initialization.o
 .data          0x00000000        0x0 build/default/production/_ext/1160401513/initialization.o
 .bss           0x00000000        0x0 build/default/production/_ext/1160401513/initialization.o
 .reginfo       0x00000000       0x18 build/default/production/_ext/1160401513/initialization.o
 .text          0x00000000        0x0 build/default/production/_ext/1160401513/interrupts.o
 .data          0x00000000        0x0 build/default/production/_ext/1160401513/interrupts.o
 .bss           0x00000000        0x0 build/default/production/_ext/1160401513/interrupts.o
 .reginfo       0x00000000       0x18 build/default/production/_ext/1160401513/interrupts.o
 .text          0x00000000        0x0 build/default/production/_ext/1160401513/exceptions.o
 .data          0x00000000        0x0 build/default/production/_ext/1160401513/exceptions.o
 .bss           0x00000000        0x0 build/default/production/_ext/1160401513/exceptions.o
 .reginfo       0x00000000       0x18 build/default/production/_ext/1160401513/exceptions.o
 .text          0x00000000        0x0 build/default/production/_ext/1160401513/usb_device_init_data.o
 .data          0x00000000        0x0 build/default/production/_ext/1160401513/usb_device_init_data.o
 .bss           0x00000000        0x0 build/default/production/_ext/1160401513/usb_device_init_data.o
 .reginfo       0x00000000       0x18 build/default/production/_ext/1160401513/usb_device_init_data.o
 .text          0x00000000        0x0 build/default/production/_ext/1160401513/tasks.o
 .data          0x00000000        0x0 build/default/production/_ext/1160401513/tasks.o
 .bss           0x00000000        0x0 build/default/production/_ext/1160401513/tasks.o
 .reginfo       0x00000000       0x18 build/default/production/_ext/1160401513/tasks.o
 .text          0x00000000        0x0 build/default/production/_ext/1003616436/app.o
 .data          0x00000000        0x0 build/default/production/_ext/1003616436/app.o
 .bss           0x00000000        0x0 build/default/production/_ext/1003616436/app.o
 .reginfo       0x00000000       0x18 build/default/production/_ext/1003616436/app.o
 .text.APP_USBDeviceCDCEventHandler
                0x00000000      0x124 build/default/production/_ext/1003616436/app.o
 .text.APP_USBDeviceEventHandler
                0x00000000       0xa4 build/default/production/_ext/1003616436/app.o
 .text.USB_GetContext
                0x00000000        0xc build/default/production/_ext/1003616436/app.o
 .text.SUSB_OpenDevice
                0x00000000       0x64 build/default/production/_ext/1003616436/app.o
 .text.SUSB_Startup
                0x00000000       0x38 build/default/production/_ext/1003616436/app.o
 .text.SUSB_ScheduleRead
                0x00000000       0x30 build/default/production/_ext/1003616436/app.o
 .text.SUSB_ScheduleWrite
                0x00000000       0x38 build/default/production/_ext/1003616436/app.o
 .text          0x00000000        0x0 build/default/production/_ext/1003616436/main.o
 .data          0x00000000        0x0 build/default/production/_ext/1003616436/main.o
 .reginfo       0x00000000       0x18 build/default/production/_ext/1003616436/main.o
 .gnu.linkonce.t._ZNSt14error_categoryD1Ev
                0x00000000       0x10 build/default/production/_ext/1003616436/main.o
 .gnu.linkonce.t._ZNKSt14error_category23default_error_conditionEi
                0x00000000       0x10 build/default/production/_ext/1003616436/main.o
 .gnu.linkonce.t._ZNKSt14error_category10equivalentEiRKSt15error_condition
                0x00000000       0x60 build/default/production/_ext/1003616436/main.o
 .gnu.linkonce.t._ZNKSt14error_category10equivalentERKSt10error_codei
                0x00000000       0x20 build/default/production/_ext/1003616436/main.o
 .gnu.linkonce.t._ZNSt14error_categoryD0Ev
                0x00000000       0x24 build/default/production/_ext/1003616436/main.o
 .text._Z15LED_RGB_disablev
                0x00000000       0x34 build/default/production/_ext/1003616436/main.o
 .gnu.linkonce.r._ZTSSt14error_category
                0x00000000       0x14 build/default/production/_ext/1003616436/main.o
 .gnu.linkonce.r._ZTISt14error_category
                0x00000000        0x8 build/default/production/_ext/1003616436/main.o
 .gnu.linkonce.r._ZTVSt14error_category
                0x00000000       0x24 build/default/production/_ext/1003616436/main.o
 .text          0x00000000        0x0 build/default/production/_ext/1003616436/usb_com_port.o
 .data          0x00000000        0x0 build/default/production/_ext/1003616436/usb_com_port.o
 .bss           0x00000000        0x0 build/default/production/_ext/1003616436/usb_com_port.o
 .reginfo       0x00000000       0x18 build/default/production/_ext/1003616436/usb_com_port.o
 .text          0x00000000        0x0 c:/program files (x86)/microchip/xc32/v2.15/bin/bin/../../lib/gcc/pic32mx/4.8.3/../../../../pic32mx/lib/./proc/32MZ2048EFM144\vector_offset_init.o
 .data          0x00000000        0x0 c:/program files (x86)/microchip/xc32/v2.15/bin/bin/../../lib/gcc/pic32mx/4.8.3/../../../../pic32mx/lib/./proc/32MZ2048EFM144\vector_offset_init.o
 .bss           0x00000000        0x0 c:/program files (x86)/microchip/xc32/v2.15/bin/bin/../../lib/gcc/pic32mx/4.8.3/../../../../pic32mx/lib/./proc/32MZ2048EFM144\vector_offset_init.o
 .reginfo       0x00000000       0x18 c:/program files (x86)/microchip/xc32/v2.15/bin/bin/../../lib/gcc/pic32mx/4.8.3/../../../../pic32mx/lib/./proc/32MZ2048EFM144\vector_offset_init.o
 .text          0x00000000        0x0 c:/program files (x86)/microchip/xc32/v2.15/bin/bin/../../lib/gcc/pic32mx/4.8.3/../../../../pic32mx/lib/fpu64\libsupc++.a(class_type_info.o)
 .data          0x00000000        0x0 c:/program files (x86)/microchip/xc32/v2.15/bin/bin/../../lib/gcc/pic32mx/4.8.3/../../../../pic32mx/lib/fpu64\libsupc++.a(class_type_info.o)
 .bss           0x00000000        0x0 c:/program files (x86)/microchip/xc32/v2.15/bin/bin/../../lib/gcc/pic32mx/4.8.3/../../../../pic32mx/lib/fpu64\libsupc++.a(class_type_info.o)
 .reginfo       0x00000000       0x18 c:/program files (x86)/microchip/xc32/v2.15/bin/bin/../../lib/gcc/pic32mx/4.8.3/../../../../pic32mx/lib/fpu64\libsupc++.a(class_type_info.o)
 .text          0x00000000        0x0 c:/program files (x86)/microchip/xc32/v2.15/bin/bin/../../lib/gcc/pic32mx/4.8.3/../../../../pic32mx/lib/fpu64\libsupc++.a(del_op.o)
 .data          0x00000000        0x0 c:/program files (x86)/microchip/xc32/v2.15/bin/bin/../../lib/gcc/pic32mx/4.8.3/../../../../pic32mx/lib/fpu64\libsupc++.a(del_op.o)
 .bss           0x00000000        0x0 c:/program files (x86)/microchip/xc32/v2.15/bin/bin/../../lib/gcc/pic32mx/4.8.3/../../../../pic32mx/lib/fpu64\libsupc++.a(del_op.o)
 .reginfo       0x00000000       0x18 c:/program files (x86)/microchip/xc32/v2.15/bin/bin/../../lib/gcc/pic32mx/4.8.3/../../../../pic32mx/lib/fpu64\libsupc++.a(del_op.o)
 .text          0x00000000        0x0 c:/program files (x86)/microchip/xc32/v2.15/bin/bin/../../lib/gcc/pic32mx/4.8.3/../../../../pic32mx/lib/fpu64\libsupc++.a(eh_alloc.o)
 .data          0x00000000        0x0 c:/program files (x86)/microchip/xc32/v2.15/bin/bin/../../lib/gcc/pic32mx/4.8.3/../../../../pic32mx/lib/fpu64\libsupc++.a(eh_alloc.o)
 .bss           0x00000000        0x0 c:/program files (x86)/microchip/xc32/v2.15/bin/bin/../../lib/gcc/pic32mx/4.8.3/../../../../pic32mx/lib/fpu64\libsupc++.a(eh_alloc.o)
 .reginfo       0x00000000       0x18 c:/program files (x86)/microchip/xc32/v2.15/bin/bin/../../lib/gcc/pic32mx/4.8.3/../../../../pic32mx/lib/fpu64\libsupc++.a(eh_alloc.o)
 .text.__cxa_allocate_dependent_exception
                0x00000000       0x90 c:/program files (x86)/microchip/xc32/v2.15/bin/bin/../../lib/gcc/pic32mx/4.8.3/../../../../pic32mx/lib/fpu64\libsupc++.a(eh_alloc.o)
 .text.__cxa_free_dependent_exception
                0x00000000       0x6c c:/program files (x86)/microchip/xc32/v2.15/bin/bin/../../lib/gcc/pic32mx/4.8.3/../../../../pic32mx/lib/fpu64\libsupc++.a(eh_alloc.o)
 .bss._ZL15dependents_used.dependents_used
                0x00000000        0x4 c:/program files (x86)/microchip/xc32/v2.15/bin/bin/../../lib/gcc/pic32mx/4.8.3/../../../../pic32mx/lib/fpu64\libsupc++.a(eh_alloc.o)
 .bss._ZL17dependents_buffer.dependents_buffer
                0x00000000      0x100 c:/program files (x86)/microchip/xc32/v2.15/bin/bin/../../lib/gcc/pic32mx/4.8.3/../../../../pic32mx/lib/fpu64\libsupc++.a(eh_alloc.o)
 .text          0x00000000        0x0 c:/program files (x86)/microchip/xc32/v2.15/bin/bin/../../lib/gcc/pic32mx/4.8.3/../../../../pic32mx/lib/fpu64\libsupc++.a(eh_catch.o)
 .data          0x00000000        0x0 c:/program files (x86)/microchip/xc32/v2.15/bin/bin/../../lib/gcc/pic32mx/4.8.3/../../../../pic32mx/lib/fpu64\libsupc++.a(eh_catch.o)
 .bss           0x00000000        0x0 c:/program files (x86)/microchip/xc32/v2.15/bin/bin/../../lib/gcc/pic32mx/4.8.3/../../../../pic32mx/lib/fpu64\libsupc++.a(eh_catch.o)
 .reginfo       0x00000000       0x18 c:/program files (x86)/microchip/xc32/v2.15/bin/bin/../../lib/gcc/pic32mx/4.8.3/../../../../pic32mx/lib/fpu64\libsupc++.a(eh_catch.o)
 .text.__cxa_get_exception_ptr
                0x00000000        0x8 c:/program files (x86)/microchip/xc32/v2.15/bin/bin/../../lib/gcc/pic32mx/4.8.3/../../../../pic32mx/lib/fpu64\libsupc++.a(eh_catch.o)
 .text._ZSt18uncaught_exceptionv
                0x00000000       0x24 c:/program files (x86)/microchip/xc32/v2.15/bin/bin/../../lib/gcc/pic32mx/4.8.3/../../../../pic32mx/lib/fpu64\libsupc++.a(eh_catch.o)
 .text          0x00000000        0x0 c:/program files (x86)/microchip/xc32/v2.15/bin/bin/../../lib/gcc/pic32mx/4.8.3/../../../../pic32mx/lib/fpu64\libsupc++.a(eh_exception.o)
 .data          0x00000000        0x0 c:/program files (x86)/microchip/xc32/v2.15/bin/bin/../../lib/gcc/pic32mx/4.8.3/../../../../pic32mx/lib/fpu64\libsupc++.a(eh_exception.o)
 .bss           0x00000000        0x0 c:/program files (x86)/microchip/xc32/v2.15/bin/bin/../../lib/gcc/pic32mx/4.8.3/../../../../pic32mx/lib/fpu64\libsupc++.a(eh_exception.o)
 .reginfo       0x00000000       0x18 c:/program files (x86)/microchip/xc32/v2.15/bin/bin/../../lib/gcc/pic32mx/4.8.3/../../../../pic32mx/lib/fpu64\libsupc++.a(eh_exception.o)
 .text._ZNSt13bad_exceptionD2Ev
                0x00000000       0x10 c:/program files (x86)/microchip/xc32/v2.15/bin/bin/../../lib/gcc/pic32mx/4.8.3/../../../../pic32mx/lib/fpu64\libsupc++.a(eh_exception.o)
 .text._ZN10__cxxabiv115__forced_unwindD2Ev
                0x00000000       0x10 c:/program files (x86)/microchip/xc32/v2.15/bin/bin/../../lib/gcc/pic32mx/4.8.3/../../../../pic32mx/lib/fpu64\libsupc++.a(eh_exception.o)
 .text._ZN10__cxxabiv119__foreign_exceptionD2Ev
                0x00000000       0x10 c:/program files (x86)/microchip/xc32/v2.15/bin/bin/../../lib/gcc/pic32mx/4.8.3/../../../../pic32mx/lib/fpu64\libsupc++.a(eh_exception.o)
 .text._ZNKSt13bad_exception4whatEv
                0x00000000        0xc c:/program files (x86)/microchip/xc32/v2.15/bin/bin/../../lib/gcc/pic32mx/4.8.3/../../../../pic32mx/lib/fpu64\libsupc++.a(eh_exception.o)
 .text._ZNSt13bad_exceptionD0Ev
                0x00000000       0x24 c:/program files (x86)/microchip/xc32/v2.15/bin/bin/../../lib/gcc/pic32mx/4.8.3/../../../../pic32mx/lib/fpu64\libsupc++.a(eh_exception.o)
 .text._ZN10__cxxabiv115__forced_unwindD0Ev
                0x00000000       0x24 c:/program files (x86)/microchip/xc32/v2.15/bin/bin/../../lib/gcc/pic32mx/4.8.3/../../../../pic32mx/lib/fpu64\libsupc++.a(eh_exception.o)
 .text._ZN10__cxxabiv119__foreign_exceptionD0Ev
                0x00000000       0x24 c:/program files (x86)/microchip/xc32/v2.15/bin/bin/../../lib/gcc/pic32mx/4.8.3/../../../../pic32mx/lib/fpu64\libsupc++.a(eh_exception.o)
 .gnu.linkonce.r._ZTSSt13bad_exception._ZTSSt13bad_exception
                0x00000000       0x14 c:/program files (x86)/microchip/xc32/v2.15/bin/bin/../../lib/gcc/pic32mx/4.8.3/../../../../pic32mx/lib/fpu64\libsupc++.a(eh_exception.o)
 .gnu.linkonce.r._ZTISt13bad_exception._ZTISt13bad_exception
                0x00000000        0xc c:/program files (x86)/microchip/xc32/v2.15/bin/bin/../../lib/gcc/pic32mx/4.8.3/../../../../pic32mx/lib/fpu64\libsupc++.a(eh_exception.o)
 .gnu.linkonce.r._ZTVSt13bad_exception._ZTVSt13bad_exception
                0x00000000       0x14 c:/program files (x86)/microchip/xc32/v2.15/bin/bin/../../lib/gcc/pic32mx/4.8.3/../../../../pic32mx/lib/fpu64\libsupc++.a(eh_exception.o)
 .gnu.linkonce.r._ZTVN10__cxxabiv115__forced_unwindE._ZTVN10__cxxabiv115__forced_unwindE
                0x00000000       0x14 c:/program files (x86)/microchip/xc32/v2.15/bin/bin/../../lib/gcc/pic32mx/4.8.3/../../../../pic32mx/lib/fpu64\libsupc++.a(eh_exception.o)
 .gnu.linkonce.r._ZTVN10__cxxabiv119__foreign_exceptionE._ZTVN10__cxxabiv119__foreign_exceptionE
                0x00000000       0x14 c:/program files (x86)/microchip/xc32/v2.15/bin/bin/../../lib/gcc/pic32mx/4.8.3/../../../../pic32mx/lib/fpu64\libsupc++.a(eh_exception.o)
 .text          0x00000000        0x0 c:/program files (x86)/microchip/xc32/v2.15/bin/bin/../../lib/gcc/pic32mx/4.8.3/../../../../pic32mx/lib/fpu64\libsupc++.a(eh_globals.o)
 .data          0x00000000        0x0 c:/program files (x86)/microchip/xc32/v2.15/bin/bin/../../lib/gcc/pic32mx/4.8.3/../../../../pic32mx/lib/fpu64\libsupc++.a(eh_globals.o)
 .bss           0x00000000        0x0 c:/program files (x86)/microchip/xc32/v2.15/bin/bin/../../lib/gcc/pic32mx/4.8.3/../../../../pic32mx/lib/fpu64\libsupc++.a(eh_globals.o)
 .reginfo       0x00000000       0x18 c:/program files (x86)/microchip/xc32/v2.15/bin/bin/../../lib/gcc/pic32mx/4.8.3/../../../../pic32mx/lib/fpu64\libsupc++.a(eh_globals.o)
 .text          0x00000000        0x0 c:/program files (x86)/microchip/xc32/v2.15/bin/bin/../../lib/gcc/pic32mx/4.8.3/../../../../pic32mx/lib/fpu64\libsupc++.a(eh_personality.o)
 .data          0x00000000        0x0 c:/program files (x86)/microchip/xc32/v2.15/bin/bin/../../lib/gcc/pic32mx/4.8.3/../../../../pic32mx/lib/fpu64\libsupc++.a(eh_personality.o)
 .bss           0x00000000        0x0 c:/program files (x86)/microchip/xc32/v2.15/bin/bin/../../lib/gcc/pic32mx/4.8.3/../../../../pic32mx/lib/fpu64\libsupc++.a(eh_personality.o)
 .reginfo       0x00000000       0x18 c:/program files (x86)/microchip/xc32/v2.15/bin/bin/../../lib/gcc/pic32mx/4.8.3/../../../../pic32mx/lib/fpu64\libsupc++.a(eh_personality.o)
 .text._ZL28check_compact_exception_specPKSt9type_infoPvPKhij
                0x00000000      0x18c c:/program files (x86)/microchip/xc32/v2.15/bin/bin/../../lib/gcc/pic32mx/4.8.3/../../../../pic32mx/lib/fpu64\libsupc++.a(eh_personality.o)
 .text.__cxa_call_unexpected
                0x00000000      0x240 c:/program files (x86)/microchip/xc32/v2.15/bin/bin/../../lib/gcc/pic32mx/4.8.3/../../../../pic32mx/lib/fpu64\libsupc++.a(eh_personality.o)
 .text          0x00000000        0x0 c:/program files (x86)/microchip/xc32/v2.15/bin/bin/../../lib/gcc/pic32mx/4.8.3/../../../../pic32mx/lib/fpu64\libsupc++.a(eh_terminate.o)
 .data          0x00000000        0x0 c:/program files (x86)/microchip/xc32/v2.15/bin/bin/../../lib/gcc/pic32mx/4.8.3/../../../../pic32mx/lib/fpu64\libsupc++.a(eh_terminate.o)
 .bss           0x00000000        0x0 c:/program files (x86)/microchip/xc32/v2.15/bin/bin/../../lib/gcc/pic32mx/4.8.3/../../../../pic32mx/lib/fpu64\libsupc++.a(eh_terminate.o)
 .reginfo       0x00000000       0x18 c:/program files (x86)/microchip/xc32/v2.15/bin/bin/../../lib/gcc/pic32mx/4.8.3/../../../../pic32mx/lib/fpu64\libsupc++.a(eh_terminate.o)
 .text._ZSt13set_terminatePFvvE
                0x00000000       0x10 c:/program files (x86)/microchip/xc32/v2.15/bin/bin/../../lib/gcc/pic32mx/4.8.3/../../../../pic32mx/lib/fpu64\libsupc++.a(eh_terminate.o)
 .text._ZSt14set_unexpectedPFvvE
                0x00000000       0x10 c:/program files (x86)/microchip/xc32/v2.15/bin/bin/../../lib/gcc/pic32mx/4.8.3/../../../../pic32mx/lib/fpu64\libsupc++.a(eh_terminate.o)
 .text          0x00000000        0x0 c:/program files (x86)/microchip/xc32/v2.15/bin/bin/../../lib/gcc/pic32mx/4.8.3/../../../../pic32mx/lib/fpu64\libsupc++.a(eh_throw.o)
 .data          0x00000000        0x0 c:/program files (x86)/microchip/xc32/v2.15/bin/bin/../../lib/gcc/pic32mx/4.8.3/../../../../pic32mx/lib/fpu64\libsupc++.a(eh_throw.o)
 .bss           0x00000000        0x0 c:/program files (x86)/microchip/xc32/v2.15/bin/bin/../../lib/gcc/pic32mx/4.8.3/../../../../pic32mx/lib/fpu64\libsupc++.a(eh_throw.o)
 .reginfo       0x00000000       0x18 c:/program files (x86)/microchip/xc32/v2.15/bin/bin/../../lib/gcc/pic32mx/4.8.3/../../../../pic32mx/lib/fpu64\libsupc++.a(eh_throw.o)
 .text          0x00000000        0x0 c:/program files (x86)/microchip/xc32/v2.15/bin/bin/../../lib/gcc/pic32mx/4.8.3/../../../../pic32mx/lib/fpu64\libsupc++.a(eh_unex_handler.o)
 .data          0x00000000        0x0 c:/program files (x86)/microchip/xc32/v2.15/bin/bin/../../lib/gcc/pic32mx/4.8.3/../../../../pic32mx/lib/fpu64\libsupc++.a(eh_unex_handler.o)
 .bss           0x00000000        0x0 c:/program files (x86)/microchip/xc32/v2.15/bin/bin/../../lib/gcc/pic32mx/4.8.3/../../../../pic32mx/lib/fpu64\libsupc++.a(eh_unex_handler.o)
 .reginfo       0x00000000       0x18 c:/program files (x86)/microchip/xc32/v2.15/bin/bin/../../lib/gcc/pic32mx/4.8.3/../../../../pic32mx/lib/fpu64\libsupc++.a(eh_unex_handler.o)
 .text          0x00000000        0x0 c:/program files (x86)/microchip/xc32/v2.15/bin/bin/../../lib/gcc/pic32mx/4.8.3/../../../../pic32mx/lib/fpu64\libsupc++.a(new_op.o)
 .data          0x00000000        0x0 c:/program files (x86)/microchip/xc32/v2.15/bin/bin/../../lib/gcc/pic32mx/4.8.3/../../../../pic32mx/lib/fpu64\libsupc++.a(new_op.o)
 .bss           0x00000000        0x0 c:/program files (x86)/microchip/xc32/v2.15/bin/bin/../../lib/gcc/pic32mx/4.8.3/../../../../pic32mx/lib/fpu64\libsupc++.a(new_op.o)
 .reginfo       0x00000000       0x18 c:/program files (x86)/microchip/xc32/v2.15/bin/bin/../../lib/gcc/pic32mx/4.8.3/../../../../pic32mx/lib/fpu64\libsupc++.a(new_op.o)
 .text          0x00000000        0x0 c:/program files (x86)/microchip/xc32/v2.15/bin/bin/../../lib/gcc/pic32mx/4.8.3/../../../../pic32mx/lib/fpu64\libsupc++.a(si_class_type_info.o)
 .data          0x00000000        0x0 c:/program files (x86)/microchip/xc32/v2.15/bin/bin/../../lib/gcc/pic32mx/4.8.3/../../../../pic32mx/lib/fpu64\libsupc++.a(si_class_type_info.o)
 .bss           0x00000000        0x0 c:/program files (x86)/microchip/xc32/v2.15/bin/bin/../../lib/gcc/pic32mx/4.8.3/../../../../pic32mx/lib/fpu64\libsupc++.a(si_class_type_info.o)
 .reginfo       0x00000000       0x18 c:/program files (x86)/microchip/xc32/v2.15/bin/bin/../../lib/gcc/pic32mx/4.8.3/../../../../pic32mx/lib/fpu64\libsupc++.a(si_class_type_info.o)
 .text          0x00000000        0x0 c:/program files (x86)/microchip/xc32/v2.15/bin/bin/../../lib/gcc/pic32mx/4.8.3/../../../../pic32mx/lib/fpu64\libsupc++.a(tinfo.o)
 .data          0x00000000        0x0 c:/program files (x86)/microchip/xc32/v2.15/bin/bin/../../lib/gcc/pic32mx/4.8.3/../../../../pic32mx/lib/fpu64\libsupc++.a(tinfo.o)
 .bss           0x00000000        0x0 c:/program files (x86)/microchip/xc32/v2.15/bin/bin/../../lib/gcc/pic32mx/4.8.3/../../../../pic32mx/lib/fpu64\libsupc++.a(tinfo.o)
 .reginfo       0x00000000       0x18 c:/program files (x86)/microchip/xc32/v2.15/bin/bin/../../lib/gcc/pic32mx/4.8.3/../../../../pic32mx/lib/fpu64\libsupc++.a(tinfo.o)
 .text          0x00000000        0x0 c:/program files (x86)/microchip/xc32/v2.15/bin/bin/../../lib/gcc/pic32mx/4.8.3/../../../../pic32mx/lib/fpu64\libsupc++.a(pure.o)
 .data          0x00000000        0x0 c:/program files (x86)/microchip/xc32/v2.15/bin/bin/../../lib/gcc/pic32mx/4.8.3/../../../../pic32mx/lib/fpu64\libsupc++.a(pure.o)
 .bss           0x00000000        0x0 c:/program files (x86)/microchip/xc32/v2.15/bin/bin/../../lib/gcc/pic32mx/4.8.3/../../../../pic32mx/lib/fpu64\libsupc++.a(pure.o)
 .reginfo       0x00000000       0x18 c:/program files (x86)/microchip/xc32/v2.15/bin/bin/../../lib/gcc/pic32mx/4.8.3/../../../../pic32mx/lib/fpu64\libsupc++.a(pure.o)
 .text.__cxa_pure_virtual
                0x00000000       0x10 c:/program files (x86)/microchip/xc32/v2.15/bin/bin/../../lib/gcc/pic32mx/4.8.3/../../../../pic32mx/lib/fpu64\libsupc++.a(pure.o)
 .text.__cxa_deleted_virtual
                0x00000000       0x10 c:/program files (x86)/microchip/xc32/v2.15/bin/bin/../../lib/gcc/pic32mx/4.8.3/../../../../pic32mx/lib/fpu64\libsupc++.a(pure.o)
 .text          0x00000000        0x0 c:/program files (x86)/microchip/xc32/v2.15/bin/bin/../../lib/gcc/pic32mx/4.8.3/../../../../pic32mx/lib/fpu64\libsupc++.a(eh_call.o)
 .data          0x00000000        0x0 c:/program files (x86)/microchip/xc32/v2.15/bin/bin/../../lib/gcc/pic32mx/4.8.3/../../../../pic32mx/lib/fpu64\libsupc++.a(eh_call.o)
 .bss           0x00000000        0x0 c:/program files (x86)/microchip/xc32/v2.15/bin/bin/../../lib/gcc/pic32mx/4.8.3/../../../../pic32mx/lib/fpu64\libsupc++.a(eh_call.o)
 .reginfo       0x00000000       0x18 c:/program files (x86)/microchip/xc32/v2.15/bin/bin/../../lib/gcc/pic32mx/4.8.3/../../../../pic32mx/lib/fpu64\libsupc++.a(eh_call.o)
 .text          0x00000000        0x0 c:/program files (x86)/microchip/xc32/v2.15/bin/bin/../../lib/gcc/pic32mx/4.8.3/../../../../pic32mx/lib/fpu64\libsupc++.a(eh_term_handler.o)
 .data          0x00000000        0x0 c:/program files (x86)/microchip/xc32/v2.15/bin/bin/../../lib/gcc/pic32mx/4.8.3/../../../../pic32mx/lib/fpu64\libsupc++.a(eh_term_handler.o)
 .bss           0x00000000        0x0 c:/program files (x86)/microchip/xc32/v2.15/bin/bin/../../lib/gcc/pic32mx/4.8.3/../../../../pic32mx/lib/fpu64\libsupc++.a(eh_term_handler.o)
 .reginfo       0x00000000       0x18 c:/program files (x86)/microchip/xc32/v2.15/bin/bin/../../lib/gcc/pic32mx/4.8.3/../../../../pic32mx/lib/fpu64\libsupc++.a(eh_term_handler.o)
 .text          0x00000000        0x0 c:/program files (x86)/microchip/xc32/v2.15/bin/bin/../../lib/gcc/pic32mx/4.8.3/../../../../pic32mx/lib/fpu64\libsupc++.a(new_handler.o)
 .data          0x00000000        0x0 c:/program files (x86)/microchip/xc32/v2.15/bin/bin/../../lib/gcc/pic32mx/4.8.3/../../../../pic32mx/lib/fpu64\libsupc++.a(new_handler.o)
 .bss           0x00000000        0x0 c:/program files (x86)/microchip/xc32/v2.15/bin/bin/../../lib/gcc/pic32mx/4.8.3/../../../../pic32mx/lib/fpu64\libsupc++.a(new_handler.o)
 .reginfo       0x00000000       0x18 c:/program files (x86)/microchip/xc32/v2.15/bin/bin/../../lib/gcc/pic32mx/4.8.3/../../../../pic32mx/lib/fpu64\libsupc++.a(new_handler.o)
 .text._ZSt15set_new_handlerPFvvE
                0x00000000       0x10 c:/program files (x86)/microchip/xc32/v2.15/bin/bin/../../lib/gcc/pic32mx/4.8.3/../../../../pic32mx/lib/fpu64\libsupc++.a(new_handler.o)
 .rodata._ZSt7nothrow.nothrow
                0x00000000        0x4 c:/program files (x86)/microchip/xc32/v2.15/bin/bin/../../lib/gcc/pic32mx/4.8.3/../../../../pic32mx/lib/fpu64\libsupc++.a(new_handler.o)
 .text          0x00000000        0x0 C:\Users\Andrew\AppData\Local\Temp\ccsLlpbg.o
 .data          0x00000000        0x0 C:\Users\Andrew\AppData\Local\Temp\ccsLlpbg.o
 .bss           0x00000000        0x0 C:\Users\Andrew\AppData\Local\Temp\ccsLlpbg.o
 .reginfo       0x00000000       0x18 C:\Users\Andrew\AppData\Local\Temp\ccsLlpbg.o
 .text          0x00000000        0x0 C:\Users\Andrew\AppData\Local\Temp\ccWjX2Wt.o
 .data          0x00000000        0x0 C:\Users\Andrew\AppData\Local\Temp\ccWjX2Wt.o
 .bss           0x00000000        0x0 C:\Users\Andrew\AppData\Local\Temp\ccWjX2Wt.o
 .reginfo       0x00000000       0x18 C:\Users\Andrew\AppData\Local\Temp\ccWjX2Wt.o
 .text          0x00000000        0x0 C:\Users\Andrew\AppData\Local\Temp\ccodWkAM.o
 .data          0x00000000        0x0 C:\Users\Andrew\AppData\Local\Temp\ccodWkAM.o
 .bss           0x00000000        0x0 C:\Users\Andrew\AppData\Local\Temp\ccodWkAM.o
 .reginfo       0x00000000       0x18 C:\Users\Andrew\AppData\Local\Temp\ccodWkAM.o
 .discard       0x00000000        0x4 C:\Users\Andrew\AppData\Local\Temp\ccodWkAM.o
 .text          0x00000000        0x0 c:/program files (x86)/microchip/xc32/v2.15/bin/bin/../../lib/gcc/pic32mx/4.8.3/../../../../pic32mx/lib/./proc/32MZ2048EFM144\default_isr_vectors.o
 .data          0x00000000        0x0 c:/program files (x86)/microchip/xc32/v2.15/bin/bin/../../lib/gcc/pic32mx/4.8.3/../../../../pic32mx/lib/./proc/32MZ2048EFM144\default_isr_vectors.o
 .bss           0x00000000        0x0 c:/program files (x86)/microchip/xc32/v2.15/bin/bin/../../lib/gcc/pic32mx/4.8.3/../../../../pic32mx/lib/./proc/32MZ2048EFM144\default_isr_vectors.o
 .reginfo       0x00000000       0x18 c:/program files (x86)/microchip/xc32/v2.15/bin/bin/../../lib/gcc/pic32mx/4.8.3/../../../../pic32mx/lib/./proc/32MZ2048EFM144\default_isr_vectors.o
 .discard       0x00000000        0x4 c:/program files (x86)/microchip/xc32/v2.15/bin/bin/../../lib/gcc/pic32mx/4.8.3/../../../../pic32mx/lib/./proc/32MZ2048EFM144\default_isr_vectors.o
 .data          0x00000000        0x0 c:/program files (x86)/microchip/xc32/v2.15/bin/bin/../../lib/gcc/pic32mx/4.8.3/../../../../pic32mx/lib/fpu64\pic32_software_reset.o
 .bss           0x00000000        0x0 c:/program files (x86)/microchip/xc32/v2.15/bin/bin/../../lib/gcc/pic32mx/4.8.3/../../../../pic32mx/lib/fpu64\pic32_software_reset.o
 .reginfo       0x00000000       0x18 c:/program files (x86)/microchip/xc32/v2.15/bin/bin/../../lib/gcc/pic32mx/4.8.3/../../../../pic32mx/lib/fpu64\pic32_software_reset.o
 .data          0x00000000        0x0 c:/program files (x86)/microchip/xc32/v2.15/bin/bin/../../lib/gcc/pic32mx/4.8.3/fpu64\libgcc.a(unwind-sjlj.o)
 .reginfo       0x00000000       0x18 c:/program files (x86)/microchip/xc32/v2.15/bin/bin/../../lib/gcc/pic32mx/4.8.3/fpu64\libgcc.a(unwind-sjlj.o)
 .data          0x00000000        0x0 c:/program files (x86)/microchip/xc32/v2.15/bin/bin/../../lib/gcc/pic32mx/4.8.3/../../../../pic32mx/lib/fpu64\libpic32.a(memcpy.o)
 .bss           0x00000000        0x0 c:/program files (x86)/microchip/xc32/v2.15/bin/bin/../../lib/gcc/pic32mx/4.8.3/../../../../pic32mx/lib/fpu64\libpic32.a(memcpy.o)
 .reginfo       0x00000000       0x18 c:/program files (x86)/microchip/xc32/v2.15/bin/bin/../../lib/gcc/pic32mx/4.8.3/../../../../pic32mx/lib/fpu64\libpic32.a(memcpy.o)
 .data          0x00000000        0x0 c:/program files (x86)/microchip/xc32/v2.15/bin/bin/../../lib/gcc/pic32mx/4.8.3/../../../../pic32mx/lib/fpu64\libpic32.a(memset.o)
 .bss           0x00000000        0x0 c:/program files (x86)/microchip/xc32/v2.15/bin/bin/../../lib/gcc/pic32mx/4.8.3/../../../../pic32mx/lib/fpu64\libpic32.a(memset.o)
 .reginfo       0x00000000       0x18 c:/program files (x86)/microchip/xc32/v2.15/bin/bin/../../lib/gcc/pic32mx/4.8.3/../../../../pic32mx/lib/fpu64\libpic32.a(memset.o)
 .data          0x00000000        0x0 c:/program files (x86)/microchip/xc32/v2.15/bin/bin/../../lib/gcc/pic32mx/4.8.3/../../../../pic32mx/lib/fpu64\libpic32.a(strcmp.o)
 .bss           0x00000000        0x0 c:/program files (x86)/microchip/xc32/v2.15/bin/bin/../../lib/gcc/pic32mx/4.8.3/../../../../pic32mx/lib/fpu64\libpic32.a(strcmp.o)
 .reginfo       0x00000000       0x18 c:/program files (x86)/microchip/xc32/v2.15/bin/bin/../../lib/gcc/pic32mx/4.8.3/../../../../pic32mx/lib/fpu64\libpic32.a(strcmp.o)
 .data          0x00000000        0x0 c:/program files (x86)/microchip/xc32/v2.15/bin/bin/../../lib/gcc/pic32mx/4.8.3/../../../../pic32mx/lib/fpu64\libpic32.a(strlen.o)
 .bss           0x00000000        0x0 c:/program files (x86)/microchip/xc32/v2.15/bin/bin/../../lib/gcc/pic32mx/4.8.3/../../../../pic32mx/lib/fpu64\libpic32.a(strlen.o)
 .reginfo       0x00000000       0x18 c:/program files (x86)/microchip/xc32/v2.15/bin/bin/../../lib/gcc/pic32mx/4.8.3/../../../../pic32mx/lib/fpu64\libpic32.a(strlen.o)
 .text          0x00000000        0x0 c:/program files (x86)/microchip/xc32/v2.15/bin/bin/../../lib/gcc/pic32mx/4.8.3/../../../../pic32mx/lib/fpu64\libpic32.a(default-on-reset.o)
 .data          0x00000000        0x0 c:/program files (x86)/microchip/xc32/v2.15/bin/bin/../../lib/gcc/pic32mx/4.8.3/../../../../pic32mx/lib/fpu64\libpic32.a(default-on-reset.o)
 .bss           0x00000000        0x0 c:/program files (x86)/microchip/xc32/v2.15/bin/bin/../../lib/gcc/pic32mx/4.8.3/../../../../pic32mx/lib/fpu64\libpic32.a(default-on-reset.o)
 .reginfo       0x00000000       0x18 c:/program files (x86)/microchip/xc32/v2.15/bin/bin/../../lib/gcc/pic32mx/4.8.3/../../../../pic32mx/lib/fpu64\libpic32.a(default-on-reset.o)
 .text          0x00000000        0x0 c:/program files (x86)/microchip/xc32/v2.15/bin/bin/../../lib/gcc/pic32mx/4.8.3/../../../../pic32mx/lib/fpu64\libpic32.a(default-on-bootstrap.o)
 .data          0x00000000        0x0 c:/program files (x86)/microchip/xc32/v2.15/bin/bin/../../lib/gcc/pic32mx/4.8.3/../../../../pic32mx/lib/fpu64\libpic32.a(default-on-bootstrap.o)
 .bss           0x00000000        0x0 c:/program files (x86)/microchip/xc32/v2.15/bin/bin/../../lib/gcc/pic32mx/4.8.3/../../../../pic32mx/lib/fpu64\libpic32.a(default-on-bootstrap.o)
 .reginfo       0x00000000       0x18 c:/program files (x86)/microchip/xc32/v2.15/bin/bin/../../lib/gcc/pic32mx/4.8.3/../../../../pic32mx/lib/fpu64\libpic32.a(default-on-bootstrap.o)
 .data          0x00000000        0x0 c:/program files (x86)/microchip/xc32/v2.15/bin/bin/../../lib/gcc/pic32mx/4.8.3/../../../../pic32mx/lib/fpu64\libpic32.a(default-nmi-handler.o)
 .bss           0x00000000        0x0 c:/program files (x86)/microchip/xc32/v2.15/bin/bin/../../lib/gcc/pic32mx/4.8.3/../../../../pic32mx/lib/fpu64\libpic32.a(default-nmi-handler.o)
 .reginfo       0x00000000       0x18 c:/program files (x86)/microchip/xc32/v2.15/bin/bin/../../lib/gcc/pic32mx/4.8.3/../../../../pic32mx/lib/fpu64\libpic32.a(default-nmi-handler.o)
 .data          0x00000000        0x0 c:/program files (x86)/microchip/xc32/v2.15/bin/bin/../../lib/gcc/pic32mx/4.8.3/../../../../pic32mx/lib/fpu64\libpic32.a(pic32_data_init.o)
 .bss           0x00000000        0x0 c:/program files (x86)/microchip/xc32/v2.15/bin/bin/../../lib/gcc/pic32mx/4.8.3/../../../../pic32mx/lib/fpu64\libpic32.a(pic32_data_init.o)
 .reginfo       0x00000000       0x18 c:/program files (x86)/microchip/xc32/v2.15/bin/bin/../../lib/gcc/pic32mx/4.8.3/../../../../pic32mx/lib/fpu64\libpic32.a(pic32_data_init.o)
 .text          0x00000000        0x0 c:/program files (x86)/microchip/xc32/v2.15/bin/bin/../../lib/gcc/pic32mx/4.8.3/../../../../pic32mx/lib/fpu64\libpic32.a(pic32_init_cache.o)
 .data          0x00000000        0x0 c:/program files (x86)/microchip/xc32/v2.15/bin/bin/../../lib/gcc/pic32mx/4.8.3/../../../../pic32mx/lib/fpu64\libpic32.a(pic32_init_cache.o)
 .bss           0x00000000        0x0 c:/program files (x86)/microchip/xc32/v2.15/bin/bin/../../lib/gcc/pic32mx/4.8.3/../../../../pic32mx/lib/fpu64\libpic32.a(pic32_init_cache.o)
 .reginfo       0x00000000       0x18 c:/program files (x86)/microchip/xc32/v2.15/bin/bin/../../lib/gcc/pic32mx/4.8.3/../../../../pic32mx/lib/fpu64\libpic32.a(pic32_init_cache.o)
 .cache_init.pic32_size_cache
                0x00000000       0x58 c:/program files (x86)/microchip/xc32/v2.15/bin/bin/../../lib/gcc/pic32mx/4.8.3/../../../../pic32mx/lib/fpu64\libpic32.a(pic32_init_cache.o)
 .text          0x00000000        0x0 c:/program files (x86)/microchip/xc32/v2.15/bin/bin/../../lib/gcc/pic32mx/4.8.3/../../../../pic32mx/lib/fpu64\libpic32.a(pic32_init_tlb_ebi_sqi.o)
 .data          0x00000000        0x0 c:/program files (x86)/microchip/xc32/v2.15/bin/bin/../../lib/gcc/pic32mx/4.8.3/../../../../pic32mx/lib/fpu64\libpic32.a(pic32_init_tlb_ebi_sqi.o)
 .bss           0x00000000        0x0 c:/program files (x86)/microchip/xc32/v2.15/bin/bin/../../lib/gcc/pic32mx/4.8.3/../../../../pic32mx/lib/fpu64\libpic32.a(pic32_init_tlb_ebi_sqi.o)
 .reginfo       0x00000000       0x18 c:/program files (x86)/microchip/xc32/v2.15/bin/bin/../../lib/gcc/pic32mx/4.8.3/../../../../pic32mx/lib/fpu64\libpic32.a(pic32_init_tlb_ebi_sqi.o)
 .text          0x00000000        0x0 c:/program files (x86)/microchip/xc32/v2.15/bin/bin/../../lib/gcc/pic32mx/4.8.3/../../../../pic32mx/lib/fpu64\libpic32.a(general-exception.o)
 .data          0x00000000        0x0 c:/program files (x86)/microchip/xc32/v2.15/bin/bin/../../lib/gcc/pic32mx/4.8.3/../../../../pic32mx/lib/fpu64\libpic32.a(general-exception.o)
 .bss           0x00000000        0x0 c:/program files (x86)/microchip/xc32/v2.15/bin/bin/../../lib/gcc/pic32mx/4.8.3/../../../../pic32mx/lib/fpu64\libpic32.a(general-exception.o)
 .reginfo       0x00000000       0x18 c:/program files (x86)/microchip/xc32/v2.15/bin/bin/../../lib/gcc/pic32mx/4.8.3/../../../../pic32mx/lib/fpu64\libpic32.a(general-exception.o)
 .text          0x00000000        0x0 c:/program files (x86)/microchip/xc32/v2.15/bin/bin/../../lib/gcc/pic32mx/4.8.3/../../../../pic32mx/lib/fpu64\libpic32.a(cache-err-exception.o)
 .data          0x00000000        0x0 c:/program files (x86)/microchip/xc32/v2.15/bin/bin/../../lib/gcc/pic32mx/4.8.3/../../../../pic32mx/lib/fpu64\libpic32.a(cache-err-exception.o)
 .bss           0x00000000        0x0 c:/program files (x86)/microchip/xc32/v2.15/bin/bin/../../lib/gcc/pic32mx/4.8.3/../../../../pic32mx/lib/fpu64\libpic32.a(cache-err-exception.o)
 .reginfo       0x00000000       0x18 c:/program files (x86)/microchip/xc32/v2.15/bin/bin/../../lib/gcc/pic32mx/4.8.3/../../../../pic32mx/lib/fpu64\libpic32.a(cache-err-exception.o)
 .text          0x00000000        0x0 c:/program files (x86)/microchip/xc32/v2.15/bin/bin/../../lib/gcc/pic32mx/4.8.3/../../../../pic32mx/lib/fpu64\libpic32.a(simple-tlb-refill-exception.o)
 .data          0x00000000        0x0 c:/program files (x86)/microchip/xc32/v2.15/bin/bin/../../lib/gcc/pic32mx/4.8.3/../../../../pic32mx/lib/fpu64\libpic32.a(simple-tlb-refill-exception.o)
 .bss           0x00000000        0x0 c:/program files (x86)/microchip/xc32/v2.15/bin/bin/../../lib/gcc/pic32mx/4.8.3/../../../../pic32mx/lib/fpu64\libpic32.a(simple-tlb-refill-exception.o)
 .reginfo       0x00000000       0x18 c:/program files (x86)/microchip/xc32/v2.15/bin/bin/../../lib/gcc/pic32mx/4.8.3/../../../../pic32mx/lib/fpu64\libpic32.a(simple-tlb-refill-exception.o)
 .text          0x00000000        0x0 c:/program files (x86)/microchip/xc32/v2.15/bin/bin/../../lib/gcc/pic32mx/4.8.3/../../../../pic32mx/lib/fpu64\libpic32.a(defaultinterrupt.o)
 .data          0x00000000        0x0 c:/program files (x86)/microchip/xc32/v2.15/bin/bin/../../lib/gcc/pic32mx/4.8.3/../../../../pic32mx/lib/fpu64\libpic32.a(defaultinterrupt.o)
 .bss           0x00000000        0x0 c:/program files (x86)/microchip/xc32/v2.15/bin/bin/../../lib/gcc/pic32mx/4.8.3/../../../../pic32mx/lib/fpu64\libpic32.a(defaultinterrupt.o)
 .reginfo       0x00000000       0x18 c:/program files (x86)/microchip/xc32/v2.15/bin/bin/../../lib/gcc/pic32mx/4.8.3/../../../../pic32mx/lib/fpu64\libpic32.a(defaultinterrupt.o)
 .text          0x00000000        0x0 c:/program files (x86)/microchip/xc32/v2.15/bin/bin/../../lib/gcc/pic32mx/4.8.3/../../../../pic32mx/lib/fpu64\libxcpp.a(xthrow.o)
 .data          0x00000000        0x0 c:/program files (x86)/microchip/xc32/v2.15/bin/bin/../../lib/gcc/pic32mx/4.8.3/../../../../pic32mx/lib/fpu64\libxcpp.a(xthrow.o)
 .bss           0x00000000        0x0 c:/program files (x86)/microchip/xc32/v2.15/bin/bin/../../lib/gcc/pic32mx/4.8.3/../../../../pic32mx/lib/fpu64\libxcpp.a(xthrow.o)
 .reginfo       0x00000000       0x18 c:/program files (x86)/microchip/xc32/v2.15/bin/bin/../../lib/gcc/pic32mx/4.8.3/../../../../pic32mx/lib/fpu64\libxcpp.a(xthrow.o)
 .gnu.linkonce.t._ZNKSt9bad_alloc4whatEv
                0x00000000        0xc c:/program files (x86)/microchip/xc32/v2.15/bin/bin/../../lib/gcc/pic32mx/4.8.3/../../../../pic32mx/lib/fpu64\libxcpp.a(xthrow.o)
 .gnu.linkonce.t._ZNKSt13runtime_error4whatEv
                0x00000000       0x20 c:/program files (x86)/microchip/xc32/v2.15/bin/bin/../../lib/gcc/pic32mx/4.8.3/../../../../pic32mx/lib/fpu64\libxcpp.a(xthrow.o)
 .gnu.linkonce.t._ZNSt9bad_allocD1Ev
                0x00000000       0x24 c:/program files (x86)/microchip/xc32/v2.15/bin/bin/../../lib/gcc/pic32mx/4.8.3/../../../../pic32mx/lib/fpu64\libxcpp.a(xthrow.o)
 .gnu.linkonce.t._ZNSt9bad_allocD0Ev
                0x00000000       0x38 c:/program files (x86)/microchip/xc32/v2.15/bin/bin/../../lib/gcc/pic32mx/4.8.3/../../../../pic32mx/lib/fpu64\libxcpp.a(xthrow.o)
 .gnu.linkonce.t._ZNSt13runtime_errorD1Ev
                0x00000000       0x58 c:/program files (x86)/microchip/xc32/v2.15/bin/bin/../../lib/gcc/pic32mx/4.8.3/../../../../pic32mx/lib/fpu64\libxcpp.a(xthrow.o)
 .gnu.linkonce.t._ZNSt14overflow_errorD0Ev
                0x00000000       0x60 c:/program files (x86)/microchip/xc32/v2.15/bin/bin/../../lib/gcc/pic32mx/4.8.3/../../../../pic32mx/lib/fpu64\libxcpp.a(xthrow.o)
 .gnu.linkonce.t._ZNSt13runtime_errorD0Ev
                0x00000000       0x60 c:/program files (x86)/microchip/xc32/v2.15/bin/bin/../../lib/gcc/pic32mx/4.8.3/../../../../pic32mx/lib/fpu64\libxcpp.a(xthrow.o)
 .gnu.linkonce.t._ZNSt14overflow_errorD1Ev
                0x00000000       0x58 c:/program files (x86)/microchip/xc32/v2.15/bin/bin/../../lib/gcc/pic32mx/4.8.3/../../../../pic32mx/lib/fpu64\libxcpp.a(xthrow.o)
 .gnu.linkonce.t._ZNSt16invalid_argumentD1Ev
                0x00000000       0x58 c:/program files (x86)/microchip/xc32/v2.15/bin/bin/../../lib/gcc/pic32mx/4.8.3/../../../../pic32mx/lib/fpu64\libxcpp.a(xthrow.o)
 .gnu.linkonce.t._ZNSt16invalid_argumentD0Ev
                0x00000000       0x60 c:/program files (x86)/microchip/xc32/v2.15/bin/bin/../../lib/gcc/pic32mx/4.8.3/../../../../pic32mx/lib/fpu64\libxcpp.a(xthrow.o)
 .gnu.linkonce.t._ZNSs5_TidyEbm
                0x00000000       0x7c c:/program files (x86)/microchip/xc32/v2.15/bin/bin/../../lib/gcc/pic32mx/4.8.3/../../../../pic32mx/lib/fpu64\libxcpp.a(xthrow.o)
 .text._ZSt18_Xinvalid_argumentPKc
                0x00000000       0xb8 c:/program files (x86)/microchip/xc32/v2.15/bin/bin/../../lib/gcc/pic32mx/4.8.3/../../../../pic32mx/lib/fpu64\libxcpp.a(xthrow.o)
 .text._ZSt15_Xruntime_errorPKc
                0x00000000      0x554 c:/program files (x86)/microchip/xc32/v2.15/bin/bin/../../lib/gcc/pic32mx/4.8.3/../../../../pic32mx/lib/fpu64\libxcpp.a(xthrow.o)
 .text._ZSt16_Xoverflow_errorPKc
                0x00000000      0x560 c:/program files (x86)/microchip/xc32/v2.15/bin/bin/../../lib/gcc/pic32mx/4.8.3/../../../../pic32mx/lib/fpu64\libxcpp.a(xthrow.o)
 .gnu.linkonce.r._ZTISt9bad_alloc
                0x00000000        0xc c:/program files (x86)/microchip/xc32/v2.15/bin/bin/../../lib/gcc/pic32mx/4.8.3/../../../../pic32mx/lib/fpu64\libxcpp.a(xthrow.o)
 .gnu.linkonce.r._ZTSSt9bad_alloc
                0x00000000       0x10 c:/program files (x86)/microchip/xc32/v2.15/bin/bin/../../lib/gcc/pic32mx/4.8.3/../../../../pic32mx/lib/fpu64\libxcpp.a(xthrow.o)
 .gnu.linkonce.r._ZTISt16invalid_argument
                0x00000000        0xc c:/program files (x86)/microchip/xc32/v2.15/bin/bin/../../lib/gcc/pic32mx/4.8.3/../../../../pic32mx/lib/fpu64\libxcpp.a(xthrow.o)
 .gnu.linkonce.r._ZTSSt16invalid_argument
                0x00000000       0x18 c:/program files (x86)/microchip/xc32/v2.15/bin/bin/../../lib/gcc/pic32mx/4.8.3/../../../../pic32mx/lib/fpu64\libxcpp.a(xthrow.o)
 .gnu.linkonce.r._ZTISt13runtime_error
                0x00000000        0xc c:/program files (x86)/microchip/xc32/v2.15/bin/bin/../../lib/gcc/pic32mx/4.8.3/../../../../pic32mx/lib/fpu64\libxcpp.a(xthrow.o)
 .gnu.linkonce.r._ZTSSt13runtime_error
                0x00000000       0x14 c:/program files (x86)/microchip/xc32/v2.15/bin/bin/../../lib/gcc/pic32mx/4.8.3/../../../../pic32mx/lib/fpu64\libxcpp.a(xthrow.o)
 .gnu.linkonce.r._ZTISt14overflow_error
                0x00000000        0xc c:/program files (x86)/microchip/xc32/v2.15/bin/bin/../../lib/gcc/pic32mx/4.8.3/../../../../pic32mx/lib/fpu64\libxcpp.a(xthrow.o)
 .gnu.linkonce.r._ZTSSt14overflow_error
                0x00000000       0x14 c:/program files (x86)/microchip/xc32/v2.15/bin/bin/../../lib/gcc/pic32mx/4.8.3/../../../../pic32mx/lib/fpu64\libxcpp.a(xthrow.o)
 .gnu.linkonce.r._ZTVSt9bad_alloc
                0x00000000       0x14 c:/program files (x86)/microchip/xc32/v2.15/bin/bin/../../lib/gcc/pic32mx/4.8.3/../../../../pic32mx/lib/fpu64\libxcpp.a(xthrow.o)
 .gnu.linkonce.r._ZTVSt16invalid_argument
                0x00000000       0x14 c:/program files (x86)/microchip/xc32/v2.15/bin/bin/../../lib/gcc/pic32mx/4.8.3/../../../../pic32mx/lib/fpu64\libxcpp.a(xthrow.o)
 .gnu.linkonce.r._ZTVSt13runtime_error
                0x00000000       0x14 c:/program files (x86)/microchip/xc32/v2.15/bin/bin/../../lib/gcc/pic32mx/4.8.3/../../../../pic32mx/lib/fpu64\libxcpp.a(xthrow.o)
 .gnu.linkonce.r._ZTVSt14overflow_error
                0x00000000       0x14 c:/program files (x86)/microchip/xc32/v2.15/bin/bin/../../lib/gcc/pic32mx/4.8.3/../../../../pic32mx/lib/fpu64\libxcpp.a(xthrow.o)
 .text          0x00000000        0x0 c:/program files (x86)/microchip/xc32/v2.15/bin/bin/../../lib/gcc/pic32mx/4.8.3/../../../../pic32mx/lib/fpu64\libxcpp.a(abort.o)
 .data          0x00000000        0x0 c:/program files (x86)/microchip/xc32/v2.15/bin/bin/../../lib/gcc/pic32mx/4.8.3/../../../../pic32mx/lib/fpu64\libxcpp.a(abort.o)
 .bss           0x00000000        0x0 c:/program files (x86)/microchip/xc32/v2.15/bin/bin/../../lib/gcc/pic32mx/4.8.3/../../../../pic32mx/lib/fpu64\libxcpp.a(abort.o)
 .reginfo       0x00000000       0x18 c:/program files (x86)/microchip/xc32/v2.15/bin/bin/../../lib/gcc/pic32mx/4.8.3/../../../../pic32mx/lib/fpu64\libxcpp.a(abort.o)
 .text          0x00000000        0x0 c:/program files (x86)/microchip/xc32/v2.15/bin/bin/../../lib/gcc/pic32mx/4.8.3/../../../../pic32mx/lib/fpu64\libxcpp.a(abs.o)
 .data          0x00000000        0x0 c:/program files (x86)/microchip/xc32/v2.15/bin/bin/../../lib/gcc/pic32mx/4.8.3/../../../../pic32mx/lib/fpu64\libxcpp.a(abs.o)
 .bss           0x00000000        0x0 c:/program files (x86)/microchip/xc32/v2.15/bin/bin/../../lib/gcc/pic32mx/4.8.3/../../../../pic32mx/lib/fpu64\libxcpp.a(abs.o)
 .reginfo       0x00000000       0x18 c:/program files (x86)/microchip/xc32/v2.15/bin/bin/../../lib/gcc/pic32mx/4.8.3/../../../../pic32mx/lib/fpu64\libxcpp.a(abs.o)
 .text.abs      0x00000000       0x10 c:/program files (x86)/microchip/xc32/v2.15/bin/bin/../../lib/gcc/pic32mx/4.8.3/../../../../pic32mx/lib/fpu64\libxcpp.a(abs.o)
 .text          0x00000000        0x0 c:/program files (x86)/microchip/xc32/v2.15/bin/bin/../../lib/gcc/pic32mx/4.8.3/../../../../pic32mx/lib/fpu64\libxcpp.a(exit.o)
 .reginfo       0x00000000       0x18 c:/program files (x86)/microchip/xc32/v2.15/bin/bin/../../lib/gcc/pic32mx/4.8.3/../../../../pic32mx/lib/fpu64\libxcpp.a(exit.o)
 .text.atexit   0x00000000       0x7c c:/program files (x86)/microchip/xc32/v2.15/bin/bin/../../lib/gcc/pic32mx/4.8.3/../../../../pic32mx/lib/fpu64\libxcpp.a(exit.o)
 .text          0x00000000        0x0 c:/program files (x86)/microchip/xc32/v2.15/bin/bin/../../lib/gcc/pic32mx/4.8.3/../../../../pic32mx/lib/fpu64\libxcpp.a(free.o)
 .data          0x00000000        0x0 c:/program files (x86)/microchip/xc32/v2.15/bin/bin/../../lib/gcc/pic32mx/4.8.3/../../../../pic32mx/lib/fpu64\libxcpp.a(free.o)
 .bss           0x00000000        0x0 c:/program files (x86)/microchip/xc32/v2.15/bin/bin/../../lib/gcc/pic32mx/4.8.3/../../../../pic32mx/lib/fpu64\libxcpp.a(free.o)
 .reginfo       0x00000000       0x18 c:/program files (x86)/microchip/xc32/v2.15/bin/bin/../../lib/gcc/pic32mx/4.8.3/../../../../pic32mx/lib/fpu64\libxcpp.a(free.o)
 .text          0x00000000        0x0 c:/program files (x86)/microchip/xc32/v2.15/bin/bin/../../lib/gcc/pic32mx/4.8.3/../../../../pic32mx/lib/fpu64\libxcpp.a(malloc.o)
 .reginfo       0x00000000       0x18 c:/program files (x86)/microchip/xc32/v2.15/bin/bin/../../lib/gcc/pic32mx/4.8.3/../../../../pic32mx/lib/fpu64\libxcpp.a(malloc.o)
 .text          0x00000000        0x0 c:/program files (x86)/microchip/xc32/v2.15/bin/bin/../../lib/gcc/pic32mx/4.8.3/../../../../pic32mx/lib/fpu64\libxcpp.a(memmove.o)
 .data          0x00000000        0x0 c:/program files (x86)/microchip/xc32/v2.15/bin/bin/../../lib/gcc/pic32mx/4.8.3/../../../../pic32mx/lib/fpu64\libxcpp.a(memmove.o)
 .bss           0x00000000        0x0 c:/program files (x86)/microchip/xc32/v2.15/bin/bin/../../lib/gcc/pic32mx/4.8.3/../../../../pic32mx/lib/fpu64\libxcpp.a(memmove.o)
 .reginfo       0x00000000       0x18 c:/program files (x86)/microchip/xc32/v2.15/bin/bin/../../lib/gcc/pic32mx/4.8.3/../../../../pic32mx/lib/fpu64\libxcpp.a(memmove.o)
 .text          0x00000000        0x0 c:/program files (x86)/microchip/xc32/v2.15/bin/bin/../../lib/gcc/pic32mx/4.8.3/../../../../pic32mx/lib/fpu64\libxcpp.a(raise.o)
 .data          0x00000000        0x0 c:/program files (x86)/microchip/xc32/v2.15/bin/bin/../../lib/gcc/pic32mx/4.8.3/../../../../pic32mx/lib/fpu64\libxcpp.a(raise.o)
 .bss           0x00000000        0x0 c:/program files (x86)/microchip/xc32/v2.15/bin/bin/../../lib/gcc/pic32mx/4.8.3/../../../../pic32mx/lib/fpu64\libxcpp.a(raise.o)
 .reginfo       0x00000000       0x18 c:/program files (x86)/microchip/xc32/v2.15/bin/bin/../../lib/gcc/pic32mx/4.8.3/../../../../pic32mx/lib/fpu64\libxcpp.a(raise.o)
 .text          0x00000000        0x0 c:/program files (x86)/microchip/xc32/v2.15/bin/bin/../../lib/gcc/pic32mx/4.8.3/../../../../pic32mx/lib/fpu64\libxcpp.a(vsnprint.o)
 .data          0x00000000        0x0 c:/program files (x86)/microchip/xc32/v2.15/bin/bin/../../lib/gcc/pic32mx/4.8.3/../../../../pic32mx/lib/fpu64\libxcpp.a(vsnprint.o)
 .bss           0x00000000        0x0 c:/program files (x86)/microchip/xc32/v2.15/bin/bin/../../lib/gcc/pic32mx/4.8.3/../../../../pic32mx/lib/fpu64\libxcpp.a(vsnprint.o)
 .reginfo       0x00000000       0x18 c:/program files (x86)/microchip/xc32/v2.15/bin/bin/../../lib/gcc/pic32mx/4.8.3/../../../../pic32mx/lib/fpu64\libxcpp.a(vsnprint.o)
 .text          0x00000000        0x0 c:/program files (x86)/microchip/xc32/v2.15/bin/bin/../../lib/gcc/pic32mx/4.8.3/../../../../pic32mx/lib/fpu64\libxcpp.a(xexit.o)
 .data          0x00000000        0x0 c:/program files (x86)/microchip/xc32/v2.15/bin/bin/../../lib/gcc/pic32mx/4.8.3/../../../../pic32mx/lib/fpu64\libxcpp.a(xexit.o)
 .bss           0x00000000        0x0 c:/program files (x86)/microchip/xc32/v2.15/bin/bin/../../lib/gcc/pic32mx/4.8.3/../../../../pic32mx/lib/fpu64\libxcpp.a(xexit.o)
 .reginfo       0x00000000       0x18 c:/program files (x86)/microchip/xc32/v2.15/bin/bin/../../lib/gcc/pic32mx/4.8.3/../../../../pic32mx/lib/fpu64\libxcpp.a(xexit.o)
 .text          0x00000000        0x0 c:/program files (x86)/microchip/xc32/v2.15/bin/bin/../../lib/gcc/pic32mx/4.8.3/../../../../pic32mx/lib/fpu64\libxcpp.a(xgetmem.o)
 .data          0x00000000        0x0 c:/program files (x86)/microchip/xc32/v2.15/bin/bin/../../lib/gcc/pic32mx/4.8.3/../../../../pic32mx/lib/fpu64\libxcpp.a(xgetmem.o)
 .bss           0x00000000        0x0 c:/program files (x86)/microchip/xc32/v2.15/bin/bin/../../lib/gcc/pic32mx/4.8.3/../../../../pic32mx/lib/fpu64\libxcpp.a(xgetmem.o)
 .reginfo       0x00000000       0x18 c:/program files (x86)/microchip/xc32/v2.15/bin/bin/../../lib/gcc/pic32mx/4.8.3/../../../../pic32mx/lib/fpu64\libxcpp.a(xgetmem.o)
 .text          0x00000000        0x0 c:/program files (x86)/microchip/xc32/v2.15/bin/bin/../../lib/gcc/pic32mx/4.8.3/../../../../pic32mx/lib/fpu64\libxcpp.a(xprintf.o)
 .data          0x00000000        0x0 c:/program files (x86)/microchip/xc32/v2.15/bin/bin/../../lib/gcc/pic32mx/4.8.3/../../../../pic32mx/lib/fpu64\libxcpp.a(xprintf.o)
 .bss           0x00000000        0x0 c:/program files (x86)/microchip/xc32/v2.15/bin/bin/../../lib/gcc/pic32mx/4.8.3/../../../../pic32mx/lib/fpu64\libxcpp.a(xprintf.o)
 .reginfo       0x00000000       0x18 c:/program files (x86)/microchip/xc32/v2.15/bin/bin/../../lib/gcc/pic32mx/4.8.3/../../../../pic32mx/lib/fpu64\libxcpp.a(xprintf.o)
 .text          0x00000000        0x0 c:/program files (x86)/microchip/xc32/v2.15/bin/bin/../../lib/gcc/pic32mx/4.8.3/../../../../pic32mx/lib/fpu64\libxcpp.a(xputfld.o)
 .data          0x00000000        0x0 c:/program files (x86)/microchip/xc32/v2.15/bin/bin/../../lib/gcc/pic32mx/4.8.3/../../../../pic32mx/lib/fpu64\libxcpp.a(xputfld.o)
 .bss           0x00000000        0x0 c:/program files (x86)/microchip/xc32/v2.15/bin/bin/../../lib/gcc/pic32mx/4.8.3/../../../../pic32mx/lib/fpu64\libxcpp.a(xputfld.o)
 .reginfo       0x00000000       0x18 c:/program files (x86)/microchip/xc32/v2.15/bin/bin/../../lib/gcc/pic32mx/4.8.3/../../../../pic32mx/lib/fpu64\libxcpp.a(xputfld.o)
 .text          0x00000000        0x0 c:/program files (x86)/microchip/xc32/v2.15/bin/bin/../../lib/gcc/pic32mx/4.8.3/../../../../pic32mx/lib/fpu64\libxcpp.a(xputstr.o)
 .data          0x00000000        0x0 c:/program files (x86)/microchip/xc32/v2.15/bin/bin/../../lib/gcc/pic32mx/4.8.3/../../../../pic32mx/lib/fpu64\libxcpp.a(xputstr.o)
 .bss           0x00000000        0x0 c:/program files (x86)/microchip/xc32/v2.15/bin/bin/../../lib/gcc/pic32mx/4.8.3/../../../../pic32mx/lib/fpu64\libxcpp.a(xputstr.o)
 .reginfo       0x00000000       0x18 c:/program files (x86)/microchip/xc32/v2.15/bin/bin/../../lib/gcc/pic32mx/4.8.3/../../../../pic32mx/lib/fpu64\libxcpp.a(xputstr.o)
 .text          0x00000000        0x0 c:/program files (x86)/microchip/xc32/v2.15/bin/bin/../../lib/gcc/pic32mx/4.8.3/../../../../pic32mx/lib/fpu64\libxcpp.a(xputtxt.o)
 .data          0x00000000        0x0 c:/program files (x86)/microchip/xc32/v2.15/bin/bin/../../lib/gcc/pic32mx/4.8.3/../../../../pic32mx/lib/fpu64\libxcpp.a(xputtxt.o)
 .bss           0x00000000        0x0 c:/program files (x86)/microchip/xc32/v2.15/bin/bin/../../lib/gcc/pic32mx/4.8.3/../../../../pic32mx/lib/fpu64\libxcpp.a(xputtxt.o)
 .reginfo       0x00000000       0x18 c:/program files (x86)/microchip/xc32/v2.15/bin/bin/../../lib/gcc/pic32mx/4.8.3/../../../../pic32mx/lib/fpu64\libxcpp.a(xputtxt.o)
 .text          0x00000000        0x0 c:/program files (x86)/microchip/xc32/v2.15/bin/bin/../../lib/gcc/pic32mx/4.8.3/../../../../pic32mx/lib/fpu64\libxcpp.a(xstate.o)
 .reginfo       0x00000000       0x18 c:/program files (x86)/microchip/xc32/v2.15/bin/bin/../../lib/gcc/pic32mx/4.8.3/../../../../pic32mx/lib/fpu64\libxcpp.a(xstate.o)
 .text._Getpmbstate
                0x00000000       0x3c c:/program files (x86)/microchip/xc32/v2.15/bin/bin/../../lib/gcc/pic32mx/4.8.3/../../../../pic32mx/lib/fpu64\libxcpp.a(xstate.o)
 .text          0x00000000        0x0 c:/program files (x86)/microchip/xc32/v2.15/bin/bin/../../lib/gcc/pic32mx/4.8.3/../../../../pic32mx/lib/fpu64\libxcpp.a(xvacopy.o)
 .data          0x00000000        0x0 c:/program files (x86)/microchip/xc32/v2.15/bin/bin/../../lib/gcc/pic32mx/4.8.3/../../../../pic32mx/lib/fpu64\libxcpp.a(xvacopy.o)
 .bss           0x00000000        0x0 c:/program files (x86)/microchip/xc32/v2.15/bin/bin/../../lib/gcc/pic32mx/4.8.3/../../../../pic32mx/lib/fpu64\libxcpp.a(xvacopy.o)
 .reginfo       0x00000000       0x18 c:/program files (x86)/microchip/xc32/v2.15/bin/bin/../../lib/gcc/pic32mx/4.8.3/../../../../pic32mx/lib/fpu64\libxcpp.a(xvacopy.o)
 .text          0x00000000        0x0 c:/program files (x86)/microchip/xc32/v2.15/bin/bin/../../lib/gcc/pic32mx/4.8.3/../../../../pic32mx/lib/fpu64\libxcpp.a(xwctomb.o)
 .data          0x00000000        0x0 c:/program files (x86)/microchip/xc32/v2.15/bin/bin/../../lib/gcc/pic32mx/4.8.3/../../../../pic32mx/lib/fpu64\libxcpp.a(xwctomb.o)
 .bss           0x00000000        0x0 c:/program files (x86)/microchip/xc32/v2.15/bin/bin/../../lib/gcc/pic32mx/4.8.3/../../../../pic32mx/lib/fpu64\libxcpp.a(xwctomb.o)
 .reginfo       0x00000000       0x18 c:/program files (x86)/microchip/xc32/v2.15/bin/bin/../../lib/gcc/pic32mx/4.8.3/../../../../pic32mx/lib/fpu64\libxcpp.a(xwctomb.o)
 .text          0x00000000        0x0 c:/program files (x86)/microchip/xc32/v2.15/bin/bin/../../lib/gcc/pic32mx/4.8.3/../../../../pic32mx/lib/fpu64\libxcpp.a(xfail_s.o)
 .data          0x00000000        0x0 c:/program files (x86)/microchip/xc32/v2.15/bin/bin/../../lib/gcc/pic32mx/4.8.3/../../../../pic32mx/lib/fpu64\libxcpp.a(xfail_s.o)
 .reginfo       0x00000000       0x18 c:/program files (x86)/microchip/xc32/v2.15/bin/bin/../../lib/gcc/pic32mx/4.8.3/../../../../pic32mx/lib/fpu64\libxcpp.a(xfail_s.o)
 .text.set_constraint_handler_s
                0x00000000       0x10 c:/program files (x86)/microchip/xc32/v2.15/bin/bin/../../lib/gcc/pic32mx/4.8.3/../../../../pic32mx/lib/fpu64\libxcpp.a(xfail_s.o)
 .text.abort_handler_s
                0x00000000       0x2c c:/program files (x86)/microchip/xc32/v2.15/bin/bin/../../lib/gcc/pic32mx/4.8.3/../../../../pic32mx/lib/fpu64\libxcpp.a(xfail_s.o)
 .text.ignore_handler_s
                0x00000000        0x8 c:/program files (x86)/microchip/xc32/v2.15/bin/bin/../../lib/gcc/pic32mx/4.8.3/../../../../pic32mx/lib/fpu64\libxcpp.a(xfail_s.o)
 .text          0x00000000        0x0 c:/program files (x86)/microchip/xc32/v2.15/bin/bin/../../lib/gcc/pic32mx/4.8.3/../../../../pic32mx/lib/fpu64\libxcpp.a(errno.o)
 .data          0x00000000        0x0 c:/program files (x86)/microchip/xc32/v2.15/bin/bin/../../lib/gcc/pic32mx/4.8.3/../../../../pic32mx/lib/fpu64\libxcpp.a(errno.o)
 .reginfo       0x00000000       0x18 c:/program files (x86)/microchip/xc32/v2.15/bin/bin/../../lib/gcc/pic32mx/4.8.3/../../../../pic32mx/lib/fpu64\libxcpp.a(errno.o)
 .text._Geterrno
                0x00000000       0x3c c:/program files (x86)/microchip/xc32/v2.15/bin/bin/../../lib/gcc/pic32mx/4.8.3/../../../../pic32mx/lib/fpu64\libxcpp.a(errno.o)
 .text          0x00000000        0x0 c:/program files (x86)/microchip/xc32/v2.15/bin/bin/../../lib/gcc/pic32mx/4.8.3/../../../../pic32mx/lib/fpu64\libxcpp.a(fputc.o)
 .data          0x00000000        0x0 c:/program files (x86)/microchip/xc32/v2.15/bin/bin/../../lib/gcc/pic32mx/4.8.3/../../../../pic32mx/lib/fpu64\libxcpp.a(fputc.o)
 .bss           0x00000000        0x0 c:/program files (x86)/microchip/xc32/v2.15/bin/bin/../../lib/gcc/pic32mx/4.8.3/../../../../pic32mx/lib/fpu64\libxcpp.a(fputc.o)
 .reginfo       0x00000000       0x18 c:/program files (x86)/microchip/xc32/v2.15/bin/bin/../../lib/gcc/pic32mx/4.8.3/../../../../pic32mx/lib/fpu64\libxcpp.a(fputc.o)
 .text          0x00000000        0x0 c:/program files (x86)/microchip/xc32/v2.15/bin/bin/../../lib/gcc/pic32mx/4.8.3/../../../../pic32mx/lib/fpu64\libxcpp.a(fputs.o)
 .data          0x00000000        0x0 c:/program files (x86)/microchip/xc32/v2.15/bin/bin/../../lib/gcc/pic32mx/4.8.3/../../../../pic32mx/lib/fpu64\libxcpp.a(fputs.o)
 .bss           0x00000000        0x0 c:/program files (x86)/microchip/xc32/v2.15/bin/bin/../../lib/gcc/pic32mx/4.8.3/../../../../pic32mx/lib/fpu64\libxcpp.a(fputs.o)
 .reginfo       0x00000000       0x18 c:/program files (x86)/microchip/xc32/v2.15/bin/bin/../../lib/gcc/pic32mx/4.8.3/../../../../pic32mx/lib/fpu64\libxcpp.a(fputs.o)
 .text          0x00000000        0x0 c:/program files (x86)/microchip/xc32/v2.15/bin/bin/../../lib/gcc/pic32mx/4.8.3/../../../../pic32mx/lib/fpu64\libxcpp.a(memchr.o)
 .data          0x00000000        0x0 c:/program files (x86)/microchip/xc32/v2.15/bin/bin/../../lib/gcc/pic32mx/4.8.3/../../../../pic32mx/lib/fpu64\libxcpp.a(memchr.o)
 .bss           0x00000000        0x0 c:/program files (x86)/microchip/xc32/v2.15/bin/bin/../../lib/gcc/pic32mx/4.8.3/../../../../pic32mx/lib/fpu64\libxcpp.a(memchr.o)
 .reginfo       0x00000000       0x18 c:/program files (x86)/microchip/xc32/v2.15/bin/bin/../../lib/gcc/pic32mx/4.8.3/../../../../pic32mx/lib/fpu64\libxcpp.a(memchr.o)
 .text          0x00000000        0x0 c:/program files (x86)/microchip/xc32/v2.15/bin/bin/../../lib/gcc/pic32mx/4.8.3/../../../../pic32mx/lib/fpu64\libxcpp.a(strchr.o)
 .data          0x00000000        0x0 c:/program files (x86)/microchip/xc32/v2.15/bin/bin/../../lib/gcc/pic32mx/4.8.3/../../../../pic32mx/lib/fpu64\libxcpp.a(strchr.o)
 .bss           0x00000000        0x0 c:/program files (x86)/microchip/xc32/v2.15/bin/bin/../../lib/gcc/pic32mx/4.8.3/../../../../pic32mx/lib/fpu64\libxcpp.a(strchr.o)
 .reginfo       0x00000000       0x18 c:/program files (x86)/microchip/xc32/v2.15/bin/bin/../../lib/gcc/pic32mx/4.8.3/../../../../pic32mx/lib/fpu64\libxcpp.a(strchr.o)
 .text          0x00000000        0x0 c:/program files (x86)/microchip/xc32/v2.15/bin/bin/../../lib/gcc/pic32mx/4.8.3/../../../../pic32mx/lib/fpu64\libxcpp.a(strrchr.o)
 .data          0x00000000        0x0 c:/program files (x86)/microchip/xc32/v2.15/bin/bin/../../lib/gcc/pic32mx/4.8.3/../../../../pic32mx/lib/fpu64\libxcpp.a(strrchr.o)
 .bss           0x00000000        0x0 c:/program files (x86)/microchip/xc32/v2.15/bin/bin/../../lib/gcc/pic32mx/4.8.3/../../../../pic32mx/lib/fpu64\libxcpp.a(strrchr.o)
 .reginfo       0x00000000       0x18 c:/program files (x86)/microchip/xc32/v2.15/bin/bin/../../lib/gcc/pic32mx/4.8.3/../../../../pic32mx/lib/fpu64\libxcpp.a(strrchr.o)
 .text          0x00000000        0x0 c:/program files (x86)/microchip/xc32/v2.15/bin/bin/../../lib/gcc/pic32mx/4.8.3/../../../../pic32mx/lib/fpu64\libxcpp.a(xctype.o)
 .bss           0x00000000        0x4 c:/program files (x86)/microchip/xc32/v2.15/bin/bin/../../lib/gcc/pic32mx/4.8.3/../../../../pic32mx/lib/fpu64\libxcpp.a(xctype.o)
 .reginfo       0x00000000       0x18 c:/program files (x86)/microchip/xc32/v2.15/bin/bin/../../lib/gcc/pic32mx/4.8.3/../../../../pic32mx/lib/fpu64\libxcpp.a(xctype.o)
 .text._Getpctype
                0x00000000       0x3c c:/program files (x86)/microchip/xc32/v2.15/bin/bin/../../lib/gcc/pic32mx/4.8.3/../../../../pic32mx/lib/fpu64\libxcpp.a(xctype.o)
 .text          0x00000000        0x0 c:/program files (x86)/microchip/xc32/v2.15/bin/bin/../../lib/gcc/pic32mx/4.8.3/../../../../pic32mx/lib/fpu64\libxcpp.a(xfiles.o)
 .reginfo       0x00000000       0x18 c:/program files (x86)/microchip/xc32/v2.15/bin/bin/../../lib/gcc/pic32mx/4.8.3/../../../../pic32mx/lib/fpu64\libxcpp.a(xfiles.o)
 .text          0x00000000        0x0 c:/program files (x86)/microchip/xc32/v2.15/bin/bin/../../lib/gcc/pic32mx/4.8.3/../../../../pic32mx/lib/fpu64\libxcpp.a(xfwprep.o)
 .data          0x00000000        0x0 c:/program files (x86)/microchip/xc32/v2.15/bin/bin/../../lib/gcc/pic32mx/4.8.3/../../../../pic32mx/lib/fpu64\libxcpp.a(xfwprep.o)
 .bss           0x00000000        0x0 c:/program files (x86)/microchip/xc32/v2.15/bin/bin/../../lib/gcc/pic32mx/4.8.3/../../../../pic32mx/lib/fpu64\libxcpp.a(xfwprep.o)
 .reginfo       0x00000000       0x18 c:/program files (x86)/microchip/xc32/v2.15/bin/bin/../../lib/gcc/pic32mx/4.8.3/../../../../pic32mx/lib/fpu64\libxcpp.a(xfwprep.o)
 .text          0x00000000        0x0 c:/program files (x86)/microchip/xc32/v2.15/bin/bin/../../lib/gcc/pic32mx/4.8.3/../../../../pic32mx/lib/fpu64\libxcpp.a(xldtob.o)
 .bss           0x00000000        0x0 c:/program files (x86)/microchip/xc32/v2.15/bin/bin/../../lib/gcc/pic32mx/4.8.3/../../../../pic32mx/lib/fpu64\libxcpp.a(xldtob.o)
 .reginfo       0x00000000       0x18 c:/program files (x86)/microchip/xc32/v2.15/bin/bin/../../lib/gcc/pic32mx/4.8.3/../../../../pic32mx/lib/fpu64\libxcpp.a(xldtob.o)
 .text          0x00000000        0x0 c:/program files (x86)/microchip/xc32/v2.15/bin/bin/../../lib/gcc/pic32mx/4.8.3/../../../../pic32mx/lib/fpu64\libxcpp.a(xldunsca.o)
 .data          0x00000000        0x0 c:/program files (x86)/microchip/xc32/v2.15/bin/bin/../../lib/gcc/pic32mx/4.8.3/../../../../pic32mx/lib/fpu64\libxcpp.a(xldunsca.o)
 .bss           0x00000000        0x0 c:/program files (x86)/microchip/xc32/v2.15/bin/bin/../../lib/gcc/pic32mx/4.8.3/../../../../pic32mx/lib/fpu64\libxcpp.a(xldunsca.o)
 .reginfo       0x00000000       0x18 c:/program files (x86)/microchip/xc32/v2.15/bin/bin/../../lib/gcc/pic32mx/4.8.3/../../../../pic32mx/lib/fpu64\libxcpp.a(xldunsca.o)
 .text          0x00000000        0x0 c:/program files (x86)/microchip/xc32/v2.15/bin/bin/../../lib/gcc/pic32mx/4.8.3/../../../../pic32mx/lib/fpu64\libxcpp.a(xlitob.o)
 .data          0x00000000        0x0 c:/program files (x86)/microchip/xc32/v2.15/bin/bin/../../lib/gcc/pic32mx/4.8.3/../../../../pic32mx/lib/fpu64\libxcpp.a(xlitob.o)
 .bss           0x00000000        0x0 c:/program files (x86)/microchip/xc32/v2.15/bin/bin/../../lib/gcc/pic32mx/4.8.3/../../../../pic32mx/lib/fpu64\libxcpp.a(xlitob.o)
 .reginfo       0x00000000       0x18 c:/program files (x86)/microchip/xc32/v2.15/bin/bin/../../lib/gcc/pic32mx/4.8.3/../../../../pic32mx/lib/fpu64\libxcpp.a(xlitob.o)
 .text          0x00000000        0x0 c:/program files (x86)/microchip/xc32/v2.15/bin/bin/../../lib/gcc/pic32mx/4.8.3/../../../../pic32mx/lib/fpu64\libxcpp.a(xlprec.o)
 .data          0x00000000        0x0 c:/program files (x86)/microchip/xc32/v2.15/bin/bin/../../lib/gcc/pic32mx/4.8.3/../../../../pic32mx/lib/fpu64\libxcpp.a(xlprec.o)
 .bss           0x00000000        0x0 c:/program files (x86)/microchip/xc32/v2.15/bin/bin/../../lib/gcc/pic32mx/4.8.3/../../../../pic32mx/lib/fpu64\libxcpp.a(xlprec.o)
 .reginfo       0x00000000       0x18 c:/program files (x86)/microchip/xc32/v2.15/bin/bin/../../lib/gcc/pic32mx/4.8.3/../../../../pic32mx/lib/fpu64\libxcpp.a(xlprec.o)
 .text._LXp_getw
                0x00000000       0x60 c:/program files (x86)/microchip/xc32/v2.15/bin/bin/../../lib/gcc/pic32mx/4.8.3/../../../../pic32mx/lib/fpu64\libxcpp.a(xlprec.o)
 .text._LXp_subx
                0x00000000       0xe0 c:/program files (x86)/microchip/xc32/v2.15/bin/bin/../../lib/gcc/pic32mx/4.8.3/../../../../pic32mx/lib/fpu64\libxcpp.a(xlprec.o)
 .text._LXp_ldexpx
                0x00000000       0x98 c:/program files (x86)/microchip/xc32/v2.15/bin/bin/../../lib/gcc/pic32mx/4.8.3/../../../../pic32mx/lib/fpu64\libxcpp.a(xlprec.o)
 .text._LXp_invx
                0x00000000      0x1e8 c:/program files (x86)/microchip/xc32/v2.15/bin/bin/../../lib/gcc/pic32mx/4.8.3/../../../../pic32mx/lib/fpu64\libxcpp.a(xlprec.o)
 .text._LXp_sqrtx
                0x00000000      0x210 c:/program files (x86)/microchip/xc32/v2.15/bin/bin/../../lib/gcc/pic32mx/4.8.3/../../../../pic32mx/lib/fpu64\libxcpp.a(xlprec.o)
 .rodata        0x00000000       0x20 c:/program files (x86)/microchip/xc32/v2.15/bin/bin/../../lib/gcc/pic32mx/4.8.3/../../../../pic32mx/lib/fpu64\libxcpp.a(xlprec.o)
 .text          0x00000000        0x0 c:/program files (x86)/microchip/xc32/v2.15/bin/bin/../../lib/gcc/pic32mx/4.8.3/../../../../pic32mx/lib/fpu64\libxcpp.a(xlvalues.o)
 .bss           0x00000000        0x8 c:/program files (x86)/microchip/xc32/v2.15/bin/bin/../../lib/gcc/pic32mx/4.8.3/../../../../pic32mx/lib/fpu64\libxcpp.a(xlvalues.o)
 .reginfo       0x00000000       0x18 c:/program files (x86)/microchip/xc32/v2.15/bin/bin/../../lib/gcc/pic32mx/4.8.3/../../../../pic32mx/lib/fpu64\libxcpp.a(xlvalues.o)
 .text          0x00000000        0x0 c:/program files (x86)/microchip/xc32/v2.15/bin/bin/../../lib/gcc/pic32mx/4.8.3/../../../../pic32mx/lib/fpu64\libxcpp.a(xmbtowc.o)
 .data          0x00000000        0x0 c:/program files (x86)/microchip/xc32/v2.15/bin/bin/../../lib/gcc/pic32mx/4.8.3/../../../../pic32mx/lib/fpu64\libxcpp.a(xmbtowc.o)
 .bss           0x00000000        0x0 c:/program files (x86)/microchip/xc32/v2.15/bin/bin/../../lib/gcc/pic32mx/4.8.3/../../../../pic32mx/lib/fpu64\libxcpp.a(xmbtowc.o)
 .reginfo       0x00000000       0x18 c:/program files (x86)/microchip/xc32/v2.15/bin/bin/../../lib/gcc/pic32mx/4.8.3/../../../../pic32mx/lib/fpu64\libxcpp.a(xmbtowc.o)
 .text          0x00000000        0x0 c:/program files (x86)/microchip/xc32/v2.15/bin/bin/../../lib/gcc/pic32mx/4.8.3/../../../../pic32mx/lib/fpu64\libxcpp.a(xwcstate.o)
 .data          0x00000000        0x0 c:/program files (x86)/microchip/xc32/v2.15/bin/bin/../../lib/gcc/pic32mx/4.8.3/../../../../pic32mx/lib/fpu64\libxcpp.a(xwcstate.o)
 .reginfo       0x00000000       0x18 c:/program files (x86)/microchip/xc32/v2.15/bin/bin/../../lib/gcc/pic32mx/4.8.3/../../../../pic32mx/lib/fpu64\libxcpp.a(xwcstate.o)
 .text._Getpwcstate
                0x00000000       0x3c c:/program files (x86)/microchip/xc32/v2.15/bin/bin/../../lib/gcc/pic32mx/4.8.3/../../../../pic32mx/lib/fpu64\libxcpp.a(xwcstate.o)
 .text          0x00000000        0x0 c:/program files (x86)/microchip/xc32/v2.15/bin/bin/../../lib/gcc/pic32mx/4.8.3/../../../../pic32mx/lib/fpu64\libxcpp.a(strnlen_s.o)
 .data          0x00000000        0x0 c:/program files (x86)/microchip/xc32/v2.15/bin/bin/../../lib/gcc/pic32mx/4.8.3/../../../../pic32mx/lib/fpu64\libxcpp.a(strnlen_s.o)
 .bss           0x00000000        0x0 c:/program files (x86)/microchip/xc32/v2.15/bin/bin/../../lib/gcc/pic32mx/4.8.3/../../../../pic32mx/lib/fpu64\libxcpp.a(strnlen_s.o)
 .reginfo       0x00000000       0x18 c:/program files (x86)/microchip/xc32/v2.15/bin/bin/../../lib/gcc/pic32mx/4.8.3/../../../../pic32mx/lib/fpu64\libxcpp.a(strnlen_s.o)
 .text          0x00000000        0x0 c:/program files (x86)/microchip/xc32/v2.15/bin/bin/../../lib/gcc/pic32mx/4.8.3/../../../../pic32mx/lib/fpu64\libxcpp.a(fclose.o)
 .data          0x00000000        0x0 c:/program files (x86)/microchip/xc32/v2.15/bin/bin/../../lib/gcc/pic32mx/4.8.3/../../../../pic32mx/lib/fpu64\libxcpp.a(fclose.o)
 .reginfo       0x00000000       0x18 c:/program files (x86)/microchip/xc32/v2.15/bin/bin/../../lib/gcc/pic32mx/4.8.3/../../../../pic32mx/lib/fpu64\libxcpp.a(fclose.o)
 .text          0x00000000        0x0 c:/program files (x86)/microchip/xc32/v2.15/bin/bin/../../lib/gcc/pic32mx/4.8.3/../../../../pic32mx/lib/fpu64\libxcpp.a(fflush.o)
 .data          0x00000000        0x0 c:/program files (x86)/microchip/xc32/v2.15/bin/bin/../../lib/gcc/pic32mx/4.8.3/../../../../pic32mx/lib/fpu64\libxcpp.a(fflush.o)
 .bss           0x00000000        0x0 c:/program files (x86)/microchip/xc32/v2.15/bin/bin/../../lib/gcc/pic32mx/4.8.3/../../../../pic32mx/lib/fpu64\libxcpp.a(fflush.o)
 .reginfo       0x00000000       0x18 c:/program files (x86)/microchip/xc32/v2.15/bin/bin/../../lib/gcc/pic32mx/4.8.3/../../../../pic32mx/lib/fpu64\libxcpp.a(fflush.o)
 .text          0x00000000        0x0 c:/program files (x86)/microchip/xc32/v2.15/bin/bin/../../lib/gcc/pic32mx/4.8.3/../../../../pic32mx/lib/fpu64\libxcpp.a(ldexpl.o)
 .data          0x00000000        0x0 c:/program files (x86)/microchip/xc32/v2.15/bin/bin/../../lib/gcc/pic32mx/4.8.3/../../../../pic32mx/lib/fpu64\libxcpp.a(ldexpl.o)
 .bss           0x00000000        0x0 c:/program files (x86)/microchip/xc32/v2.15/bin/bin/../../lib/gcc/pic32mx/4.8.3/../../../../pic32mx/lib/fpu64\libxcpp.a(ldexpl.o)
 .reginfo       0x00000000       0x18 c:/program files (x86)/microchip/xc32/v2.15/bin/bin/../../lib/gcc/pic32mx/4.8.3/../../../../pic32mx/lib/fpu64\libxcpp.a(ldexpl.o)
 .text.ldexpl   0x00000000       0x70 c:/program files (x86)/microchip/xc32/v2.15/bin/bin/../../lib/gcc/pic32mx/4.8.3/../../../../pic32mx/lib/fpu64\libxcpp.a(ldexpl.o)
 .text          0x00000000        0x0 c:/program files (x86)/microchip/xc32/v2.15/bin/bin/../../lib/gcc/pic32mx/4.8.3/../../../../pic32mx/lib/fpu64\libxcpp.a(ldiv.o)
 .data          0x00000000        0x0 c:/program files (x86)/microchip/xc32/v2.15/bin/bin/../../lib/gcc/pic32mx/4.8.3/../../../../pic32mx/lib/fpu64\libxcpp.a(ldiv.o)
 .bss           0x00000000        0x0 c:/program files (x86)/microchip/xc32/v2.15/bin/bin/../../lib/gcc/pic32mx/4.8.3/../../../../pic32mx/lib/fpu64\libxcpp.a(ldiv.o)
 .reginfo       0x00000000       0x18 c:/program files (x86)/microchip/xc32/v2.15/bin/bin/../../lib/gcc/pic32mx/4.8.3/../../../../pic32mx/lib/fpu64\libxcpp.a(ldiv.o)
 .text          0x00000000        0x0 c:/program files (x86)/microchip/xc32/v2.15/bin/bin/../../lib/gcc/pic32mx/4.8.3/../../../../pic32mx/lib/fpu64\libxcpp.a(remove.o)
 .data          0x00000000        0x0 c:/program files (x86)/microchip/xc32/v2.15/bin/bin/../../lib/gcc/pic32mx/4.8.3/../../../../pic32mx/lib/fpu64\libxcpp.a(remove.o)
 .bss           0x00000000        0x0 c:/program files (x86)/microchip/xc32/v2.15/bin/bin/../../lib/gcc/pic32mx/4.8.3/../../../../pic32mx/lib/fpu64\libxcpp.a(remove.o)
 .reginfo       0x00000000       0x18 c:/program files (x86)/microchip/xc32/v2.15/bin/bin/../../lib/gcc/pic32mx/4.8.3/../../../../pic32mx/lib/fpu64\libxcpp.a(remove.o)
 .text          0x00000000        0x0 c:/program files (x86)/microchip/xc32/v2.15/bin/bin/../../lib/gcc/pic32mx/4.8.3/../../../../pic32mx/lib/fpu64\libxcpp.a(sqrtl.o)
 .data          0x00000000        0x0 c:/program files (x86)/microchip/xc32/v2.15/bin/bin/../../lib/gcc/pic32mx/4.8.3/../../../../pic32mx/lib/fpu64\libxcpp.a(sqrtl.o)
 .bss           0x00000000        0x0 c:/program files (x86)/microchip/xc32/v2.15/bin/bin/../../lib/gcc/pic32mx/4.8.3/../../../../pic32mx/lib/fpu64\libxcpp.a(sqrtl.o)
 .reginfo       0x00000000       0x18 c:/program files (x86)/microchip/xc32/v2.15/bin/bin/../../lib/gcc/pic32mx/4.8.3/../../../../pic32mx/lib/fpu64\libxcpp.a(sqrtl.o)
 .text.sqrtl    0x00000000      0x110 c:/program files (x86)/microchip/xc32/v2.15/bin/bin/../../lib/gcc/pic32mx/4.8.3/../../../../pic32mx/lib/fpu64\libxcpp.a(sqrtl.o)
 .rodata        0x00000000       0x28 c:/program files (x86)/microchip/xc32/v2.15/bin/bin/../../lib/gcc/pic32mx/4.8.3/../../../../pic32mx/lib/fpu64\libxcpp.a(sqrtl.o)
 .text          0x00000000        0x0 c:/program files (x86)/microchip/xc32/v2.15/bin/bin/../../lib/gcc/pic32mx/4.8.3/../../../../pic32mx/lib/fpu64\libxcpp.a(xatexit.o)
 .data          0x00000000        0x0 c:/program files (x86)/microchip/xc32/v2.15/bin/bin/../../lib/gcc/pic32mx/4.8.3/../../../../pic32mx/lib/fpu64\libxcpp.a(xatexit.o)
 .bss           0x00000000        0x0 c:/program files (x86)/microchip/xc32/v2.15/bin/bin/../../lib/gcc/pic32mx/4.8.3/../../../../pic32mx/lib/fpu64\libxcpp.a(xatexit.o)
 .reginfo       0x00000000       0x18 c:/program files (x86)/microchip/xc32/v2.15/bin/bin/../../lib/gcc/pic32mx/4.8.3/../../../../pic32mx/lib/fpu64\libxcpp.a(xatexit.o)
 .text          0x00000000        0x0 c:/program files (x86)/microchip/xc32/v2.15/bin/bin/../../lib/gcc/pic32mx/4.8.3/../../../../pic32mx/lib/fpu64\libxcpp.a(xdunscal.o)
 .data          0x00000000        0x0 c:/program files (x86)/microchip/xc32/v2.15/bin/bin/../../lib/gcc/pic32mx/4.8.3/../../../../pic32mx/lib/fpu64\libxcpp.a(xdunscal.o)
 .bss           0x00000000        0x0 c:/program files (x86)/microchip/xc32/v2.15/bin/bin/../../lib/gcc/pic32mx/4.8.3/../../../../pic32mx/lib/fpu64\libxcpp.a(xdunscal.o)
 .reginfo       0x00000000       0x18 c:/program files (x86)/microchip/xc32/v2.15/bin/bin/../../lib/gcc/pic32mx/4.8.3/../../../../pic32mx/lib/fpu64\libxcpp.a(xdunscal.o)
 .text          0x00000000        0x0 c:/program files (x86)/microchip/xc32/v2.15/bin/bin/../../lib/gcc/pic32mx/4.8.3/../../../../pic32mx/lib/fpu64\libxcpp.a(xferaise.o)
 .data          0x00000000        0x0 c:/program files (x86)/microchip/xc32/v2.15/bin/bin/../../lib/gcc/pic32mx/4.8.3/../../../../pic32mx/lib/fpu64\libxcpp.a(xferaise.o)
 .bss           0x00000000        0x0 c:/program files (x86)/microchip/xc32/v2.15/bin/bin/../../lib/gcc/pic32mx/4.8.3/../../../../pic32mx/lib/fpu64\libxcpp.a(xferaise.o)
 .reginfo       0x00000000       0x18 c:/program files (x86)/microchip/xc32/v2.15/bin/bin/../../lib/gcc/pic32mx/4.8.3/../../../../pic32mx/lib/fpu64\libxcpp.a(xferaise.o)
 .text          0x00000000        0x0 c:/program files (x86)/microchip/xc32/v2.15/bin/bin/../../lib/gcc/pic32mx/4.8.3/../../../../pic32mx/lib/fpu64\libxcpp.a(xfofind.o)
 .data          0x00000000        0x0 c:/program files (x86)/microchip/xc32/v2.15/bin/bin/../../lib/gcc/pic32mx/4.8.3/../../../../pic32mx/lib/fpu64\libxcpp.a(xfofind.o)
 .bss           0x00000000        0x0 c:/program files (x86)/microchip/xc32/v2.15/bin/bin/../../lib/gcc/pic32mx/4.8.3/../../../../pic32mx/lib/fpu64\libxcpp.a(xfofind.o)
 .reginfo       0x00000000       0x18 c:/program files (x86)/microchip/xc32/v2.15/bin/bin/../../lib/gcc/pic32mx/4.8.3/../../../../pic32mx/lib/fpu64\libxcpp.a(xfofind.o)
 .text._Fofind  0x00000000       0xb4 c:/program files (x86)/microchip/xc32/v2.15/bin/bin/../../lib/gcc/pic32mx/4.8.3/../../../../pic32mx/lib/fpu64\libxcpp.a(xfofind.o)
 .text          0x00000000        0x0 c:/program files (x86)/microchip/xc32/v2.15/bin/bin/../../lib/gcc/pic32mx/4.8.3/../../../../pic32mx/lib/fpu64\libxcpp.a(xgenld.o)
 .data          0x00000000        0x0 c:/program files (x86)/microchip/xc32/v2.15/bin/bin/../../lib/gcc/pic32mx/4.8.3/../../../../pic32mx/lib/fpu64\libxcpp.a(xgenld.o)
 .bss           0x00000000        0x0 c:/program files (x86)/microchip/xc32/v2.15/bin/bin/../../lib/gcc/pic32mx/4.8.3/../../../../pic32mx/lib/fpu64\libxcpp.a(xgenld.o)
 .reginfo       0x00000000       0x18 c:/program files (x86)/microchip/xc32/v2.15/bin/bin/../../lib/gcc/pic32mx/4.8.3/../../../../pic32mx/lib/fpu64\libxcpp.a(xgenld.o)
 .text          0x00000000        0x0 c:/program files (x86)/microchip/xc32/v2.15/bin/bin/../../lib/gcc/pic32mx/4.8.3/../../../../pic32mx/lib/fpu64\libxcpp.a(xldint.o)
 .data          0x00000000        0x0 c:/program files (x86)/microchip/xc32/v2.15/bin/bin/../../lib/gcc/pic32mx/4.8.3/../../../../pic32mx/lib/fpu64\libxcpp.a(xldint.o)
 .bss           0x00000000        0x0 c:/program files (x86)/microchip/xc32/v2.15/bin/bin/../../lib/gcc/pic32mx/4.8.3/../../../../pic32mx/lib/fpu64\libxcpp.a(xldint.o)
 .reginfo       0x00000000       0x18 c:/program files (x86)/microchip/xc32/v2.15/bin/bin/../../lib/gcc/pic32mx/4.8.3/../../../../pic32mx/lib/fpu64\libxcpp.a(xldint.o)
 .text          0x00000000        0x0 c:/program files (x86)/microchip/xc32/v2.15/bin/bin/../../lib/gcc/pic32mx/4.8.3/../../../../pic32mx/lib/fpu64\libxcpp.a(xldscale.o)
 .data          0x00000000        0x0 c:/program files (x86)/microchip/xc32/v2.15/bin/bin/../../lib/gcc/pic32mx/4.8.3/../../../../pic32mx/lib/fpu64\libxcpp.a(xldscale.o)
 .bss           0x00000000        0x0 c:/program files (x86)/microchip/xc32/v2.15/bin/bin/../../lib/gcc/pic32mx/4.8.3/../../../../pic32mx/lib/fpu64\libxcpp.a(xldscale.o)
 .reginfo       0x00000000       0x18 c:/program files (x86)/microchip/xc32/v2.15/bin/bin/../../lib/gcc/pic32mx/4.8.3/../../../../pic32mx/lib/fpu64\libxcpp.a(xldscale.o)
 .text          0x00000000        0x0 c:/program files (x86)/microchip/xc32/v2.15/bin/bin/../../lib/gcc/pic32mx/4.8.3/../../../../pic32mx/lib/fpu64\libxcpp.a(xldtest.o)
 .data          0x00000000        0x0 c:/program files (x86)/microchip/xc32/v2.15/bin/bin/../../lib/gcc/pic32mx/4.8.3/../../../../pic32mx/lib/fpu64\libxcpp.a(xldtest.o)
 .bss           0x00000000        0x0 c:/program files (x86)/microchip/xc32/v2.15/bin/bin/../../lib/gcc/pic32mx/4.8.3/../../../../pic32mx/lib/fpu64\libxcpp.a(xldtest.o)
 .reginfo       0x00000000       0x18 c:/program files (x86)/microchip/xc32/v2.15/bin/bin/../../lib/gcc/pic32mx/4.8.3/../../../../pic32mx/lib/fpu64\libxcpp.a(xldtest.o)
 .data          0x00000000        0x0 c:/program files (x86)/microchip/xc32/v2.15/bin/bin/../../lib/gcc/pic32mx/4.8.3/../../../../pic32mx/lib/fpu64\libxcpp.a(feraiseexcept.o)
 .bss           0x00000000        0x0 c:/program files (x86)/microchip/xc32/v2.15/bin/bin/../../lib/gcc/pic32mx/4.8.3/../../../../pic32mx/lib/fpu64\libxcpp.a(feraiseexcept.o)
 .reginfo       0x00000000       0x18 c:/program files (x86)/microchip/xc32/v2.15/bin/bin/../../lib/gcc/pic32mx/4.8.3/../../../../pic32mx/lib/fpu64\libxcpp.a(feraiseexcept.o)
 .bss           0x00000000        0x0 c:/program files (x86)/microchip/xc32/v2.15/bin/bin/../../lib/gcc/pic32mx/4.8.3/../../../../pic32mx/lib/fpu64\libxcpp.a(fesetenv.o)
 .reginfo       0x00000000       0x18 c:/program files (x86)/microchip/xc32/v2.15/bin/bin/../../lib/gcc/pic32mx/4.8.3/../../../../pic32mx/lib/fpu64\libxcpp.a(fesetenv.o)
 .text          0x00000000        0x0 c:/program files (x86)/microchip/xc32/v2.15/bin/bin/../../lib/gcc/pic32mx/4.8.3/../../../../pic32mx/lib/fpu64\libxcpp.a(div.o)
 .data          0x00000000        0x0 c:/program files (x86)/microchip/xc32/v2.15/bin/bin/../../lib/gcc/pic32mx/4.8.3/../../../../pic32mx/lib/fpu64\libxcpp.a(div.o)
 .bss           0x00000000        0x0 c:/program files (x86)/microchip/xc32/v2.15/bin/bin/../../lib/gcc/pic32mx/4.8.3/../../../../pic32mx/lib/fpu64\libxcpp.a(div.o)
 .reginfo       0x00000000       0x18 c:/program files (x86)/microchip/xc32/v2.15/bin/bin/../../lib/gcc/pic32mx/4.8.3/../../../../pic32mx/lib/fpu64\libxcpp.a(div.o)
 .text          0x00000000        0x0 c:/program files (x86)/microchip/xc32/v2.15/bin/bin/../../lib/gcc/pic32mx/4.8.3/../../../../pic32mx/lib/fpu64\libxcpp.a(localeco.o)
 .bss           0x00000000        0x4 c:/program files (x86)/microchip/xc32/v2.15/bin/bin/../../lib/gcc/pic32mx/4.8.3/../../../../pic32mx/lib/fpu64\libxcpp.a(localeco.o)
 .reginfo       0x00000000       0x18 c:/program files (x86)/microchip/xc32/v2.15/bin/bin/../../lib/gcc/pic32mx/4.8.3/../../../../pic32mx/lib/fpu64\libxcpp.a(localeco.o)
 .text          0x00000000        0x0 c:/program files (x86)/microchip/xc32/v2.15/bin/bin/../../lib/gcc/pic32mx/4.8.3/../../../../pic32mx/lib/fpu64\libxcpp.a(xdint.o)
 .data          0x00000000        0x0 c:/program files (x86)/microchip/xc32/v2.15/bin/bin/../../lib/gcc/pic32mx/4.8.3/../../../../pic32mx/lib/fpu64\libxcpp.a(xdint.o)
 .bss           0x00000000        0x0 c:/program files (x86)/microchip/xc32/v2.15/bin/bin/../../lib/gcc/pic32mx/4.8.3/../../../../pic32mx/lib/fpu64\libxcpp.a(xdint.o)
 .reginfo       0x00000000       0x18 c:/program files (x86)/microchip/xc32/v2.15/bin/bin/../../lib/gcc/pic32mx/4.8.3/../../../../pic32mx/lib/fpu64\libxcpp.a(xdint.o)
 .text          0x00000000        0x0 c:/program files (x86)/microchip/xc32/v2.15/bin/bin/../../lib/gcc/pic32mx/4.8.3/../../../../pic32mx/lib/fpu64\libxcpp.a(xdnorm.o)
 .data          0x00000000        0x0 c:/program files (x86)/microchip/xc32/v2.15/bin/bin/../../lib/gcc/pic32mx/4.8.3/../../../../pic32mx/lib/fpu64\libxcpp.a(xdnorm.o)
 .bss           0x00000000        0x0 c:/program files (x86)/microchip/xc32/v2.15/bin/bin/../../lib/gcc/pic32mx/4.8.3/../../../../pic32mx/lib/fpu64\libxcpp.a(xdnorm.o)
 .reginfo       0x00000000       0x18 c:/program files (x86)/microchip/xc32/v2.15/bin/bin/../../lib/gcc/pic32mx/4.8.3/../../../../pic32mx/lib/fpu64\libxcpp.a(xdnorm.o)
 .text          0x00000000        0x0 c:/program files (x86)/microchip/xc32/v2.15/bin/bin/../../lib/gcc/pic32mx/4.8.3/../../../../pic32mx/lib/fpu64\libxcpp.a(xdscale.o)
 .data          0x00000000        0x0 c:/program files (x86)/microchip/xc32/v2.15/bin/bin/../../lib/gcc/pic32mx/4.8.3/../../../../pic32mx/lib/fpu64\libxcpp.a(xdscale.o)
 .bss           0x00000000        0x0 c:/program files (x86)/microchip/xc32/v2.15/bin/bin/../../lib/gcc/pic32mx/4.8.3/../../../../pic32mx/lib/fpu64\libxcpp.a(xdscale.o)
 .reginfo       0x00000000       0x18 c:/program files (x86)/microchip/xc32/v2.15/bin/bin/../../lib/gcc/pic32mx/4.8.3/../../../../pic32mx/lib/fpu64\libxcpp.a(xdscale.o)
 .text          0x00000000        0x0 c:/program files (x86)/microchip/xc32/v2.15/bin/bin/../../lib/gcc/pic32mx/4.8.3/../../../../pic32mx/lib/fpu64\libxcpp.a(xdtest.o)
 .data          0x00000000        0x0 c:/program files (x86)/microchip/xc32/v2.15/bin/bin/../../lib/gcc/pic32mx/4.8.3/../../../../pic32mx/lib/fpu64\libxcpp.a(xdtest.o)
 .bss           0x00000000        0x0 c:/program files (x86)/microchip/xc32/v2.15/bin/bin/../../lib/gcc/pic32mx/4.8.3/../../../../pic32mx/lib/fpu64\libxcpp.a(xdtest.o)
 .reginfo       0x00000000       0x18 c:/program files (x86)/microchip/xc32/v2.15/bin/bin/../../lib/gcc/pic32mx/4.8.3/../../../../pic32mx/lib/fpu64\libxcpp.a(xdtest.o)
 .text          0x00000000        0x0 c:/program files (x86)/microchip/xc32/v2.15/bin/bin/../../lib/gcc/pic32mx/4.8.3/../../../../pic32mx/lib/fpu64\libxcpp.a(xvalues.o)
 .bss           0x00000000        0x4 c:/program files (x86)/microchip/xc32/v2.15/bin/bin/../../lib/gcc/pic32mx/4.8.3/../../../../pic32mx/lib/fpu64\libxcpp.a(xvalues.o)
 .reginfo       0x00000000       0x18 c:/program files (x86)/microchip/xc32/v2.15/bin/bin/../../lib/gcc/pic32mx/4.8.3/../../../../pic32mx/lib/fpu64\libxcpp.a(xvalues.o)
 .data          0x00000000        0x0 c:/program files (x86)/microchip/xc32/v2.15/bin/bin/../../lib/gcc/pic32mx/4.8.3/../../../../pic32mx/lib/fpu64\libxcpp.a(fegetenv.o)
 .bss           0x00000000        0x0 c:/program files (x86)/microchip/xc32/v2.15/bin/bin/../../lib/gcc/pic32mx/4.8.3/../../../../pic32mx/lib/fpu64\libxcpp.a(fegetenv.o)
 .reginfo       0x00000000       0x18 c:/program files (x86)/microchip/xc32/v2.15/bin/bin/../../lib/gcc/pic32mx/4.8.3/../../../../pic32mx/lib/fpu64\libxcpp.a(fegetenv.o)
 .text          0x00000000        0x0 c:/program files (x86)/microchip/xc32/v2.15/bin/bin/../../lib/gcc/pic32mx/4.8.3/../../../../pic32mx/lib/fpu64\libpic32.a(sbrk.o)
 .data          0x00000000        0x0 c:/program files (x86)/microchip/xc32/v2.15/bin/bin/../../lib/gcc/pic32mx/4.8.3/../../../../pic32mx/lib/fpu64\libpic32.a(sbrk.o)
 .reginfo       0x00000000       0x18 c:/program files (x86)/microchip/xc32/v2.15/bin/bin/../../lib/gcc/pic32mx/4.8.3/../../../../pic32mx/lib/fpu64\libpic32.a(sbrk.o)
 .text.getpagesize
                0x00000000        0x8 c:/program files (x86)/microchip/xc32/v2.15/bin/bin/../../lib/gcc/pic32mx/4.8.3/../../../../pic32mx/lib/fpu64\libpic32.a(sbrk.o)
 .text          0x00000000        0x0 c:/program files (x86)/microchip/xc32/v2.15/bin/bin/../../lib/gcc/pic32mx/4.8.3/../../../../pic32mx/lib/fpu64\libpic32.a(_exit.o)
 .data          0x00000000        0x0 c:/program files (x86)/microchip/xc32/v2.15/bin/bin/../../lib/gcc/pic32mx/4.8.3/../../../../pic32mx/lib/fpu64\libpic32.a(_exit.o)
 .bss           0x00000000        0x0 c:/program files (x86)/microchip/xc32/v2.15/bin/bin/../../lib/gcc/pic32mx/4.8.3/../../../../pic32mx/lib/fpu64\libpic32.a(_exit.o)
 .reginfo       0x00000000       0x18 c:/program files (x86)/microchip/xc32/v2.15/bin/bin/../../lib/gcc/pic32mx/4.8.3/../../../../pic32mx/lib/fpu64\libpic32.a(_exit.o)
 .text          0x00000000        0x0 c:/program files (x86)/microchip/xc32/v2.15/bin/bin/../../lib/gcc/pic32mx/4.8.3/../../../../pic32mx/lib/fpu64\libpic32.a(isatty.o)
 .data          0x00000000        0x0 c:/program files (x86)/microchip/xc32/v2.15/bin/bin/../../lib/gcc/pic32mx/4.8.3/../../../../pic32mx/lib/fpu64\libpic32.a(isatty.o)
 .bss           0x00000000        0x0 c:/program files (x86)/microchip/xc32/v2.15/bin/bin/../../lib/gcc/pic32mx/4.8.3/../../../../pic32mx/lib/fpu64\libpic32.a(isatty.o)
 .reginfo       0x00000000       0x18 c:/program files (x86)/microchip/xc32/v2.15/bin/bin/../../lib/gcc/pic32mx/4.8.3/../../../../pic32mx/lib/fpu64\libpic32.a(isatty.o)
 .text          0x00000000        0x0 c:/program files (x86)/microchip/xc32/v2.15/bin/bin/../../lib/gcc/pic32mx/4.8.3/../../../../pic32mx/lib/fpu64\libpic32.a(write.o)
 .data          0x00000000        0x0 c:/program files (x86)/microchip/xc32/v2.15/bin/bin/../../lib/gcc/pic32mx/4.8.3/../../../../pic32mx/lib/fpu64\libpic32.a(write.o)
 .bss           0x00000000        0x0 c:/program files (x86)/microchip/xc32/v2.15/bin/bin/../../lib/gcc/pic32mx/4.8.3/../../../../pic32mx/lib/fpu64\libpic32.a(write.o)
 .reginfo       0x00000000       0x18 c:/program files (x86)/microchip/xc32/v2.15/bin/bin/../../lib/gcc/pic32mx/4.8.3/../../../../pic32mx/lib/fpu64\libpic32.a(write.o)
 .text          0x00000000        0x0 c:/program files (x86)/microchip/xc32/v2.15/bin/bin/../../lib/gcc/pic32mx/4.8.3/../../../../pic32mx/lib/fpu64\libpic32.a(close.o)
 .data          0x00000000        0x0 c:/program files (x86)/microchip/xc32/v2.15/bin/bin/../../lib/gcc/pic32mx/4.8.3/../../../../pic32mx/lib/fpu64\libpic32.a(close.o)
 .bss           0x00000000        0x0 c:/program files (x86)/microchip/xc32/v2.15/bin/bin/../../lib/gcc/pic32mx/4.8.3/../../../../pic32mx/lib/fpu64\libpic32.a(close.o)
 .reginfo       0x00000000       0x18 c:/program files (x86)/microchip/xc32/v2.15/bin/bin/../../lib/gcc/pic32mx/4.8.3/../../../../pic32mx/lib/fpu64\libpic32.a(close.o)
 .text          0x00000000        0x0 c:/program files (x86)/microchip/xc32/v2.15/bin/bin/../../lib/gcc/pic32mx/4.8.3/../../../../pic32mx/lib/fpu64\libpic32.a(unlink.o)
 .data          0x00000000        0x0 c:/program files (x86)/microchip/xc32/v2.15/bin/bin/../../lib/gcc/pic32mx/4.8.3/../../../../pic32mx/lib/fpu64\libpic32.a(unlink.o)
 .bss           0x00000000        0x0 c:/program files (x86)/microchip/xc32/v2.15/bin/bin/../../lib/gcc/pic32mx/4.8.3/../../../../pic32mx/lib/fpu64\libpic32.a(unlink.o)
 .reginfo       0x00000000       0x18 c:/program files (x86)/microchip/xc32/v2.15/bin/bin/../../lib/gcc/pic32mx/4.8.3/../../../../pic32mx/lib/fpu64\libpic32.a(unlink.o)
 .text          0x00000000        0x0 c:/program files (x86)/microchip/xc32/v2.15/bin/bin/../../lib/gcc/pic32mx/4.8.3/../../../../pic32mx/lib/fpu64\libpic32.a(kill.o)
 .data          0x00000000        0x0 c:/program files (x86)/microchip/xc32/v2.15/bin/bin/../../lib/gcc/pic32mx/4.8.3/../../../../pic32mx/lib/fpu64\libpic32.a(kill.o)
 .bss           0x00000000        0x0 c:/program files (x86)/microchip/xc32/v2.15/bin/bin/../../lib/gcc/pic32mx/4.8.3/../../../../pic32mx/lib/fpu64\libpic32.a(kill.o)
 .reginfo       0x00000000       0x18 c:/program files (x86)/microchip/xc32/v2.15/bin/bin/../../lib/gcc/pic32mx/4.8.3/../../../../pic32mx/lib/fpu64\libpic32.a(kill.o)
 .text          0x00000000        0x0 c:/program files (x86)/microchip/xc32/v2.15/bin/bin/../../lib/gcc/pic32mx/4.8.3/../../../../pic32mx/lib/fpu64\libpic32.a(getpid.o)
 .data          0x00000000        0x0 c:/program files (x86)/microchip/xc32/v2.15/bin/bin/../../lib/gcc/pic32mx/4.8.3/../../../../pic32mx/lib/fpu64\libpic32.a(getpid.o)
 .bss           0x00000000        0x0 c:/program files (x86)/microchip/xc32/v2.15/bin/bin/../../lib/gcc/pic32mx/4.8.3/../../../../pic32mx/lib/fpu64\libpic32.a(getpid.o)
 .reginfo       0x00000000       0x18 c:/program files (x86)/microchip/xc32/v2.15/bin/bin/../../lib/gcc/pic32mx/4.8.3/../../../../pic32mx/lib/fpu64\libpic32.a(getpid.o)
 .text          0x00000000        0x0 c:/program files (x86)/microchip/xc32/v2.15/bin/bin/../../lib/gcc/pic32mx/4.8.3/../../../../pic32mx/lib/fpu64\libpic32.a(errno.o)
 .data          0x00000000        0x0 c:/program files (x86)/microchip/xc32/v2.15/bin/bin/../../lib/gcc/pic32mx/4.8.3/../../../../pic32mx/lib/fpu64\libpic32.a(errno.o)
 .bss           0x00000000        0x0 c:/program files (x86)/microchip/xc32/v2.15/bin/bin/../../lib/gcc/pic32mx/4.8.3/../../../../pic32mx/lib/fpu64\libpic32.a(errno.o)
 .reginfo       0x00000000       0x18 c:/program files (x86)/microchip/xc32/v2.15/bin/bin/../../lib/gcc/pic32mx/4.8.3/../../../../pic32mx/lib/fpu64\libpic32.a(errno.o)
 .text          0x00000000        0x0 c:/program files (x86)/microchip/xc32/v2.15/bin/bin/../../lib/gcc/pic32mx/4.8.3/../../../../pic32mx/lib/fpu64\libpic32.a(rmdir.o)
 .data          0x00000000        0x0 c:/program files (x86)/microchip/xc32/v2.15/bin/bin/../../lib/gcc/pic32mx/4.8.3/../../../../pic32mx/lib/fpu64\libpic32.a(rmdir.o)
 .bss           0x00000000        0x0 c:/program files (x86)/microchip/xc32/v2.15/bin/bin/../../lib/gcc/pic32mx/4.8.3/../../../../pic32mx/lib/fpu64\libpic32.a(rmdir.o)
 .reginfo       0x00000000       0x18 c:/program files (x86)/microchip/xc32/v2.15/bin/bin/../../lib/gcc/pic32mx/4.8.3/../../../../pic32mx/lib/fpu64\libpic32.a(rmdir.o)
 .data          0x00000000        0x0 c:/program files (x86)/microchip/xc32/v2.15/bin/bin/../../lib/gcc/pic32mx/4.8.3/fpu64\libgcc.a(_udivdi3.o)
 .bss           0x00000000        0x0 c:/program files (x86)/microchip/xc32/v2.15/bin/bin/../../lib/gcc/pic32mx/4.8.3/fpu64\libgcc.a(_udivdi3.o)
 .reginfo       0x00000000       0x18 c:/program files (x86)/microchip/xc32/v2.15/bin/bin/../../lib/gcc/pic32mx/4.8.3/fpu64\libgcc.a(_udivdi3.o)
 .data          0x00000000        0x0 c:/program files (x86)/microchip/xc32/v2.15/bin/bin/../../lib/gcc/pic32mx/4.8.3/fpu64\libgcc.a(_umoddi3.o)
 .bss           0x00000000        0x0 c:/program files (x86)/microchip/xc32/v2.15/bin/bin/../../lib/gcc/pic32mx/4.8.3/fpu64\libgcc.a(_umoddi3.o)
 .reginfo       0x00000000       0x18 c:/program files (x86)/microchip/xc32/v2.15/bin/bin/../../lib/gcc/pic32mx/4.8.3/fpu64\libgcc.a(_umoddi3.o)
 .data          0x00000000        0x4 c:/program files (x86)/microchip/xc32/v2.15/bin/bin/../../lib/gcc/pic32mx/4.8.3/fpu64/crtend.o
 .bss           0x00000000        0x0 c:/program files (x86)/microchip/xc32/v2.15/bin/bin/../../lib/gcc/pic32mx/4.8.3/fpu64/crtend.o
 .reginfo       0x00000000       0x18 c:/program files (x86)/microchip/xc32/v2.15/bin/bin/../../lib/gcc/pic32mx/4.8.3/fpu64/crtend.o
 .text          0x00000000        0x0 c:/program files (x86)/microchip/xc32/v2.15/bin/bin/../../lib/gcc/pic32mx/4.8.3/fpu64/crtn.o
 .data          0x00000000        0x0 c:/program files (x86)/microchip/xc32/v2.15/bin/bin/../../lib/gcc/pic32mx/4.8.3/fpu64/crtn.o
 .bss           0x00000000        0x0 c:/program files (x86)/microchip/xc32/v2.15/bin/bin/../../lib/gcc/pic32mx/4.8.3/fpu64/crtn.o
 .reginfo       0x00000000       0x18 c:/program files (x86)/microchip/xc32/v2.15/bin/bin/../../lib/gcc/pic32mx/4.8.3/fpu64/crtn.o

Memory Configuration

Name             Origin             Length             Attributes
kseg0_program_mem 0x9d000000         0x00200000         xr
kseg0_boot_mem   0x9fc004b0         0x00000000
kseg1_boot_mem   0xbfc00000         0x00000480
kseg1_boot_mem_4B0 0xbfc004b0         0x0000fa50
config_BFC0FF40  0xbfc0ff40         0x00000004
config_BFC0FF44  0xbfc0ff44         0x00000004
config_BFC0FF48  0xbfc0ff48         0x00000004
config_BFC0FF4C  0xbfc0ff4c         0x00000004
config_BFC0FF50  0xbfc0ff50         0x00000004
config_BFC0FF54  0xbfc0ff54         0x00000004
config_BFC0FF58  0xbfc0ff58         0x00000004
config_BFC0FF5C  0xbfc0ff5c         0x00000004
config_BFC0FF60  0xbfc0ff60         0x00000004
config_BFC0FF64  0xbfc0ff64         0x00000004
config_BFC0FF68  0xbfc0ff68         0x00000004
config_BFC0FF6C  0xbfc0ff6c         0x00000004
config_BFC0FF70  0xbfc0ff70         0x00000004
config_BFC0FF74  0xbfc0ff74         0x00000004
config_BFC0FF78  0xbfc0ff78         0x00000004
config_BFC0FF7C  0xbfc0ff7c         0x00000004
config_BFC0FFC0  0xbfc0ffc0         0x00000004
config_BFC0FFC4  0xbfc0ffc4         0x00000004
config_BFC0FFC8  0xbfc0ffc8         0x00000004
config_BFC0FFCC  0xbfc0ffcc         0x00000004
config_BFC0FFD0  0xbfc0ffd0         0x00000004
config_BFC0FFD4  0xbfc0ffd4         0x00000004
config_BFC0FFD8  0xbfc0ffd8         0x00000004
config_BFC0FFDC  0xbfc0ffdc         0x00000004
config_BFC0FFE0  0xbfc0ffe0         0x00000004
config_BFC0FFE4  0xbfc0ffe4         0x00000004
config_BFC0FFE8  0xbfc0ffe8         0x00000004
config_BFC0FFEC  0xbfc0ffec         0x00000004
config_BFC0FFF0  0xbfc0fff0         0x00000004
config_BFC0FFF4  0xbfc0fff4         0x00000004
config_BFC0FFF8  0xbfc0fff8         0x00000004
config_BFC0FFFC  0xbfc0fffc         0x00000004
lowerbootaliaslastpage 0xbfc10000         0x00004000
upperbootalias   0xbfc20000         0x0000ff00
config_BFC2FF40  0xbfc2ff40         0x00000004
config_BFC2FF44  0xbfc2ff44         0x00000004
config_BFC2FF48  0xbfc2ff48         0x00000004
config_BFC2FF4C  0xbfc2ff4c         0x00000004
config_BFC2FF50  0xbfc2ff50         0x00000004
config_BFC2FF54  0xbfc2ff54         0x00000004
config_BFC2FF58  0xbfc2ff58         0x00000004
config_BFC2FF5C  0xbfc2ff5c         0x00000004
config_BFC2FF60  0xbfc2ff60         0x00000004
config_BFC2FF64  0xbfc2ff64         0x00000004
config_BFC2FF68  0xbfc2ff68         0x00000004
config_BFC2FF6C  0xbfc2ff6c         0x00000004
config_BFC2FF70  0xbfc2ff70         0x00000004
config_BFC2FF74  0xbfc2ff74         0x00000004
config_BFC2FF78  0xbfc2ff78         0x00000004
config_BFC2FF7C  0xbfc2ff7c         0x00000004
config_BFC2FFC0  0xbfc2ffc0         0x00000004
config_BFC2FFC4  0xbfc2ffc4         0x00000004
config_BFC2FFC8  0xbfc2ffc8         0x00000004
config_BFC2FFCC  0xbfc2ffcc         0x00000004
config_BFC2FFD0  0xbfc2ffd0         0x00000004
config_BFC2FFD4  0xbfc2ffd4         0x00000004
config_BFC2FFD8  0xbfc2ffd8         0x00000004
config_BFC2FFDC  0xbfc2ffdc         0x00000004
config_BFC2FFE0  0xbfc2ffe0         0x00000004
config_BFC2FFE4  0xbfc2ffe4         0x00000004
config_BFC2FFE8  0xbfc2ffe8         0x00000004
config_BFC2FFEC  0xbfc2ffec         0x00000004
config_BFC2FFF0  0xbfc2fff0         0x00000004
config_BFC2FFF4  0xbfc2fff4         0x00000004
config_BFC2FFF8  0xbfc2fff8         0x00000004
config_BFC2FFFC  0xbfc2fffc         0x00000004
upperbootaliaslastpage 0xbfc30000         0x00004000
boot1            0xbfc40000         0x0000ff00
config_BFC4FF40  0xbfc4ff40         0x00000004
config_BFC4FF44  0xbfc4ff44         0x00000004
config_BFC4FF48  0xbfc4ff48         0x00000004
config_BFC4FF4C  0xbfc4ff4c         0x00000004
config_BFC4FF50  0xbfc4ff50         0x00000004
config_BFC4FF54  0xbfc4ff54         0x00000004
config_BFC4FF58  0xbfc4ff58         0x00000004
config_BFC4FF5C  0xbfc4ff5c         0x00000004
config_BFC4FF60  0xbfc4ff60         0x00000004
config_BFC4FF64  0xbfc4ff64         0x00000004
config_BFC4FF68  0xbfc4ff68         0x00000004
config_BFC4FF6C  0xbfc4ff6c         0x00000004
config_BFC4FF70  0xbfc4ff70         0x00000004
config_BFC4FF74  0xbfc4ff74         0x00000004
config_BFC4FF78  0xbfc4ff78         0x00000004
config_BFC4FF7C  0xbfc4ff7c         0x00000004
config_BFC4FFC0  0xbfc4ffc0         0x00000004
config_BFC4FFC4  0xbfc4ffc4         0x00000004
config_BFC4FFC8  0xbfc4ffc8         0x00000004
config_BFC4FFCC  0xbfc4ffcc         0x00000004
config_BFC4FFD0  0xbfc4ffd0         0x00000004
config_BFC4FFD4  0xbfc4ffd4         0x00000004
config_BFC4FFD8  0xbfc4ffd8         0x00000004
config_BFC4FFDC  0xbfc4ffdc         0x00000004
config_BFC4FFE0  0xbfc4ffe0         0x00000004
config_BFC4FFE4  0xbfc4ffe4         0x00000004
config_BFC4FFE8  0xbfc4ffe8         0x00000004
config_BFC4FFEC  0xbfc4ffec         0x00000004
config_BFC4FFF0  0xbfc4fff0         0x00000004
config_BFC4FFF4  0xbfc4fff4         0x00000004
config_BFC4FFF8  0xbfc4fff8         0x00000004
config_BFC4FFFC  0xbfc4fffc         0x00000004
boot1lastpage    0xbfc50000         0x00004000
config_BFC54000  0xbfc54000         0x00000004
config_BFC54004  0xbfc54004         0x00000004
config_BFC54008  0xbfc54008         0x00000004
config_BFC5400C  0xbfc5400c         0x00000004
config_BFC54010  0xbfc54010         0x00000004
config_BFC5401C  0xbfc5401c         0x00000004
config_BFC54020  0xbfc54020         0x00000004
config_BFC54024  0xbfc54024         0x00000004
boot2            0xbfc60000         0x0000ff00
config_BFC6FF40  0xbfc6ff40         0x00000004
config_BFC6FF44  0xbfc6ff44         0x00000004
config_BFC6FF48  0xbfc6ff48         0x00000004
config_BFC6FF4C  0xbfc6ff4c         0x00000004
config_BFC6FF50  0xbfc6ff50         0x00000004
config_BFC6FF54  0xbfc6ff54         0x00000004
config_BFC6FF58  0xbfc6ff58         0x00000004
config_BFC6FF5C  0xbfc6ff5c         0x00000004
config_BFC6FF60  0xbfc6ff60         0x00000004
config_BFC6FF64  0xbfc6ff64         0x00000004
config_BFC6FF68  0xbfc6ff68         0x00000004
config_BFC6FF6C  0xbfc6ff6c         0x00000004
config_BFC6FF70  0xbfc6ff70         0x00000004
config_BFC6FF74  0xbfc6ff74         0x00000004
config_BFC6FF78  0xbfc6ff78         0x00000004
config_BFC6FF7C  0xbfc6ff7c         0x00000004
config_BFC6FFC0  0xbfc6ffc0         0x00000004
config_BFC6FFC4  0xbfc6ffc4         0x00000004
config_BFC6FFC8  0xbfc6ffc8         0x00000004
config_BFC6FFCC  0xbfc6ffcc         0x00000004
config_BFC6FFD0  0xbfc6ffd0         0x00000004
config_BFC6FFD4  0xbfc6ffd4         0x00000004
config_BFC6FFD8  0xbfc6ffd8         0x00000004
config_BFC6FFDC  0xbfc6ffdc         0x00000004
config_BFC6FFE0  0xbfc6ffe0         0x00000004
config_BFC6FFE4  0xbfc6ffe4         0x00000004
config_BFC6FFE8  0xbfc6ffe8         0x00000004
config_BFC6FFEC  0xbfc6ffec         0x00000004
config_BFC6FFF0  0xbfc6fff0         0x00000004
config_BFC6FFF4  0xbfc6fff4         0x00000004
config_BFC6FFF8  0xbfc6fff8         0x00000004
config_BFC6FFFC  0xbfc6fffc         0x00000004
boot2lastpage    0xbfc70000         0x00004000
kseg0_data_mem   0x80000000         0x00080000         w !x
sfrs             0xbf800000         0x00100000
configsfrs_BFC0FF40 0xbfc0ff40         0x00000040
configsfrs_BFC0FFC0 0xbfc0ffc0         0x00000040
configsfrs_BFC2FF40 0xbfc2ff40         0x00000040
configsfrs_BFC2FFC0 0xbfc2ffc0         0x00000040
configsfrs_BFC4FF40 0xbfc4ff40         0x00000040
configsfrs_BFC4FFC0 0xbfc4ffc0         0x00000040
configsfrs_BFC54000 0xbfc54000         0x00000020
configsfrs_BFC6FF40 0xbfc6ff40         0x00000040
configsfrs_BFC6FFC0 0xbfc6ffc0         0x00000040
kseg2_ebi_data_mem 0xc0000000         0x04000000
kseg2_sqi_data_mem 0xd0000000         0x04000000
kseg3_ebi_data_mem 0xe0000000         0x04000000
kseg3_sqi_data_mem 0xf0000000         0x04000000
*default*        0x00000000         0xffffffff

Linker script and memory map

LOAD c:/program files (x86)/microchip/xc32/v2.15/bin/bin/../../lib/gcc/pic32mx/4.8.3/fpu64/crti.o
LOAD c:/program files (x86)/microchip/xc32/v2.15/bin/bin/../../lib/gcc/pic32mx/4.8.3/fpu64/crtbegin.o
LOAD build/default/production/_ext/694295097/bsp.o
LOAD build/default/production/_ext/490896790/drv_usbhs.o
LOAD build/default/production/_ext/490896790/drv_usbhs_device.o
LOAD build/default/production/_ext/2068470151/plib_clk.o
LOAD build/default/production/_ext/1465287765/plib_coretimer.o
LOAD build/default/production/_ext/301865530/plib_evic.o
LOAD build/default/production/_ext/301811702/plib_gpio.o
LOAD build/default/production/_ext/301585742/plib_ocmp8.o
LOAD build/default/production/_ext/301585742/plib_ocmp5.o
LOAD build/default/production/_ext/301585742/plib_ocmp3.o
LOAD build/default/production/_ext/2068486526/plib_tmr2.o
LOAD build/default/production/_ext/301408759/plib_uart6.o
LOAD build/default/production/_ext/1481935855/xc32_monitor.o
LOAD build/default/production/_ext/404994212/sys_int.o
LOAD build/default/production/_ext/763370911/usb_device.o
LOAD build/default/production/_ext/763370911/usb_device_cdc.o
LOAD build/default/production/_ext/763370911/usb_device_cdc_acm.o
LOAD build/default/production/_ext/1160401513/initialization.o
LOAD build/default/production/_ext/1160401513/interrupts.o
LOAD build/default/production/_ext/1160401513/exceptions.o
LOAD build/default/production/_ext/1160401513/usb_device_init_data.o
LOAD build/default/production/_ext/1160401513/tasks.o
LOAD build/default/production/_ext/1003616436/app.o
LOAD build/default/production/_ext/1003616436/main.o
LOAD build/default/production/_ext/1003616436/usb_com_port.o
                0x00000001                __MPLAB_BUILD = 0x1
                0x00000400                PROVIDE (_min_stack_size, 0x400)
START GROUP
LOAD c:/program files (x86)/microchip/xc32/v2.15/bin/bin/../../lib/gcc/pic32mx/4.8.3/../../../../pic32mx/lib/./proc/32MZ2048EFM144\vector_offset_init.o
END GROUP
                0x00000001                PROVIDE (_vector_spacing, 0x1)
                0x9d000000                PROVIDE (_ebase_address, 0x9d000000)
                0xbfc00000                _RESET_ADDR = 0xbfc00000
                0xbfc00380                _BEV_EXCPT_ADDR = 0xbfc00380
                0xbfc00480                _DBG_EXCPT_ADDR = 0xbfc00480
                0x9d000000                _SIMPLE_TLB_REFILL_EXCPT_ADDR = (_ebase_address + 0x0)
                0x9d000100                _CACHE_ERR_EXCPT_ADDR = (_ebase_address + 0x100)
                0x9d000180                _GEN_EXCPT_ADDR = (_ebase_address + 0x180)

.config_BFC0FF40
 *(.config_BFC0FF40)

.config_BFC0FF44
 *(.config_BFC0FF44)

.config_BFC0FF48
 *(.config_BFC0FF48)

.config_BFC0FF4C
 *(.config_BFC0FF4C)

.config_BFC0FF50
 *(.config_BFC0FF50)

.config_BFC0FF54
 *(.config_BFC0FF54)

.config_BFC0FF58
 *(.config_BFC0FF58)

.config_BFC0FF5C
 *(.config_BFC0FF5C)

.config_BFC0FF60
 *(.config_BFC0FF60)

.config_BFC0FF64
 *(.config_BFC0FF64)

.config_BFC0FF68
 *(.config_BFC0FF68)

.config_BFC0FF6C
 *(.config_BFC0FF6C)

.config_BFC0FF70
 *(.config_BFC0FF70)

.config_BFC0FF74
 *(.config_BFC0FF74)

.config_BFC0FF78
 *(.config_BFC0FF78)

.config_BFC0FF7C
 *(.config_BFC0FF7C)

.config_BFC0FFC0
                0xbfc0ffc0        0x4
 *(.config_BFC0FFC0)
 .config_BFC0FFC0
                0xbfc0ffc0        0x4 build/default/production/_ext/1160401513/initialization.o

.config_BFC0FFC4
                0xbfc0ffc4        0x4
 *(.config_BFC0FFC4)
 .config_BFC0FFC4
                0xbfc0ffc4        0x4 build/default/production/_ext/1160401513/initialization.o

.config_BFC0FFC8
                0xbfc0ffc8        0x4
 *(.config_BFC0FFC8)
 .config_BFC0FFC8
                0xbfc0ffc8        0x4 build/default/production/_ext/1160401513/initialization.o

.config_BFC0FFCC
                0xbfc0ffcc        0x4
 *(.config_BFC0FFCC)
 .config_BFC0FFCC
                0xbfc0ffcc        0x4 build/default/production/_ext/1160401513/initialization.o

.config_BFC0FFD0
 *(.config_BFC0FFD0)

.config_BFC0FFD4
 *(.config_BFC0FFD4)

.config_BFC0FFD8
 *(.config_BFC0FFD8)

.config_BFC0FFDC
                0xbfc0ffdc        0x4
 *(.config_BFC0FFDC)
 .config_BFC0FFDC
                0xbfc0ffdc        0x4 build/default/production/_ext/1160401513/initialization.o

.config_BFC0FFE0
 *(.config_BFC0FFE0)

.config_BFC0FFE4
 *(.config_BFC0FFE4)

.config_BFC0FFE8
 *(.config_BFC0FFE8)

.config_BFC0FFEC
 *(.config_BFC0FFEC)

.config_BFC0FFF0
                0xbfc0fff0        0x4
 *(.config_BFC0FFF0)
 .config_BFC0FFF0
                0xbfc0fff0        0x4 build/default/production/_ext/1160401513/initialization.o

.config_BFC0FFF4
 *(.config_BFC0FFF4)

.config_BFC0FFF8
 *(.config_BFC0FFF8)

.config_BFC0FFFC
 *(.config_BFC0FFFC)

.config_BFC2FF40
 *(.config_BFC2FF40)

.config_BFC2FF44
 *(.config_BFC2FF44)

.config_BFC2FF48
 *(.config_BFC2FF48)

.config_BFC2FF4C
 *(.config_BFC2FF4C)

.config_BFC2FF50
 *(.config_BFC2FF50)

.config_BFC2FF54
 *(.config_BFC2FF54)

.config_BFC2FF58
 *(.config_BFC2FF58)

.config_BFC2FF5C
 *(.config_BFC2FF5C)

.config_BFC2FF60
 *(.config_BFC2FF60)

.config_BFC2FF64
 *(.config_BFC2FF64)

.config_BFC2FF68
 *(.config_BFC2FF68)

.config_BFC2FF6C
 *(.config_BFC2FF6C)

.config_BFC2FF70
 *(.config_BFC2FF70)

.config_BFC2FF74
 *(.config_BFC2FF74)

.config_BFC2FF78
 *(.config_BFC2FF78)

.config_BFC2FF7C
 *(.config_BFC2FF7C)

.config_BFC2FFC0
 *(.config_BFC2FFC0)

.config_BFC2FFC4
 *(.config_BFC2FFC4)

.config_BFC2FFC8
 *(.config_BFC2FFC8)

.config_BFC2FFCC
 *(.config_BFC2FFCC)

.config_BFC2FFD0
 *(.config_BFC2FFD0)

.config_BFC2FFD4
 *(.config_BFC2FFD4)

.config_BFC2FFD8
 *(.config_BFC2FFD8)

.config_BFC2FFDC
 *(.config_BFC2FFDC)

.config_BFC2FFE0
 *(.config_BFC2FFE0)

.config_BFC2FFE4
 *(.config_BFC2FFE4)

.config_BFC2FFE8
 *(.config_BFC2FFE8)

.config_BFC2FFEC
 *(.config_BFC2FFEC)

.config_BFC2FFF0
 *(.config_BFC2FFF0)

.config_BFC2FFF4
 *(.config_BFC2FFF4)

.config_BFC2FFF8
 *(.config_BFC2FFF8)

.config_BFC2FFFC
 *(.config_BFC2FFFC)

.config_BFC4FF40
 *(.config_BFC4FF40)

.config_BFC4FF44
 *(.config_BFC4FF44)

.config_BFC4FF48
 *(.config_BFC4FF48)

.config_BFC4FF4C
 *(.config_BFC4FF4C)

.config_BFC4FF50
 *(.config_BFC4FF50)

.config_BFC4FF54
 *(.config_BFC4FF54)

.config_BFC4FF58
 *(.config_BFC4FF58)

.config_BFC4FF5C
 *(.config_BFC4FF5C)

.config_BFC4FF60
 *(.config_BFC4FF60)

.config_BFC4FF64
 *(.config_BFC4FF64)

.config_BFC4FF68
 *(.config_BFC4FF68)

.config_BFC4FF6C
 *(.config_BFC4FF6C)

.config_BFC4FF70
 *(.config_BFC4FF70)

.config_BFC4FF74
 *(.config_BFC4FF74)

.config_BFC4FF78
 *(.config_BFC4FF78)

.config_BFC4FF7C
 *(.config_BFC4FF7C)

.config_BFC4FFC0
 *(.config_BFC4FFC0)

.config_BFC4FFC4
 *(.config_BFC4FFC4)

.config_BFC4FFC8
 *(.config_BFC4FFC8)

.config_BFC4FFCC
 *(.config_BFC4FFCC)

.config_BFC4FFD0
 *(.config_BFC4FFD0)

.config_BFC4FFD4
 *(.config_BFC4FFD4)

.config_BFC4FFD8
 *(.config_BFC4FFD8)

.config_BFC4FFDC
 *(.config_BFC4FFDC)

.config_BFC4FFE0
 *(.config_BFC4FFE0)

.config_BFC4FFE4
 *(.config_BFC4FFE4)

.config_BFC4FFE8
 *(.config_BFC4FFE8)

.config_BFC4FFEC
 *(.config_BFC4FFEC)

.config_BFC4FFF0
 *(.config_BFC4FFF0)

.config_BFC4FFF4
 *(.config_BFC4FFF4)

.config_BFC4FFF8
 *(.config_BFC4FFF8)

.config_BFC4FFFC
 *(.config_BFC4FFFC)

.config_BFC54000
 *(.config_BFC54000)

.config_BFC54004
 *(.config_BFC54004)

.config_BFC54008
 *(.config_BFC54008)

.config_BFC5400C
 *(.config_BFC5400C)

.config_BFC54010
 *(.config_BFC54010)

.config_BFC5401C
 *(.config_BFC5401C)

.config_BFC54020
 *(.config_BFC54020)

.config_BFC54024
 *(.config_BFC54024)

.config_BFC6FF40
 *(.config_BFC6FF40)

.config_BFC6FF44
 *(.config_BFC6FF44)

.config_BFC6FF48
 *(.config_BFC6FF48)

.config_BFC6FF4C
 *(.config_BFC6FF4C)

.config_BFC6FF50
 *(.config_BFC6FF50)

.config_BFC6FF54
 *(.config_BFC6FF54)

.config_BFC6FF58
 *(.config_BFC6FF58)

.config_BFC6FF5C
 *(.config_BFC6FF5C)

.config_BFC6FF60
 *(.config_BFC6FF60)

.config_BFC6FF64
 *(.config_BFC6FF64)

.config_BFC6FF68
 *(.config_BFC6FF68)

.config_BFC6FF6C
 *(.config_BFC6FF6C)

.config_BFC6FF70
 *(.config_BFC6FF70)

.config_BFC6FF74
 *(.config_BFC6FF74)

.config_BFC6FF78
 *(.config_BFC6FF78)

.config_BFC6FF7C
 *(.config_BFC6FF7C)

.config_BFC6FFC0
 *(.config_BFC6FFC0)

.config_BFC6FFC4
 *(.config_BFC6FFC4)

.config_BFC6FFC8
 *(.config_BFC6FFC8)

.config_BFC6FFCC
 *(.config_BFC6FFCC)

.config_BFC6FFD0
 *(.config_BFC6FFD0)

.config_BFC6FFD4
 *(.config_BFC6FFD4)

.config_BFC6FFD8
 *(.config_BFC6FFD8)

.config_BFC6FFDC
 *(.config_BFC6FFDC)

.config_BFC6FFE0
 *(.config_BFC6FFE0)

.config_BFC6FFE4
 *(.config_BFC6FFE4)

.config_BFC6FFE8
 *(.config_BFC6FFE8)

.config_BFC6FFEC
 *(.config_BFC6FFEC)

.config_BFC6FFF0
 *(.config_BFC6FFF0)

.config_BFC6FFF4
 *(.config_BFC6FFF4)

.config_BFC6FFF8
 *(.config_BFC6FFF8)

.config_BFC6FFFC
 *(.config_BFC6FFFC)

.reset          0xbfc00000      0x1c0
 *(.reset)
 .reset         0xbfc00000       0x18 C:\Users\Andrew\AppData\Local\Temp\ccsLlpbg.o
                0xbfc00000                _reset
 *(.reset.startup)
 .reset.startup
                0xbfc00018      0x1a8 C:\Users\Andrew\AppData\Local\Temp\ccsLlpbg.o
                0xbfc00018                _startup

.bev_excpt      0xbfc00380       0x10
 *(.bev_handler)
 .bev_handler   0xbfc00380       0x10 C:\Users\Andrew\AppData\Local\Temp\ccsLlpbg.o

.cache_init     0xbfc004b0      0x1c0
 *(.cache_init)
 *(.cache_init.*)
 .cache_init.cache
                0xbfc004b0       0xc0 c:/program files (x86)/microchip/xc32/v2.15/bin/bin/../../lib/gcc/pic32mx/4.8.3/../../../../pic32mx/lib/fpu64\libpic32.a(pic32_init_cache.o)
 .cache_init.pic32_init_cache
                0xbfc00570      0x100 c:/program files (x86)/microchip/xc32/v2.15/bin/bin/../../lib/gcc/pic32mx/4.8.3/../../../../pic32mx/lib/fpu64\libpic32.a(pic32_init_cache.o)
                0xbfc00570                __pic32_init_cache

.simple_tlb_refill_excpt
                0x9d000000       0x10
 *(.simple_tlb_refill_vector)
 .simple_tlb_refill_vector
                0x9d000000       0x10 C:\Users\Andrew\AppData\Local\Temp\ccsLlpbg.o

.cache_err_excpt
                0x9d000100       0x10
 *(.cache_err_vector)
 .cache_err_vector
                0x9d000100       0x10 C:\Users\Andrew\AppData\Local\Temp\ccsLlpbg.o

.app_excpt      0x9d000180       0x10
 *(.gen_handler)
 .gen_handler   0x9d000180       0x10 C:\Users\Andrew\AppData\Local\Temp\ccsLlpbg.o

.vectors        0x9d000200       0x70
                0x9d000200                . = ALIGN (0x4)
                0x00000228                __vector_offset_0 = DEFINED (__vector_dispatch_0)?(. - _ebase_address):__vector_offset_default
 *(.vector_0)
                0x9d000200                . = ALIGN (0x4)
                0x00000228                __vector_offset_1 = DEFINED (__vector_dispatch_1)?(. - _ebase_address):__vector_offset_default
 *(.vector_1)
                0x9d000200                . = ALIGN (0x4)
                0x00000228                __vector_offset_2 = DEFINED (__vector_dispatch_2)?(. - _ebase_address):__vector_offset_default
 *(.vector_2)
                0x9d000200                . = ALIGN (0x4)
                0x00000228                __vector_offset_3 = DEFINED (__vector_dispatch_3)?(. - _ebase_address):__vector_offset_default
 *(.vector_3)
                0x9d000200                . = ALIGN (0x4)
                0x00000228                __vector_offset_4 = DEFINED (__vector_dispatch_4)?(. - _ebase_address):__vector_offset_default
 *(.vector_4)
                0x9d000200                . = ALIGN (0x4)
                0x00000228                __vector_offset_5 = DEFINED (__vector_dispatch_5)?(. - _ebase_address):__vector_offset_default
 *(.vector_5)
                0x9d000200                . = ALIGN (0x4)
                0x00000228                __vector_offset_6 = DEFINED (__vector_dispatch_6)?(. - _ebase_address):__vector_offset_default
 *(.vector_6)
                0x9d000200                . = ALIGN (0x4)
                0x00000228                __vector_offset_7 = DEFINED (__vector_dispatch_7)?(. - _ebase_address):__vector_offset_default
 *(.vector_7)
                0x9d000200                . = ALIGN (0x4)
                0x00000228                __vector_offset_8 = DEFINED (__vector_dispatch_8)?(. - _ebase_address):__vector_offset_default
 *(.vector_8)
                0x9d000200                . = ALIGN (0x4)
                0x00000228                __vector_offset_9 = DEFINED (__vector_dispatch_9)?(. - _ebase_address):__vector_offset_default
 *(.vector_9)
                0x9d000200                . = ALIGN (0x4)
                0x00000228                __vector_offset_10 = DEFINED (__vector_dispatch_10)?(. - _ebase_address):__vector_offset_default
 *(.vector_10)
                0x9d000200                . = ALIGN (0x4)
                0x00000228                __vector_offset_11 = DEFINED (__vector_dispatch_11)?(. - _ebase_address):__vector_offset_default
 *(.vector_11)
                0x9d000200                . = ALIGN (0x4)
                0x00000228                __vector_offset_12 = DEFINED (__vector_dispatch_12)?(. - _ebase_address):__vector_offset_default
 *(.vector_12)
                0x9d000200                . = ALIGN (0x4)
                0x00000228                __vector_offset_13 = DEFINED (__vector_dispatch_13)?(. - _ebase_address):__vector_offset_default
 *(.vector_13)
                0x9d000200                . = ALIGN (0x4)
                0x00000228                __vector_offset_14 = DEFINED (__vector_dispatch_14)?(. - _ebase_address):__vector_offset_default
 *(.vector_14)
                0x9d000200                . = ALIGN (0x4)
                0x00000228                __vector_offset_15 = DEFINED (__vector_dispatch_15)?(. - _ebase_address):__vector_offset_default
 *(.vector_15)
                0x9d000200                . = ALIGN (0x4)
                0x00000228                __vector_offset_16 = DEFINED (__vector_dispatch_16)?(. - _ebase_address):__vector_offset_default
 *(.vector_16)
                0x9d000200                . = ALIGN (0x4)
                0x00000228                __vector_offset_17 = DEFINED (__vector_dispatch_17)?(. - _ebase_address):__vector_offset_default
 *(.vector_17)
                0x9d000200                . = ALIGN (0x4)
                0x00000228                __vector_offset_18 = DEFINED (__vector_dispatch_18)?(. - _ebase_address):__vector_offset_default
 *(.vector_18)
                0x9d000200                . = ALIGN (0x4)
                0x00000228                __vector_offset_19 = DEFINED (__vector_dispatch_19)?(. - _ebase_address):__vector_offset_default
 *(.vector_19)
                0x9d000200                . = ALIGN (0x4)
                0x00000228                __vector_offset_20 = DEFINED (__vector_dispatch_20)?(. - _ebase_address):__vector_offset_default
 *(.vector_20)
                0x9d000200                . = ALIGN (0x4)
                0x00000228                __vector_offset_21 = DEFINED (__vector_dispatch_21)?(. - _ebase_address):__vector_offset_default
 *(.vector_21)
                0x9d000200                . = ALIGN (0x4)
                0x00000228                __vector_offset_22 = DEFINED (__vector_dispatch_22)?(. - _ebase_address):__vector_offset_default
 *(.vector_22)
                0x9d000200                . = ALIGN (0x4)
                0x00000228                __vector_offset_23 = DEFINED (__vector_dispatch_23)?(. - _ebase_address):__vector_offset_default
 *(.vector_23)
                0x9d000200                . = ALIGN (0x4)
                0x00000228                __vector_offset_24 = DEFINED (__vector_dispatch_24)?(. - _ebase_address):__vector_offset_default
 *(.vector_24)
                0x9d000200                . = ALIGN (0x4)
                0x00000228                __vector_offset_25 = DEFINED (__vector_dispatch_25)?(. - _ebase_address):__vector_offset_default
 *(.vector_25)
                0x9d000200                . = ALIGN (0x4)
                0x00000228                __vector_offset_26 = DEFINED (__vector_dispatch_26)?(. - _ebase_address):__vector_offset_default
 *(.vector_26)
                0x9d000200                . = ALIGN (0x4)
                0x00000228                __vector_offset_27 = DEFINED (__vector_dispatch_27)?(. - _ebase_address):__vector_offset_default
 *(.vector_27)
                0x9d000200                . = ALIGN (0x4)
                0x00000228                __vector_offset_28 = DEFINED (__vector_dispatch_28)?(. - _ebase_address):__vector_offset_default
 *(.vector_28)
                0x9d000200                . = ALIGN (0x4)
                0x00000228                __vector_offset_29 = DEFINED (__vector_dispatch_29)?(. - _ebase_address):__vector_offset_default
 *(.vector_29)
                0x9d000200                . = ALIGN (0x4)
                0x00000228                __vector_offset_30 = DEFINED (__vector_dispatch_30)?(. - _ebase_address):__vector_offset_default
 *(.vector_30)
                0x9d000200                . = ALIGN (0x4)
                0x00000228                __vector_offset_31 = DEFINED (__vector_dispatch_31)?(. - _ebase_address):__vector_offset_default
 *(.vector_31)
                0x9d000200                . = ALIGN (0x4)
                0x00000228                __vector_offset_32 = DEFINED (__vector_dispatch_32)?(. - _ebase_address):__vector_offset_default
 *(.vector_32)
                0x9d000200                . = ALIGN (0x4)
                0x00000228                __vector_offset_33 = DEFINED (__vector_dispatch_33)?(. - _ebase_address):__vector_offset_default
 *(.vector_33)
                0x9d000200                . = ALIGN (0x4)
                0x00000228                __vector_offset_34 = DEFINED (__vector_dispatch_34)?(. - _ebase_address):__vector_offset_default
 *(.vector_34)
                0x9d000200                . = ALIGN (0x4)
                0x00000228                __vector_offset_35 = DEFINED (__vector_dispatch_35)?(. - _ebase_address):__vector_offset_default
 *(.vector_35)
                0x9d000200                . = ALIGN (0x4)
                0x00000228                __vector_offset_36 = DEFINED (__vector_dispatch_36)?(. - _ebase_address):__vector_offset_default
 *(.vector_36)
                0x9d000200                . = ALIGN (0x4)
                0x00000228                __vector_offset_37 = DEFINED (__vector_dispatch_37)?(. - _ebase_address):__vector_offset_default
 *(.vector_37)
                0x9d000200                . = ALIGN (0x4)
                0x00000228                __vector_offset_38 = DEFINED (__vector_dispatch_38)?(. - _ebase_address):__vector_offset_default
 *(.vector_38)
                0x9d000200                . = ALIGN (0x4)
                0x00000228                __vector_offset_39 = DEFINED (__vector_dispatch_39)?(. - _ebase_address):__vector_offset_default
 *(.vector_39)
                0x9d000200                . = ALIGN (0x4)
                0x00000228                __vector_offset_40 = DEFINED (__vector_dispatch_40)?(. - _ebase_address):__vector_offset_default
 *(.vector_40)
                0x9d000200                . = ALIGN (0x4)
                0x00000228                __vector_offset_41 = DEFINED (__vector_dispatch_41)?(. - _ebase_address):__vector_offset_default
 *(.vector_41)
                0x9d000200                . = ALIGN (0x4)
                0x00000228                __vector_offset_42 = DEFINED (__vector_dispatch_42)?(. - _ebase_address):__vector_offset_default
 *(.vector_42)
                0x9d000200                . = ALIGN (0x4)
                0x00000228                __vector_offset_43 = DEFINED (__vector_dispatch_43)?(. - _ebase_address):__vector_offset_default
 *(.vector_43)
                0x9d000200                . = ALIGN (0x4)
                0x00000228                __vector_offset_44 = DEFINED (__vector_dispatch_44)?(. - _ebase_address):__vector_offset_default
 *(.vector_44)
                0x9d000200                . = ALIGN (0x4)
                0x00000228                __vector_offset_45 = DEFINED (__vector_dispatch_45)?(. - _ebase_address):__vector_offset_default
 *(.vector_45)
                0x9d000200                . = ALIGN (0x4)
                0x00000228                __vector_offset_46 = DEFINED (__vector_dispatch_46)?(. - _ebase_address):__vector_offset_default
 *(.vector_46)
                0x9d000200                . = ALIGN (0x4)
                0x00000228                __vector_offset_47 = DEFINED (__vector_dispatch_47)?(. - _ebase_address):__vector_offset_default
 *(.vector_47)
                0x9d000200                . = ALIGN (0x4)
                0x00000228                __vector_offset_48 = DEFINED (__vector_dispatch_48)?(. - _ebase_address):__vector_offset_default
 *(.vector_48)
                0x9d000200                . = ALIGN (0x4)
                0x00000228                __vector_offset_49 = DEFINED (__vector_dispatch_49)?(. - _ebase_address):__vector_offset_default
 *(.vector_49)
                0x9d000200                . = ALIGN (0x4)
                0x00000228                __vector_offset_50 = DEFINED (__vector_dispatch_50)?(. - _ebase_address):__vector_offset_default
 *(.vector_50)
                0x9d000200                . = ALIGN (0x4)
                0x00000228                __vector_offset_51 = DEFINED (__vector_dispatch_51)?(. - _ebase_address):__vector_offset_default
 *(.vector_51)
                0x9d000200                . = ALIGN (0x4)
                0x00000228                __vector_offset_52 = DEFINED (__vector_dispatch_52)?(. - _ebase_address):__vector_offset_default
 *(.vector_52)
                0x9d000200                . = ALIGN (0x4)
                0x00000228                __vector_offset_53 = DEFINED (__vector_dispatch_53)?(. - _ebase_address):__vector_offset_default
 *(.vector_53)
                0x9d000200                . = ALIGN (0x4)
                0x00000228                __vector_offset_54 = DEFINED (__vector_dispatch_54)?(. - _ebase_address):__vector_offset_default
 *(.vector_54)
                0x9d000200                . = ALIGN (0x4)
                0x00000228                __vector_offset_55 = DEFINED (__vector_dispatch_55)?(. - _ebase_address):__vector_offset_default
 *(.vector_55)
                0x9d000200                . = ALIGN (0x4)
                0x00000228                __vector_offset_56 = DEFINED (__vector_dispatch_56)?(. - _ebase_address):__vector_offset_default
 *(.vector_56)
                0x9d000200                . = ALIGN (0x4)
                0x00000228                __vector_offset_57 = DEFINED (__vector_dispatch_57)?(. - _ebase_address):__vector_offset_default
 *(.vector_57)
                0x9d000200                . = ALIGN (0x4)
                0x00000228                __vector_offset_58 = DEFINED (__vector_dispatch_58)?(. - _ebase_address):__vector_offset_default
 *(.vector_58)
                0x9d000200                . = ALIGN (0x4)
                0x00000228                __vector_offset_59 = DEFINED (__vector_dispatch_59)?(. - _ebase_address):__vector_offset_default
 *(.vector_59)
                0x9d000200                . = ALIGN (0x4)
                0x00000228                __vector_offset_60 = DEFINED (__vector_dispatch_60)?(. - _ebase_address):__vector_offset_default
 *(.vector_60)
                0x9d000200                . = ALIGN (0x4)
                0x00000228                __vector_offset_61 = DEFINED (__vector_dispatch_61)?(. - _ebase_address):__vector_offset_default
 *(.vector_61)
                0x9d000200                . = ALIGN (0x4)
                0x00000228                __vector_offset_62 = DEFINED (__vector_dispatch_62)?(. - _ebase_address):__vector_offset_default
 *(.vector_62)
                0x9d000200                . = ALIGN (0x4)
                0x00000228                __vector_offset_63 = DEFINED (__vector_dispatch_63)?(. - _ebase_address):__vector_offset_default
 *(.vector_63)
                0x9d000200                . = ALIGN (0x4)
                0x00000228                __vector_offset_64 = DEFINED (__vector_dispatch_64)?(. - _ebase_address):__vector_offset_default
 *(.vector_64)
                0x9d000200                . = ALIGN (0x4)
                0x00000228                __vector_offset_65 = DEFINED (__vector_dispatch_65)?(. - _ebase_address):__vector_offset_default
 *(.vector_65)
                0x9d000200                . = ALIGN (0x4)
                0x00000228                __vector_offset_66 = DEFINED (__vector_dispatch_66)?(. - _ebase_address):__vector_offset_default
 *(.vector_66)
                0x9d000200                . = ALIGN (0x4)
                0x00000228                __vector_offset_67 = DEFINED (__vector_dispatch_67)?(. - _ebase_address):__vector_offset_default
 *(.vector_67)
                0x9d000200                . = ALIGN (0x4)
                0x00000228                __vector_offset_68 = DEFINED (__vector_dispatch_68)?(. - _ebase_address):__vector_offset_default
 *(.vector_68)
                0x9d000200                . = ALIGN (0x4)
                0x00000228                __vector_offset_69 = DEFINED (__vector_dispatch_69)?(. - _ebase_address):__vector_offset_default
 *(.vector_69)
                0x9d000200                . = ALIGN (0x4)
                0x00000228                __vector_offset_70 = DEFINED (__vector_dispatch_70)?(. - _ebase_address):__vector_offset_default
 *(.vector_70)
                0x9d000200                . = ALIGN (0x4)
                0x00000228                __vector_offset_71 = DEFINED (__vector_dispatch_71)?(. - _ebase_address):__vector_offset_default
 *(.vector_71)
                0x9d000200                . = ALIGN (0x4)
                0x00000228                __vector_offset_72 = DEFINED (__vector_dispatch_72)?(. - _ebase_address):__vector_offset_default
 *(.vector_72)
                0x9d000200                . = ALIGN (0x4)
                0x00000228                __vector_offset_73 = DEFINED (__vector_dispatch_73)?(. - _ebase_address):__vector_offset_default
 *(.vector_73)
                0x9d000200                . = ALIGN (0x4)
                0x00000228                __vector_offset_74 = DEFINED (__vector_dispatch_74)?(. - _ebase_address):__vector_offset_default
 *(.vector_74)
                0x9d000200                . = ALIGN (0x4)
                0x00000228                __vector_offset_75 = DEFINED (__vector_dispatch_75)?(. - _ebase_address):__vector_offset_default
 *(.vector_75)
                0x9d000200                . = ALIGN (0x4)
                0x00000228                __vector_offset_76 = DEFINED (__vector_dispatch_76)?(. - _ebase_address):__vector_offset_default
 *(.vector_76)
                0x9d000200                . = ALIGN (0x4)
                0x00000228                __vector_offset_77 = DEFINED (__vector_dispatch_77)?(. - _ebase_address):__vector_offset_default
 *(.vector_77)
                0x9d000200                . = ALIGN (0x4)
                0x00000228                __vector_offset_78 = DEFINED (__vector_dispatch_78)?(. - _ebase_address):__vector_offset_default
 *(.vector_78)
                0x9d000200                . = ALIGN (0x4)
                0x00000228                __vector_offset_79 = DEFINED (__vector_dispatch_79)?(. - _ebase_address):__vector_offset_default
 *(.vector_79)
                0x9d000200                . = ALIGN (0x4)
                0x00000228                __vector_offset_80 = DEFINED (__vector_dispatch_80)?(. - _ebase_address):__vector_offset_default
 *(.vector_80)
                0x9d000200                . = ALIGN (0x4)
                0x00000228                __vector_offset_81 = DEFINED (__vector_dispatch_81)?(. - _ebase_address):__vector_offset_default
 *(.vector_81)
                0x9d000200                . = ALIGN (0x4)
                0x00000228                __vector_offset_82 = DEFINED (__vector_dispatch_82)?(. - _ebase_address):__vector_offset_default
 *(.vector_82)
                0x9d000200                . = ALIGN (0x4)
                0x00000228                __vector_offset_83 = DEFINED (__vector_dispatch_83)?(. - _ebase_address):__vector_offset_default
 *(.vector_83)
                0x9d000200                . = ALIGN (0x4)
                0x00000228                __vector_offset_84 = DEFINED (__vector_dispatch_84)?(. - _ebase_address):__vector_offset_default
 *(.vector_84)
                0x9d000200                . = ALIGN (0x4)
                0x00000228                __vector_offset_85 = DEFINED (__vector_dispatch_85)?(. - _ebase_address):__vector_offset_default
 *(.vector_85)
                0x9d000200                . = ALIGN (0x4)
                0x00000228                __vector_offset_86 = DEFINED (__vector_dispatch_86)?(. - _ebase_address):__vector_offset_default
 *(.vector_86)
                0x9d000200                . = ALIGN (0x4)
                0x00000228                __vector_offset_87 = DEFINED (__vector_dispatch_87)?(. - _ebase_address):__vector_offset_default
 *(.vector_87)
                0x9d000200                . = ALIGN (0x4)
                0x00000228                __vector_offset_88 = DEFINED (__vector_dispatch_88)?(. - _ebase_address):__vector_offset_default
 *(.vector_88)
                0x9d000200                . = ALIGN (0x4)
                0x00000228                __vector_offset_89 = DEFINED (__vector_dispatch_89)?(. - _ebase_address):__vector_offset_default
 *(.vector_89)
                0x9d000200                . = ALIGN (0x4)
                0x00000228                __vector_offset_90 = DEFINED (__vector_dispatch_90)?(. - _ebase_address):__vector_offset_default
 *(.vector_90)
                0x9d000200                . = ALIGN (0x4)
                0x00000228                __vector_offset_91 = DEFINED (__vector_dispatch_91)?(. - _ebase_address):__vector_offset_default
 *(.vector_91)
                0x9d000200                . = ALIGN (0x4)
                0x00000228                __vector_offset_92 = DEFINED (__vector_dispatch_92)?(. - _ebase_address):__vector_offset_default
 *(.vector_92)
                0x9d000200                . = ALIGN (0x4)
                0x00000228                __vector_offset_93 = DEFINED (__vector_dispatch_93)?(. - _ebase_address):__vector_offset_default
 *(.vector_93)
                0x9d000200                . = ALIGN (0x4)
                0x00000228                __vector_offset_94 = DEFINED (__vector_dispatch_94)?(. - _ebase_address):__vector_offset_default
 *(.vector_94)
                0x9d000200                . = ALIGN (0x4)
                0x00000228                __vector_offset_95 = DEFINED (__vector_dispatch_95)?(. - _ebase_address):__vector_offset_default
 *(.vector_95)
                0x9d000200                . = ALIGN (0x4)
                0x00000228                __vector_offset_96 = DEFINED (__vector_dispatch_96)?(. - _ebase_address):__vector_offset_default
 *(.vector_96)
                0x9d000200                . = ALIGN (0x4)
                0x00000228                __vector_offset_97 = DEFINED (__vector_dispatch_97)?(. - _ebase_address):__vector_offset_default
 *(.vector_97)
                0x9d000200                . = ALIGN (0x4)
                0x00000228                __vector_offset_98 = DEFINED (__vector_dispatch_98)?(. - _ebase_address):__vector_offset_default
 *(.vector_98)
                0x9d000200                . = ALIGN (0x4)
                0x00000228                __vector_offset_99 = DEFINED (__vector_dispatch_99)?(. - _ebase_address):__vector_offset_default
 *(.vector_99)
                0x9d000200                . = ALIGN (0x4)
                0x00000228                __vector_offset_100 = DEFINED (__vector_dispatch_100)?(. - _ebase_address):__vector_offset_default
 *(.vector_100)
                0x9d000200                . = ALIGN (0x4)
                0x00000228                __vector_offset_101 = DEFINED (__vector_dispatch_101)?(. - _ebase_address):__vector_offset_default
 *(.vector_101)
                0x9d000200                . = ALIGN (0x4)
                0x00000228                __vector_offset_102 = DEFINED (__vector_dispatch_102)?(. - _ebase_address):__vector_offset_default
 *(.vector_102)
                0x9d000200                . = ALIGN (0x4)
                0x00000228                __vector_offset_103 = DEFINED (__vector_dispatch_103)?(. - _ebase_address):__vector_offset_default
 *(.vector_103)
                0x9d000200                . = ALIGN (0x4)
                0x00000228                __vector_offset_104 = DEFINED (__vector_dispatch_104)?(. - _ebase_address):__vector_offset_default
 *(.vector_104)
                0x9d000200                . = ALIGN (0x4)
                0x00000228                __vector_offset_105 = DEFINED (__vector_dispatch_105)?(. - _ebase_address):__vector_offset_default
 *(.vector_105)
                0x9d000200                . = ALIGN (0x4)
                0x00000228                __vector_offset_106 = DEFINED (__vector_dispatch_106)?(. - _ebase_address):__vector_offset_default
 *(.vector_106)
                0x9d000200                . = ALIGN (0x4)
                0x00000228                __vector_offset_107 = DEFINED (__vector_dispatch_107)?(. - _ebase_address):__vector_offset_default
 *(.vector_107)
                0x9d000200                . = ALIGN (0x4)
                0x00000228                __vector_offset_108 = DEFINED (__vector_dispatch_108)?(. - _ebase_address):__vector_offset_default
 *(.vector_108)
                0x9d000200                . = ALIGN (0x4)
                0x00000228                __vector_offset_109 = DEFINED (__vector_dispatch_109)?(. - _ebase_address):__vector_offset_default
 *(.vector_109)
                0x9d000200                . = ALIGN (0x4)
                0x00000228                __vector_offset_110 = DEFINED (__vector_dispatch_110)?(. - _ebase_address):__vector_offset_default
 *(.vector_110)
                0x9d000200                . = ALIGN (0x4)
                0x00000228                __vector_offset_111 = DEFINED (__vector_dispatch_111)?(. - _ebase_address):__vector_offset_default
 *(.vector_111)
                0x9d000200                . = ALIGN (0x4)
                0x00000228                __vector_offset_112 = DEFINED (__vector_dispatch_112)?(. - _ebase_address):__vector_offset_default
 *(.vector_112)
                0x9d000200                . = ALIGN (0x4)
                0x00000228                __vector_offset_113 = DEFINED (__vector_dispatch_113)?(. - _ebase_address):__vector_offset_default
 *(.vector_113)
                0x9d000200                . = ALIGN (0x4)
                0x00000228                __vector_offset_114 = DEFINED (__vector_dispatch_114)?(. - _ebase_address):__vector_offset_default
 *(.vector_114)
                0x9d000200                . = ALIGN (0x4)
                0x00000228                __vector_offset_115 = DEFINED (__vector_dispatch_115)?(. - _ebase_address):__vector_offset_default
 *(.vector_115)
                0x9d000200                . = ALIGN (0x4)
                0x00000228                __vector_offset_116 = DEFINED (__vector_dispatch_116)?(. - _ebase_address):__vector_offset_default
 *(.vector_116)
                0x9d000200                . = ALIGN (0x4)
                0x00000228                __vector_offset_117 = DEFINED (__vector_dispatch_117)?(. - _ebase_address):__vector_offset_default
 *(.vector_117)
                0x9d000200                . = ALIGN (0x4)
                0x00000228                __vector_offset_118 = DEFINED (__vector_dispatch_118)?(. - _ebase_address):__vector_offset_default
 *(.vector_118)
                0x9d000200                . = ALIGN (0x4)
                0x00000228                __vector_offset_119 = DEFINED (__vector_dispatch_119)?(. - _ebase_address):__vector_offset_default
 *(.vector_119)
                0x9d000200                . = ALIGN (0x4)
                0x00000228                __vector_offset_120 = DEFINED (__vector_dispatch_120)?(. - _ebase_address):__vector_offset_default
 *(.vector_120)
                0x9d000200                . = ALIGN (0x4)
                0x00000228                __vector_offset_121 = DEFINED (__vector_dispatch_121)?(. - _ebase_address):__vector_offset_default
 *(.vector_121)
                0x9d000200                . = ALIGN (0x4)
                0x00000228                __vector_offset_122 = DEFINED (__vector_dispatch_122)?(. - _ebase_address):__vector_offset_default
 *(.vector_122)
                0x9d000200                . = ALIGN (0x4)
                0x00000228                __vector_offset_123 = DEFINED (__vector_dispatch_123)?(. - _ebase_address):__vector_offset_default
 *(.vector_123)
                0x9d000200                . = ALIGN (0x4)
                0x00000228                __vector_offset_124 = DEFINED (__vector_dispatch_124)?(. - _ebase_address):__vector_offset_default
 *(.vector_124)
                0x9d000200                . = ALIGN (0x4)
                0x00000228                __vector_offset_125 = DEFINED (__vector_dispatch_125)?(. - _ebase_address):__vector_offset_default
 *(.vector_125)
                0x9d000200                . = ALIGN (0x4)
                0x00000228                __vector_offset_126 = DEFINED (__vector_dispatch_126)?(. - _ebase_address):__vector_offset_default
 *(.vector_126)
                0x9d000200                . = ALIGN (0x4)
                0x00000228                __vector_offset_127 = DEFINED (__vector_dispatch_127)?(. - _ebase_address):__vector_offset_default
 *(.vector_127)
                0x9d000200                . = ALIGN (0x4)
                0x00000228                __vector_offset_128 = DEFINED (__vector_dispatch_128)?(. - _ebase_address):__vector_offset_default
 *(.vector_128)
                0x9d000200                . = ALIGN (0x4)
                0x00000228                __vector_offset_129 = DEFINED (__vector_dispatch_129)?(. - _ebase_address):__vector_offset_default
 *(.vector_129)
                0x9d000200                . = ALIGN (0x4)
                0x00000228                __vector_offset_130 = DEFINED (__vector_dispatch_130)?(. - _ebase_address):__vector_offset_default
 *(.vector_130)
                0x9d000200                . = ALIGN (0x4)
                0x00000228                __vector_offset_131 = DEFINED (__vector_dispatch_131)?(. - _ebase_address):__vector_offset_default
 *(.vector_131)
                0x9d000200                . = ALIGN (0x4)
                0x00000200                __vector_offset_132 = DEFINED (__vector_dispatch_132)?(. - _ebase_address):__vector_offset_default
 *(.vector_132)
 .vector_132    0x9d000200        0x8 build/default/production/_ext/1160401513/interrupts.o
                0x9d000200                __vector_dispatch_132
                0x9d000208                . = ALIGN (0x4)
                0x00000208                __vector_offset_133 = DEFINED (__vector_dispatch_133)?(. - _ebase_address):__vector_offset_default
 *(.vector_133)
 .vector_133    0x9d000208        0x8 build/default/production/_ext/1160401513/interrupts.o
                0x9d000208                __vector_dispatch_133
                0x9d000210                . = ALIGN (0x4)
                0x00000228                __vector_offset_134 = DEFINED (__vector_dispatch_134)?(. - _ebase_address):__vector_offset_default
 *(.vector_134)
                0x9d000210                . = ALIGN (0x4)
                0x00000228                __vector_offset_135 = DEFINED (__vector_dispatch_135)?(. - _ebase_address):__vector_offset_default
 *(.vector_135)
                0x9d000210                . = ALIGN (0x4)
                0x00000228                __vector_offset_136 = DEFINED (__vector_dispatch_136)?(. - _ebase_address):__vector_offset_default
 *(.vector_136)
                0x9d000210                . = ALIGN (0x4)
                0x00000228                __vector_offset_137 = DEFINED (__vector_dispatch_137)?(. - _ebase_address):__vector_offset_default
 *(.vector_137)
                0x9d000210                . = ALIGN (0x4)
                0x00000228                __vector_offset_138 = DEFINED (__vector_dispatch_138)?(. - _ebase_address):__vector_offset_default
 *(.vector_138)
                0x9d000210                . = ALIGN (0x4)
                0x00000228                __vector_offset_139 = DEFINED (__vector_dispatch_139)?(. - _ebase_address):__vector_offset_default
 *(.vector_139)
                0x9d000210                . = ALIGN (0x4)
                0x00000228                __vector_offset_140 = DEFINED (__vector_dispatch_140)?(. - _ebase_address):__vector_offset_default
 *(.vector_140)
                0x9d000210                . = ALIGN (0x4)
                0x00000228                __vector_offset_141 = DEFINED (__vector_dispatch_141)?(. - _ebase_address):__vector_offset_default
 *(.vector_141)
                0x9d000210                . = ALIGN (0x4)
                0x00000228                __vector_offset_142 = DEFINED (__vector_dispatch_142)?(. - _ebase_address):__vector_offset_default
 *(.vector_142)
                0x9d000210                . = ALIGN (0x4)
                0x00000228                __vector_offset_143 = DEFINED (__vector_dispatch_143)?(. - _ebase_address):__vector_offset_default
 *(.vector_143)
                0x9d000210                . = ALIGN (0x4)
                0x00000228                __vector_offset_144 = DEFINED (__vector_dispatch_144)?(. - _ebase_address):__vector_offset_default
 *(.vector_144)
                0x9d000210                . = ALIGN (0x4)
                0x00000228                __vector_offset_145 = DEFINED (__vector_dispatch_145)?(. - _ebase_address):__vector_offset_default
 *(.vector_145)
                0x9d000210                . = ALIGN (0x4)
                0x00000228                __vector_offset_146 = DEFINED (__vector_dispatch_146)?(. - _ebase_address):__vector_offset_default
 *(.vector_146)
                0x9d000210                . = ALIGN (0x4)
                0x00000228                __vector_offset_147 = DEFINED (__vector_dispatch_147)?(. - _ebase_address):__vector_offset_default
 *(.vector_147)
                0x9d000210                . = ALIGN (0x4)
                0x00000228                __vector_offset_148 = DEFINED (__vector_dispatch_148)?(. - _ebase_address):__vector_offset_default
 *(.vector_148)
                0x9d000210                . = ALIGN (0x4)
                0x00000228                __vector_offset_149 = DEFINED (__vector_dispatch_149)?(. - _ebase_address):__vector_offset_default
 *(.vector_149)
                0x9d000210                . = ALIGN (0x4)
                0x00000228                __vector_offset_150 = DEFINED (__vector_dispatch_150)?(. - _ebase_address):__vector_offset_default
 *(.vector_150)
                0x9d000210                . = ALIGN (0x4)
                0x00000228                __vector_offset_151 = DEFINED (__vector_dispatch_151)?(. - _ebase_address):__vector_offset_default
 *(.vector_151)
                0x9d000210                . = ALIGN (0x4)
                0x00000228                __vector_offset_152 = DEFINED (__vector_dispatch_152)?(. - _ebase_address):__vector_offset_default
 *(.vector_152)
                0x9d000210                . = ALIGN (0x4)
                0x00000228                __vector_offset_153 = DEFINED (__vector_dispatch_153)?(. - _ebase_address):__vector_offset_default
 *(.vector_153)
                0x9d000210                . = ALIGN (0x4)
                0x00000228                __vector_offset_154 = DEFINED (__vector_dispatch_154)?(. - _ebase_address):__vector_offset_default
 *(.vector_154)
                0x9d000210                . = ALIGN (0x4)
                0x00000228                __vector_offset_155 = DEFINED (__vector_dispatch_155)?(. - _ebase_address):__vector_offset_default
 *(.vector_155)
                0x9d000210                . = ALIGN (0x4)
                0x00000228                __vector_offset_156 = DEFINED (__vector_dispatch_156)?(. - _ebase_address):__vector_offset_default
 *(.vector_156)
                0x9d000210                . = ALIGN (0x4)
                0x00000228                __vector_offset_157 = DEFINED (__vector_dispatch_157)?(. - _ebase_address):__vector_offset_default
 *(.vector_157)
                0x9d000210                . = ALIGN (0x4)
                0x00000228                __vector_offset_158 = DEFINED (__vector_dispatch_158)?(. - _ebase_address):__vector_offset_default
 *(.vector_158)
                0x9d000210                . = ALIGN (0x4)
                0x00000228                __vector_offset_159 = DEFINED (__vector_dispatch_159)?(. - _ebase_address):__vector_offset_default
 *(.vector_159)
                0x9d000210                . = ALIGN (0x4)
                0x00000228                __vector_offset_160 = DEFINED (__vector_dispatch_160)?(. - _ebase_address):__vector_offset_default
 *(.vector_160)
                0x9d000210                . = ALIGN (0x4)
                0x00000228                __vector_offset_161 = DEFINED (__vector_dispatch_161)?(. - _ebase_address):__vector_offset_default
 *(.vector_161)
                0x9d000210                . = ALIGN (0x4)
                0x00000228                __vector_offset_162 = DEFINED (__vector_dispatch_162)?(. - _ebase_address):__vector_offset_default
 *(.vector_162)
                0x9d000210                . = ALIGN (0x4)
                0x00000228                __vector_offset_163 = DEFINED (__vector_dispatch_163)?(. - _ebase_address):__vector_offset_default
 *(.vector_163)
                0x9d000210                . = ALIGN (0x4)
                0x00000228                __vector_offset_164 = DEFINED (__vector_dispatch_164)?(. - _ebase_address):__vector_offset_default
 *(.vector_164)
                0x9d000210                . = ALIGN (0x4)
                0x00000228                __vector_offset_165 = DEFINED (__vector_dispatch_165)?(. - _ebase_address):__vector_offset_default
 *(.vector_165)
                0x9d000210                . = ALIGN (0x4)
                0x00000228                __vector_offset_166 = DEFINED (__vector_dispatch_166)?(. - _ebase_address):__vector_offset_default
 *(.vector_166)
                0x9d000210                . = ALIGN (0x4)
                0x00000228                __vector_offset_167 = DEFINED (__vector_dispatch_167)?(. - _ebase_address):__vector_offset_default
 *(.vector_167)
                0x9d000210                . = ALIGN (0x4)
                0x00000228                __vector_offset_168 = DEFINED (__vector_dispatch_168)?(. - _ebase_address):__vector_offset_default
 *(.vector_168)
                0x9d000210                . = ALIGN (0x4)
                0x00000228                __vector_offset_169 = DEFINED (__vector_dispatch_169)?(. - _ebase_address):__vector_offset_default
 *(.vector_169)
                0x9d000210                . = ALIGN (0x4)
                0x00000228                __vector_offset_170 = DEFINED (__vector_dispatch_170)?(. - _ebase_address):__vector_offset_default
 *(.vector_170)
                0x9d000210                . = ALIGN (0x4)
                0x00000228                __vector_offset_171 = DEFINED (__vector_dispatch_171)?(. - _ebase_address):__vector_offset_default
 *(.vector_171)
                0x9d000210                . = ALIGN (0x4)
                0x00000228                __vector_offset_172 = DEFINED (__vector_dispatch_172)?(. - _ebase_address):__vector_offset_default
 *(.vector_172)
                0x9d000210                . = ALIGN (0x4)
                0x00000228                __vector_offset_173 = DEFINED (__vector_dispatch_173)?(. - _ebase_address):__vector_offset_default
 *(.vector_173)
                0x9d000210                . = ALIGN (0x4)
                0x00000228                __vector_offset_174 = DEFINED (__vector_dispatch_174)?(. - _ebase_address):__vector_offset_default
 *(.vector_174)
                0x9d000210                . = ALIGN (0x4)
                0x00000228                __vector_offset_175 = DEFINED (__vector_dispatch_175)?(. - _ebase_address):__vector_offset_default
 *(.vector_175)
                0x9d000210                . = ALIGN (0x4)
                0x00000228                __vector_offset_176 = DEFINED (__vector_dispatch_176)?(. - _ebase_address):__vector_offset_default
 *(.vector_176)
                0x9d000210                . = ALIGN (0x4)
                0x00000228                __vector_offset_177 = DEFINED (__vector_dispatch_177)?(. - _ebase_address):__vector_offset_default
 *(.vector_177)
                0x9d000210                . = ALIGN (0x4)
                0x00000228                __vector_offset_178 = DEFINED (__vector_dispatch_178)?(. - _ebase_address):__vector_offset_default
 *(.vector_178)
                0x9d000210                . = ALIGN (0x4)
                0x00000228                __vector_offset_179 = DEFINED (__vector_dispatch_179)?(. - _ebase_address):__vector_offset_default
 *(.vector_179)
                0x9d000210                . = ALIGN (0x4)
                0x00000228                __vector_offset_180 = DEFINED (__vector_dispatch_180)?(. - _ebase_address):__vector_offset_default
 *(.vector_180)
                0x9d000210                . = ALIGN (0x4)
                0x00000228                __vector_offset_181 = DEFINED (__vector_dispatch_181)?(. - _ebase_address):__vector_offset_default
 *(.vector_181)
                0x9d000210                . = ALIGN (0x4)
                0x00000228                __vector_offset_182 = DEFINED (__vector_dispatch_182)?(. - _ebase_address):__vector_offset_default
 *(.vector_182)
                0x9d000210                . = ALIGN (0x4)
                0x00000228                __vector_offset_183 = DEFINED (__vector_dispatch_183)?(. - _ebase_address):__vector_offset_default
 *(.vector_183)
                0x9d000210                . = ALIGN (0x4)
                0x00000228                __vector_offset_184 = DEFINED (__vector_dispatch_184)?(. - _ebase_address):__vector_offset_default
 *(.vector_184)
                0x9d000210                . = ALIGN (0x4)
                0x00000228                __vector_offset_185 = DEFINED (__vector_dispatch_185)?(. - _ebase_address):__vector_offset_default
 *(.vector_185)
                0x9d000210                . = ALIGN (0x4)
                0x00000228                __vector_offset_186 = DEFINED (__vector_dispatch_186)?(. - _ebase_address):__vector_offset_default
 *(.vector_186)
                0x9d000210                . = ALIGN (0x4)
                0x00000228                __vector_offset_187 = DEFINED (__vector_dispatch_187)?(. - _ebase_address):__vector_offset_default
 *(.vector_187)
                0x9d000210                . = ALIGN (0x4)
                0x00000210                __vector_offset_188 = DEFINED (__vector_dispatch_188)?(. - _ebase_address):__vector_offset_default
 *(.vector_188)
 .vector_188    0x9d000210        0x8 build/default/production/_ext/1160401513/interrupts.o
                0x9d000210                __vector_dispatch_188
                0x9d000218                . = ALIGN (0x4)
                0x00000218                __vector_offset_189 = DEFINED (__vector_dispatch_189)?(. - _ebase_address):__vector_offset_default
 *(.vector_189)
 .vector_189    0x9d000218        0x8 build/default/production/_ext/1160401513/interrupts.o
                0x9d000218                __vector_dispatch_189
                0x9d000220                . = ALIGN (0x4)
                0x00000220                __vector_offset_190 = DEFINED (__vector_dispatch_190)?(. - _ebase_address):__vector_offset_default
 *(.vector_190)
 .vector_190    0x9d000220        0x8 build/default/production/_ext/1160401513/interrupts.o
                0x9d000220                __vector_dispatch_190
                0x9d000228                . = ALIGN (0x4)
                0x00000228                __vector_offset_191 = DEFINED (__vector_dispatch_191)?(. - _ebase_address):__vector_offset_default
 *(.vector_191)
                0x9d000228                . = ALIGN (0x4)
                0x00000228                __vector_offset_192 = DEFINED (__vector_dispatch_192)?(. - _ebase_address):__vector_offset_default
 *(.vector_192)
                0x9d000228                . = ALIGN (0x4)
                0x00000228                __vector_offset_193 = DEFINED (__vector_dispatch_193)?(. - _ebase_address):__vector_offset_default
 *(.vector_193)
                0x9d000228                . = ALIGN (0x4)
                0x00000228                __vector_offset_194 = DEFINED (__vector_dispatch_194)?(. - _ebase_address):__vector_offset_default
 *(.vector_194)
                0x9d000228                . = ALIGN (0x4)
                0x00000228                __vector_offset_195 = DEFINED (__vector_dispatch_195)?(. - _ebase_address):__vector_offset_default
 *(.vector_195)
                0x9d000228                . = ALIGN (0x4)
                0x00000228                __vector_offset_196 = DEFINED (__vector_dispatch_196)?(. - _ebase_address):__vector_offset_default
 *(.vector_196)
                0x9d000228                . = ALIGN (0x4)
                0x00000228                __vector_offset_197 = DEFINED (__vector_dispatch_197)?(. - _ebase_address):__vector_offset_default
 *(.vector_197)
                0x9d000228                . = ALIGN (0x4)
                0x00000228                __vector_offset_198 = DEFINED (__vector_dispatch_198)?(. - _ebase_address):__vector_offset_default
 *(.vector_198)
                0x9d000228                . = ALIGN (0x4)
                0x00000228                __vector_offset_199 = DEFINED (__vector_dispatch_199)?(. - _ebase_address):__vector_offset_default
 *(.vector_199)
                0x9d000228                . = ALIGN (0x4)
                0x00000228                __vector_offset_200 = DEFINED (__vector_dispatch_200)?(. - _ebase_address):__vector_offset_default
 *(.vector_200)
                0x9d000228                . = ALIGN (0x4)
                0x00000228                __vector_offset_201 = DEFINED (__vector_dispatch_201)?(. - _ebase_address):__vector_offset_default
 *(.vector_201)
                0x9d000228                . = ALIGN (0x4)
                0x00000228                __vector_offset_202 = DEFINED (__vector_dispatch_202)?(. - _ebase_address):__vector_offset_default
 *(.vector_202)
                0x9d000228                . = ALIGN (0x4)
                0x00000228                __vector_offset_203 = DEFINED (__vector_dispatch_203)?(. - _ebase_address):__vector_offset_default
 *(.vector_203)
                0x9d000228                . = ALIGN (0x4)
                0x00000228                __vector_offset_204 = DEFINED (__vector_dispatch_204)?(. - _ebase_address):__vector_offset_default
 *(.vector_204)
                0x9d000228                . = ALIGN (0x4)
                0x00000228                __vector_offset_205 = DEFINED (__vector_dispatch_205)?(. - _ebase_address):__vector_offset_default
 *(.vector_205)
                0x9d000228                . = ALIGN (0x4)
                0x00000228                __vector_offset_206 = DEFINED (__vector_dispatch_206)?(. - _ebase_address):__vector_offset_default
 *(.vector_206)
                0x9d000228                . = ALIGN (0x4)
                0x00000228                __vector_offset_207 = DEFINED (__vector_dispatch_207)?(. - _ebase_address):__vector_offset_default
 *(.vector_207)
                0x9d000228                . = ALIGN (0x4)
                0x00000228                __vector_offset_208 = DEFINED (__vector_dispatch_208)?(. - _ebase_address):__vector_offset_default
 *(.vector_208)
                0x9d000228                . = ALIGN (0x4)
                0x00000228                __vector_offset_209 = DEFINED (__vector_dispatch_209)?(. - _ebase_address):__vector_offset_default
 *(.vector_209)
                0x9d000228                . = ALIGN (0x4)
                0x00000228                __vector_offset_210 = DEFINED (__vector_dispatch_210)?(. - _ebase_address):__vector_offset_default
 *(.vector_210)
                0x9d000228                . = ALIGN (0x4)
                0x00000228                __vector_offset_211 = DEFINED (__vector_dispatch_211)?(. - _ebase_address):__vector_offset_default
 *(.vector_211)
                0x9d000228                . = ALIGN (0x4)
                0x00000228                __vector_offset_212 = DEFINED (__vector_dispatch_212)?(. - _ebase_address):__vector_offset_default
 *(.vector_212)
                0x9d000228                . = ALIGN (0x4)
                0x00000228                __vector_offset_213 = DEFINED (__vector_dispatch_213)?(. - _ebase_address):__vector_offset_default
 *(.vector_213)
                0x9d000228                . = ALIGN (0x4)
                0x00000228                __vector_offset_214 = DEFINED (__vector_dispatch_214)?(. - _ebase_address):__vector_offset_default
 *(.vector_214)
                0x9d000228                . = ALIGN (0x4)
                0x00000228                __vector_offset_215 = DEFINED (__vector_dispatch_215)?(. - _ebase_address):__vector_offset_default
 *(.vector_215)
                0x9d000228                . = ALIGN (0x4)
                0x00000228                __vector_offset_216 = DEFINED (__vector_dispatch_216)?(. - _ebase_address):__vector_offset_default
 *(.vector_216)
                0x9d000228                . = ALIGN (0x4)
                0x00000228                __vector_offset_217 = DEFINED (__vector_dispatch_217)?(. - _ebase_address):__vector_offset_default
 *(.vector_217)
                0x9d000228                . = ALIGN (0x4)
                0x00000228                __vector_offset_218 = DEFINED (__vector_dispatch_218)?(. - _ebase_address):__vector_offset_default
 *(.vector_218)
                0x9d000228                . = ALIGN (0x4)
                0x00000228                __vector_offset_219 = DEFINED (__vector_dispatch_219)?(. - _ebase_address):__vector_offset_default
 *(.vector_219)
                0x9d000228                . = ALIGN (0x4)
                0x00000228                __vector_offset_220 = DEFINED (__vector_dispatch_220)?(. - _ebase_address):__vector_offset_default
 *(.vector_220)
                0x9d000228                . = ALIGN (0x4)
                0x00000228                __vector_offset_221 = DEFINED (__vector_dispatch_221)?(. - _ebase_address):__vector_offset_default
 *(.vector_221)
                0x9d000228                . = ALIGN (0x4)
                0x00000228                __vector_offset_222 = DEFINED (__vector_dispatch_222)?(. - _ebase_address):__vector_offset_default
 *(.vector_222)
                0x9d000228                . = ALIGN (0x4)
                0x00000228                __vector_offset_223 = DEFINED (__vector_dispatch_223)?(. - _ebase_address):__vector_offset_default
 *(.vector_223)
                0x9d000228                . = ALIGN (0x4)
                0x00000228                __vector_offset_224 = DEFINED (__vector_dispatch_224)?(. - _ebase_address):__vector_offset_default
 *(.vector_224)
                0x9d000228                . = ALIGN (0x4)
                0x00000228                __vector_offset_225 = DEFINED (__vector_dispatch_225)?(. - _ebase_address):__vector_offset_default
 *(.vector_225)
                0x9d000228                . = ALIGN (0x4)
                0x00000228                __vector_offset_226 = DEFINED (__vector_dispatch_226)?(. - _ebase_address):__vector_offset_default
 *(.vector_226)
                0x9d000228                . = ALIGN (0x4)
                0x00000228                __vector_offset_227 = DEFINED (__vector_dispatch_227)?(. - _ebase_address):__vector_offset_default
 *(.vector_227)
                0x9d000228                . = ALIGN (0x4)
                0x00000228                __vector_offset_228 = DEFINED (__vector_dispatch_228)?(. - _ebase_address):__vector_offset_default
 *(.vector_228)
                0x9d000228                . = ALIGN (0x4)
                0x00000228                __vector_offset_229 = DEFINED (__vector_dispatch_229)?(. - _ebase_address):__vector_offset_default
 *(.vector_229)
                0x9d000228                . = ALIGN (0x4)
                0x00000228                __vector_offset_230 = DEFINED (__vector_dispatch_230)?(. - _ebase_address):__vector_offset_default
 *(.vector_230)
                0x9d000228                . = ALIGN (0x4)
                0x00000228                __vector_offset_231 = DEFINED (__vector_dispatch_231)?(. - _ebase_address):__vector_offset_default
 *(.vector_231)
                0x9d000228                . = ALIGN (0x4)
                0x00000228                __vector_offset_232 = DEFINED (__vector_dispatch_232)?(. - _ebase_address):__vector_offset_default
 *(.vector_232)
                0x9d000228                . = ALIGN (0x4)
                0x00000228                __vector_offset_233 = DEFINED (__vector_dispatch_233)?(. - _ebase_address):__vector_offset_default
 *(.vector_233)
                0x9d000228                . = ALIGN (0x4)
                0x00000228                __vector_offset_234 = DEFINED (__vector_dispatch_234)?(. - _ebase_address):__vector_offset_default
 *(.vector_234)
                0x9d000228                . = ALIGN (0x4)
                0x00000228                __vector_offset_235 = DEFINED (__vector_dispatch_235)?(. - _ebase_address):__vector_offset_default
 *(.vector_235)
                0x9d000228                . = ALIGN (0x4)
                0x00000228                __vector_offset_236 = DEFINED (__vector_dispatch_236)?(. - _ebase_address):__vector_offset_default
 *(.vector_236)
                0x9d000228                . = ALIGN (0x4)
                0x00000228                __vector_offset_237 = DEFINED (__vector_dispatch_237)?(. - _ebase_address):__vector_offset_default
 *(.vector_237)
                0x9d000228                . = ALIGN (0x4)
                0x00000228                __vector_offset_238 = DEFINED (__vector_dispatch_238)?(. - _ebase_address):__vector_offset_default
 *(.vector_238)
                0x9d000228                . = ALIGN (0x4)
                0x00000228                __vector_offset_239 = DEFINED (__vector_dispatch_239)?(. - _ebase_address):__vector_offset_default
 *(.vector_239)
                0x9d000228                . = ALIGN (0x4)
                0x00000228                __vector_offset_240 = DEFINED (__vector_dispatch_240)?(. - _ebase_address):__vector_offset_default
 *(.vector_240)
                0x9d000228                . = ALIGN (0x4)
                0x00000228                __vector_offset_241 = DEFINED (__vector_dispatch_241)?(. - _ebase_address):__vector_offset_default
 *(.vector_241)
                0x9d000228                . = ALIGN (0x4)
                0x00000228                __vector_offset_242 = DEFINED (__vector_dispatch_242)?(. - _ebase_address):__vector_offset_default
 *(.vector_242)
                0x9d000228                . = ALIGN (0x4)
                0x00000228                __vector_offset_243 = DEFINED (__vector_dispatch_243)?(. - _ebase_address):__vector_offset_default
 *(.vector_243)
                0x9d000228                . = ALIGN (0x4)
                0x00000228                __vector_offset_244 = DEFINED (__vector_dispatch_244)?(. - _ebase_address):__vector_offset_default
 *(.vector_244)
                0x9d000228                . = ALIGN (0x4)
                0x00000228                __vector_offset_245 = DEFINED (__vector_dispatch_245)?(. - _ebase_address):__vector_offset_default
 *(.vector_245)
                0x9d000228                . = ALIGN (0x4)
                0x00000228                __vector_offset_246 = DEFINED (__vector_dispatch_246)?(. - _ebase_address):__vector_offset_default
 *(.vector_246)
                0x9d000228                . = ALIGN (0x4)
                0x00000228                __vector_offset_247 = DEFINED (__vector_dispatch_247)?(. - _ebase_address):__vector_offset_default
 *(.vector_247)
                0x9d000228                . = ALIGN (0x4)
                0x00000228                __vector_offset_248 = DEFINED (__vector_dispatch_248)?(. - _ebase_address):__vector_offset_default
 *(.vector_248)
                0x9d000228                . = ALIGN (0x4)
                0x00000228                __vector_offset_249 = DEFINED (__vector_dispatch_249)?(. - _ebase_address):__vector_offset_default
 *(.vector_249)
                0x9d000228                . = ALIGN (0x4)
                0x00000228                __vector_offset_250 = DEFINED (__vector_dispatch_250)?(. - _ebase_address):__vector_offset_default
 *(.vector_250)
                0x9d000228                . = ALIGN (0x4)
                0x00000228                __vector_offset_251 = DEFINED (__vector_dispatch_251)?(. - _ebase_address):__vector_offset_default
 *(.vector_251)
                0x9d000228                . = ALIGN (0x4)
                0x00000228                __vector_offset_252 = DEFINED (__vector_dispatch_252)?(. - _ebase_address):__vector_offset_default
 *(.vector_252)
                0x9d000228                . = ALIGN (0x4)
                0x00000228                __vector_offset_253 = DEFINED (__vector_dispatch_253)?(. - _ebase_address):__vector_offset_default
 *(.vector_253)
                0x9d000228                . = ALIGN (0x4)
                0x00000228                __vector_offset_254 = DEFINED (__vector_dispatch_254)?(. - _ebase_address):__vector_offset_default
 *(.vector_254)
                0x9d000228                . = ALIGN (0x4)
                0x00000228                __vector_offset_255 = DEFINED (__vector_dispatch_255)?(. - _ebase_address):__vector_offset_default
 *(.vector_255)
                0x9d000228                . = ALIGN (0x4)
                0x00000228                __vector_offset_default = (. - _ebase_address)
 *(.vector_default)
 .vector_default
                0x9d000228       0x48 c:/program files (x86)/microchip/xc32/v2.15/bin/bin/../../lib/gcc/pic32mx/4.8.3/../../../../pic32mx/lib/fpu64\libpic32.a(defaultinterrupt.o)
                0x9d000228                _DefaultInterrupt

.startup
 *(.startup)

.text           0x9d000270     0x11e8
 *(.stub .gnu.linkonce.t.*)
 .gnu.linkonce.t._ZNKSt9bad_alloc4whatEv
                0x9d000270        0xc build/default/production/_ext/1003616436/main.o
                0x9d000270                std::bad_alloc::what() const
 .gnu.linkonce.t._ZNSt9bad_allocD1Ev
                0x9d00027c       0x24 build/default/production/_ext/1003616436/main.o
                0x9d00027c                std::bad_alloc::~bad_alloc()
 .gnu.linkonce.t._ZNSt9bad_allocD0Ev
                0x9d0002a0       0x38 build/default/production/_ext/1003616436/main.o
                0x9d0002a0                std::bad_alloc::~bad_alloc()
 .gnu.linkonce.t._ZNSs5_TidyEbm
                0x9d0002d8       0x74 build/default/production/_ext/1003616436/main.o
                0x9d0002d8                std::string::_Tidy(bool, unsigned long)
 .gnu.linkonce.t._ZSt9_AllocateIcEPT_mS1_
                0x9d00034c       0x5c build/default/production/_ext/1003616436/main.o
                0x9d00034c                char* std::_Allocate<char>(unsigned long, char*)
 .gnu.linkonce.t._ZNSsC1EPKc
                0x9d0003a8      0x32c build/default/production/_ext/1003616436/main.o
                0x9d0003a8                std::basic_string<char, std::char_traits<char>, std::allocator<char> >::basic_string(char const*)
 .gnu.linkonce.t._ZNKSt11logic_error4whatEv
                0x9d0006d4       0x20 c:/program files (x86)/microchip/xc32/v2.15/bin/bin/../../lib/gcc/pic32mx/4.8.3/../../../../pic32mx/lib/fpu64\libxcpp.a(xthrow.o)
                0x9d0006d4                std::logic_error::what() const
 .gnu.linkonce.t._ZNSt11logic_errorD1Ev
                0x9d0006f4       0x58 c:/program files (x86)/microchip/xc32/v2.15/bin/bin/../../lib/gcc/pic32mx/4.8.3/../../../../pic32mx/lib/fpu64\libxcpp.a(xthrow.o)
                0x9d0006f4                std::logic_error::~logic_error()
 .gnu.linkonce.t._ZNSt12out_of_rangeD0Ev
                0x9d00074c       0x60 c:/program files (x86)/microchip/xc32/v2.15/bin/bin/../../lib/gcc/pic32mx/4.8.3/../../../../pic32mx/lib/fpu64\libxcpp.a(xthrow.o)
                0x9d00074c                std::out_of_range::~out_of_range()
 .gnu.linkonce.t._ZNSt11logic_errorD0Ev
                0x9d0007ac       0x60 c:/program files (x86)/microchip/xc32/v2.15/bin/bin/../../lib/gcc/pic32mx/4.8.3/../../../../pic32mx/lib/fpu64\libxcpp.a(xthrow.o)
                0x9d0007ac                std::logic_error::~logic_error()
 .gnu.linkonce.t._ZNSt12length_errorD1Ev
                0x9d00080c       0x58 c:/program files (x86)/microchip/xc32/v2.15/bin/bin/../../lib/gcc/pic32mx/4.8.3/../../../../pic32mx/lib/fpu64\libxcpp.a(xthrow.o)
                0x9d00080c                std::length_error::~length_error()
 .gnu.linkonce.t._ZNSt12out_of_rangeD1Ev
                0x9d000864       0x58 c:/program files (x86)/microchip/xc32/v2.15/bin/bin/../../lib/gcc/pic32mx/4.8.3/../../../../pic32mx/lib/fpu64\libxcpp.a(xthrow.o)
                0x9d000864                std::out_of_range::~out_of_range()
 .gnu.linkonce.t._ZNSt12length_errorD0Ev
                0x9d0008bc       0x60 c:/program files (x86)/microchip/xc32/v2.15/bin/bin/../../lib/gcc/pic32mx/4.8.3/../../../../pic32mx/lib/fpu64\libxcpp.a(xthrow.o)
                0x9d0008bc                std::length_error::~length_error()
 .gnu.linkonce.t._ZNSt11logic_errorC2EPKc
                0x9d00091c      0x604 c:/program files (x86)/microchip/xc32/v2.15/bin/bin/../../lib/gcc/pic32mx/4.8.3/../../../../pic32mx/lib/fpu64\libxcpp.a(xthrow.o)
                0x9d00091c                std::logic_error::logic_error(char const*)
 *(.text.*personality*)
 .text.__gxx_personality_sj0
                0x9d000f20      0x538 c:/program files (x86)/microchip/xc32/v2.15/bin/bin/../../lib/gcc/pic32mx/4.8.3/../../../../pic32mx/lib/fpu64\libsupc++.a(eh_personality.o)
                0x9d000f20                __gxx_personality_sj0
 *(.mips16.fn.*)
 *(.mips16.call.*)
 *(.gnu.warning)
                0x9d001458                . = ALIGN (0x4)

.init           0x9d001458       0x24
 *crti.o(.init)
 .init          0x9d001458        0x8 c:/program files (x86)/microchip/xc32/v2.15/bin/bin/../../lib/gcc/pic32mx/4.8.3/fpu64/crti.o
                0x9d001458                _init
 *crtbegin.o(.init)
 .init          0x9d001460        0x8 c:/program files (x86)/microchip/xc32/v2.15/bin/bin/../../lib/gcc/pic32mx/4.8.3/fpu64/crtbegin.o
 *(EXCLUDE_FILE(*crtn.o *crtend?.o *crtend.o) .init)
 *crtend.o(.init)
 .init          0x9d001468        0x8 c:/program files (x86)/microchip/xc32/v2.15/bin/bin/../../lib/gcc/pic32mx/4.8.3/fpu64/crtend.o
 *crtn.o(.init)
 .init          0x9d001470        0xc c:/program files (x86)/microchip/xc32/v2.15/bin/bin/../../lib/gcc/pic32mx/4.8.3/fpu64/crtn.o
                0x9d00147c                . = ALIGN (0x4)

.fini           0x9d00147c       0x1c
 *(.fini)
 .fini          0x9d00147c        0x8 c:/program files (x86)/microchip/xc32/v2.15/bin/bin/../../lib/gcc/pic32mx/4.8.3/fpu64/crti.o
                0x9d00147c                _fini
 .fini          0x9d001484        0x8 c:/program files (x86)/microchip/xc32/v2.15/bin/bin/../../lib/gcc/pic32mx/4.8.3/fpu64/crtbegin.o
 .fini          0x9d00148c        0xc c:/program files (x86)/microchip/xc32/v2.15/bin/bin/../../lib/gcc/pic32mx/4.8.3/fpu64/crtn.o
                0x9d001498                . = ALIGN (0x4)

.preinit_array  0x9d001498        0x0
                0x9d001498                PROVIDE (__preinit_array_start, .)
 *(.preinit_array)
                0x9d001498                PROVIDE (__preinit_array_end, .)
                0x9d001498                . = ALIGN (0x4)

.init_array     0x9d001498        0x0
                0x9d001498                PROVIDE (__init_array_start, .)
 *(SORT(.init_array.*))
 *(.init_array)
                0x9d001498                PROVIDE (__init_array_end, .)
                0x9d001498                . = ALIGN (0x4)

.fini_array     0x9d001498        0x0
                0x9d001498                PROVIDE (__fini_array_start, .)
 *(SORT(.fini_array.*))
 *(.fini_array)
                0x9d001498                PROVIDE (__fini_array_end, .)
                0x9d001498                . = ALIGN (0x4)

.ctors          0x9d001498        0xc
 *crtbegin.o(.ctors)
 .ctors         0x9d001498        0x4 c:/program files (x86)/microchip/xc32/v2.15/bin/bin/../../lib/gcc/pic32mx/4.8.3/fpu64/crtbegin.o
 *crtbegin?.o(.ctors)
 *(EXCLUDE_FILE(*crtend?.o *crtend.o) .ctors)
 .ctors         0x9d00149c        0x4 build/default/production/_ext/1003616436/main.o
 *(SORT(.ctors.*))
 *(.ctors)
 .ctors         0x9d0014a0        0x4 c:/program files (x86)/microchip/xc32/v2.15/bin/bin/../../lib/gcc/pic32mx/4.8.3/fpu64/crtend.o
                0x9d0014a4                . = ALIGN (0x4)

.dtors          0x9d0014a4        0xc
 *crtbegin.o(.dtors)
 .dtors         0x9d0014a4        0x4 c:/program files (x86)/microchip/xc32/v2.15/bin/bin/../../lib/gcc/pic32mx/4.8.3/fpu64/crtbegin.o
 *crtbegin?.o(.dtors)
 *(EXCLUDE_FILE(*crtend?.o *crtend.o) .dtors)
 .dtors         0x9d0014a8        0x4 build/default/production/_ext/1003616436/main.o
 *(SORT(.dtors.*))
 *(.dtors)
 .dtors         0x9d0014ac        0x4 c:/program files (x86)/microchip/xc32/v2.15/bin/bin/../../lib/gcc/pic32mx/4.8.3/fpu64/crtend.o
                0x9d0014ac                __DTOR_END__
                0x9d0014b0                . = ALIGN (0x4)

.rodata         0x9d0014b0      0x23c
 *(.gnu.linkonce.r.*)
 .gnu.linkonce.r._ZTISt9bad_alloc
                0x9d0014b0        0xc build/default/production/_ext/1003616436/main.o
                0x9d0014b0                typeinfo for std::bad_alloc
 .gnu.linkonce.r._ZTSSt9bad_alloc
                0x9d0014bc       0x10 build/default/production/_ext/1003616436/main.o
                0x9d0014bc                typeinfo name for std::bad_alloc
 .gnu.linkonce.r._ZTVSt9bad_alloc
                0x9d0014cc       0x14 build/default/production/_ext/1003616436/main.o
                0x9d0014cc                vtable for std::bad_alloc
 .gnu.linkonce.r._ZTSN10__cxxabiv117__class_type_infoE._ZTSN10__cxxabiv117__class_type_infoE
                0x9d0014e0       0x24 c:/program files (x86)/microchip/xc32/v2.15/bin/bin/../../lib/gcc/pic32mx/4.8.3/../../../../pic32mx/lib/fpu64\libsupc++.a(class_type_info.o)
                0x9d0014e0                typeinfo name for __cxxabiv1::__class_type_info
 .gnu.linkonce.r._ZTIN10__cxxabiv117__class_type_infoE._ZTIN10__cxxabiv117__class_type_infoE
                0x9d001504        0xc c:/program files (x86)/microchip/xc32/v2.15/bin/bin/../../lib/gcc/pic32mx/4.8.3/../../../../pic32mx/lib/fpu64\libsupc++.a(class_type_info.o)
                0x9d001504                typeinfo for __cxxabiv1::__class_type_info
 .gnu.linkonce.r._ZTVN10__cxxabiv117__class_type_infoE._ZTVN10__cxxabiv117__class_type_infoE
                0x9d001510       0x2c c:/program files (x86)/microchip/xc32/v2.15/bin/bin/../../lib/gcc/pic32mx/4.8.3/../../../../pic32mx/lib/fpu64\libsupc++.a(class_type_info.o)
                0x9d001510                vtable for __cxxabiv1::__class_type_info
 .gnu.linkonce.r._ZTSSt9exception._ZTSSt9exception
                0x9d00153c       0x10 c:/program files (x86)/microchip/xc32/v2.15/bin/bin/../../lib/gcc/pic32mx/4.8.3/../../../../pic32mx/lib/fpu64\libsupc++.a(eh_exception.o)
                0x9d00153c                typeinfo name for std::exception
 .gnu.linkonce.r._ZTISt9exception._ZTISt9exception
                0x9d00154c        0x8 c:/program files (x86)/microchip/xc32/v2.15/bin/bin/../../lib/gcc/pic32mx/4.8.3/../../../../pic32mx/lib/fpu64\libsupc++.a(eh_exception.o)
                0x9d00154c                typeinfo for std::exception
 .gnu.linkonce.r._ZTSN10__cxxabiv115__forced_unwindE._ZTSN10__cxxabiv115__forced_unwindE
                0x9d001554       0x20 c:/program files (x86)/microchip/xc32/v2.15/bin/bin/../../lib/gcc/pic32mx/4.8.3/../../../../pic32mx/lib/fpu64\libsupc++.a(eh_exception.o)
                0x9d001554                typeinfo name for __cxxabiv1::__forced_unwind
 .gnu.linkonce.r._ZTIN10__cxxabiv115__forced_unwindE._ZTIN10__cxxabiv115__forced_unwindE
                0x9d001574        0x8 c:/program files (x86)/microchip/xc32/v2.15/bin/bin/../../lib/gcc/pic32mx/4.8.3/../../../../pic32mx/lib/fpu64\libsupc++.a(eh_exception.o)
                0x9d001574                typeinfo for __cxxabiv1::__forced_unwind
 .gnu.linkonce.r._ZTSN10__cxxabiv119__foreign_exceptionE._ZTSN10__cxxabiv119__foreign_exceptionE
                0x9d00157c       0x24 c:/program files (x86)/microchip/xc32/v2.15/bin/bin/../../lib/gcc/pic32mx/4.8.3/../../../../pic32mx/lib/fpu64\libsupc++.a(eh_exception.o)
                0x9d00157c                typeinfo name for __cxxabiv1::__foreign_exception
 .gnu.linkonce.r._ZTIN10__cxxabiv119__foreign_exceptionE._ZTIN10__cxxabiv119__foreign_exceptionE
                0x9d0015a0        0x8 c:/program files (x86)/microchip/xc32/v2.15/bin/bin/../../lib/gcc/pic32mx/4.8.3/../../../../pic32mx/lib/fpu64\libsupc++.a(eh_exception.o)
                0x9d0015a0                typeinfo for __cxxabiv1::__foreign_exception
 .gnu.linkonce.r._ZTVSt9exception._ZTVSt9exception
                0x9d0015a8       0x14 c:/program files (x86)/microchip/xc32/v2.15/bin/bin/../../lib/gcc/pic32mx/4.8.3/../../../../pic32mx/lib/fpu64\libsupc++.a(eh_exception.o)
                0x9d0015a8                vtable for std::exception
 .gnu.linkonce.r._ZTSN10__cxxabiv120__si_class_type_infoE._ZTSN10__cxxabiv120__si_class_type_infoE
                0x9d0015bc       0x28 c:/program files (x86)/microchip/xc32/v2.15/bin/bin/../../lib/gcc/pic32mx/4.8.3/../../../../pic32mx/lib/fpu64\libsupc++.a(si_class_type_info.o)
                0x9d0015bc                typeinfo name for __cxxabiv1::__si_class_type_info
 .gnu.linkonce.r._ZTIN10__cxxabiv120__si_class_type_infoE._ZTIN10__cxxabiv120__si_class_type_infoE
                0x9d0015e4        0xc c:/program files (x86)/microchip/xc32/v2.15/bin/bin/../../lib/gcc/pic32mx/4.8.3/../../../../pic32mx/lib/fpu64\libsupc++.a(si_class_type_info.o)
                0x9d0015e4                typeinfo for __cxxabiv1::__si_class_type_info
 .gnu.linkonce.r._ZTVN10__cxxabiv120__si_class_type_infoE._ZTVN10__cxxabiv120__si_class_type_infoE
                0x9d0015f0       0x2c c:/program files (x86)/microchip/xc32/v2.15/bin/bin/../../lib/gcc/pic32mx/4.8.3/../../../../pic32mx/lib/fpu64\libsupc++.a(si_class_type_info.o)
                0x9d0015f0                vtable for __cxxabiv1::__si_class_type_info
 .gnu.linkonce.r._ZTSSt9type_info._ZTSSt9type_info
                0x9d00161c       0x10 c:/program files (x86)/microchip/xc32/v2.15/bin/bin/../../lib/gcc/pic32mx/4.8.3/../../../../pic32mx/lib/fpu64\libsupc++.a(tinfo.o)
                0x9d00161c                typeinfo name for std::type_info
 .gnu.linkonce.r._ZTISt9type_info._ZTISt9type_info
                0x9d00162c        0x8 c:/program files (x86)/microchip/xc32/v2.15/bin/bin/../../lib/gcc/pic32mx/4.8.3/../../../../pic32mx/lib/fpu64\libsupc++.a(tinfo.o)
                0x9d00162c                typeinfo for std::type_info
 .gnu.linkonce.r._ZTVSt9type_info._ZTVSt9type_info
                0x9d001634       0x20 c:/program files (x86)/microchip/xc32/v2.15/bin/bin/../../lib/gcc/pic32mx/4.8.3/../../../../pic32mx/lib/fpu64\libsupc++.a(tinfo.o)
                0x9d001634                vtable for std::type_info
 .gnu.linkonce.r._ZTISt11logic_error
                0x9d001654        0xc c:/program files (x86)/microchip/xc32/v2.15/bin/bin/../../lib/gcc/pic32mx/4.8.3/../../../../pic32mx/lib/fpu64\libxcpp.a(xthrow.o)
                0x9d001654                typeinfo for std::logic_error
 .gnu.linkonce.r._ZTSSt11logic_error
                0x9d001660       0x10 c:/program files (x86)/microchip/xc32/v2.15/bin/bin/../../lib/gcc/pic32mx/4.8.3/../../../../pic32mx/lib/fpu64\libxcpp.a(xthrow.o)
                0x9d001660                typeinfo name for std::logic_error
 .gnu.linkonce.r._ZTISt12length_error
                0x9d001670        0xc c:/program files (x86)/microchip/xc32/v2.15/bin/bin/../../lib/gcc/pic32mx/4.8.3/../../../../pic32mx/lib/fpu64\libxcpp.a(xthrow.o)
                0x9d001670                typeinfo for std::length_error
 .gnu.linkonce.r._ZTSSt12length_error
                0x9d00167c       0x14 c:/program files (x86)/microchip/xc32/v2.15/bin/bin/../../lib/gcc/pic32mx/4.8.3/../../../../pic32mx/lib/fpu64\libxcpp.a(xthrow.o)
                0x9d00167c                typeinfo name for std::length_error
 .gnu.linkonce.r._ZTISt12out_of_range
                0x9d001690        0xc c:/program files (x86)/microchip/xc32/v2.15/bin/bin/../../lib/gcc/pic32mx/4.8.3/../../../../pic32mx/lib/fpu64\libxcpp.a(xthrow.o)
                0x9d001690                typeinfo for std::out_of_range
 .gnu.linkonce.r._ZTSSt12out_of_range
                0x9d00169c       0x14 c:/program files (x86)/microchip/xc32/v2.15/bin/bin/../../lib/gcc/pic32mx/4.8.3/../../../../pic32mx/lib/fpu64\libxcpp.a(xthrow.o)
                0x9d00169c                typeinfo name for std::out_of_range
 .gnu.linkonce.r._ZTVSt11logic_error
                0x9d0016b0       0x14 c:/program files (x86)/microchip/xc32/v2.15/bin/bin/../../lib/gcc/pic32mx/4.8.3/../../../../pic32mx/lib/fpu64\libxcpp.a(xthrow.o)
                0x9d0016b0                vtable for std::logic_error
 .gnu.linkonce.r._ZTVSt12length_error
                0x9d0016c4       0x14 c:/program files (x86)/microchip/xc32/v2.15/bin/bin/../../lib/gcc/pic32mx/4.8.3/../../../../pic32mx/lib/fpu64\libxcpp.a(xthrow.o)
                0x9d0016c4                vtable for std::length_error
 .gnu.linkonce.r._ZTVSt12out_of_range
                0x9d0016d8       0x14 c:/program files (x86)/microchip/xc32/v2.15/bin/bin/../../lib/gcc/pic32mx/4.8.3/../../../../pic32mx/lib/fpu64\libxcpp.a(xthrow.o)
                0x9d0016d8                vtable for std::out_of_range
 *(.rodata1)
                0x9d0016ec                . = ALIGN (0x4)

.sdata2         0x9d0016ec        0x0
 *(.sdata2 .sdata2.* .gnu.linkonce.s2.*)
                0x9d0016ec                . = ALIGN (0x4)

.sbss2          0x9d0016ec        0x0
 *(.sbss2 .sbss2.* .gnu.linkonce.sb2.*)
                0x9d0016ec                . = ALIGN (0x4)

.eh_frame_hdr
 *(.eh_frame_hdr)
                0x9d0016ec                . = ALIGN (0x4)

.eh_frame
 *(.eh_frame)
                0x9d0016ec                . = ALIGN (0x4)

.gcc_except_table
 *(.gcc_except_table .gcc_except_table.*)
                0x9d0016ec                . = ALIGN (0x4)

.dbg_data       0x80000000        0x0
                0x80000000                . = (. + DEFINED (_DEBUGGER)?0x200:0x0)
                0x80000000                . = (. + DEFINED (_DEBUGGER)?0x80:0x0)
                0x80000000                . = (. + DEFINED (_DEBUGGER)?0x100:0x0)

.jcr            0x80000000        0x4
 *(.jcr)
 .jcr           0x80000000        0x0 c:/program files (x86)/microchip/xc32/v2.15/bin/bin/../../lib/gcc/pic32mx/4.8.3/fpu64/crtbegin.o
 .jcr           0x80000000        0x4 c:/program files (x86)/microchip/xc32/v2.15/bin/bin/../../lib/gcc/pic32mx/4.8.3/fpu64/crtend.o
                0x80000004                . = ALIGN (0x4)

.eh_frame       0x80000004        0x4
 *(.eh_frame)
 .eh_frame      0x80000004        0x0 c:/program files (x86)/microchip/xc32/v2.15/bin/bin/../../lib/gcc/pic32mx/4.8.3/fpu64/crtbegin.o
 .eh_frame      0x80000004        0x4 c:/program files (x86)/microchip/xc32/v2.15/bin/bin/../../lib/gcc/pic32mx/4.8.3/fpu64/crtend.o
                0x80000008                . = ALIGN (0x4)

.gcc_except_table
                0x80000008       0x94
 *(.gcc_except_table .gcc_except_table.*)
 .gcc_except_table
                0x80000008       0x14 build/default/production/_ext/1003616436/main.o
 .gcc_except_table
                0x8000001c       0x20 c:/program files (x86)/microchip/xc32/v2.15/bin/bin/../../lib/gcc/pic32mx/4.8.3/../../../../pic32mx/lib/fpu64\libsupc++.a(eh_personality.o)
 .gcc_except_table
                0x8000003c       0x10 c:/program files (x86)/microchip/xc32/v2.15/bin/bin/../../lib/gcc/pic32mx/4.8.3/../../../../pic32mx/lib/fpu64\libsupc++.a(eh_terminate.o)
 .gcc_except_table
                0x8000004c       0x50 c:/program files (x86)/microchip/xc32/v2.15/bin/bin/../../lib/gcc/pic32mx/4.8.3/../../../../pic32mx/lib/fpu64\libxcpp.a(xthrow.o)
                0x8000009c                . = ALIGN (0x4)

.persist        0x8000009c        0x0
                0x8000009c                _persist_begin = .
 *(.persist .persist.*)
                0x8000009c                . = ALIGN (0x4)
                0x8000009c                _persist_end = .

.data           0x8000009c        0x0
 *(.gnu.linkonce.d.*)
 *(.data1)
                0x8000009c                . = ALIGN (0x4)
                0x8000009c                . = .
                0x80008090                _gp = (ALIGN (0x10) + 0x7ff0)

.got            0x8000009c        0x0
 *(.got.plt)
 *(.got)
                0x8000009c                . = ALIGN (0x4)

.sdata          0x8000009c       0x38
                0x8000009c                _sdata_begin = .
 *(.sdata .sdata.* .gnu.linkonce.s.*)
 .sdata         0x8000009c        0x4 c:/program files (x86)/microchip/xc32/v2.15/bin/bin/../../lib/gcc/pic32mx/4.8.3/fpu64/crtbegin.o
                0x8000009c                __dso_handle
 .sdata         0x800000a0        0x4 build/default/production/_ext/1465287765/plib_coretimer.o
 .sdata         0x800000a4        0x2 build/default/production/_ext/1003616436/main.o
                0x800000a4                writeComplete
                0x800000a5                readComplete
 *fill*         0x800000a6        0x2 
 .sdata         0x800000a8        0x8 build/default/production/_ext/1003616436/usb_com_port.o
 .sdata         0x800000b0       0x24 c:/program files (x86)/microchip/xc32/v2.15/bin/bin/../../lib/gcc/pic32mx/4.8.3/../../../../pic32mx/lib/fpu64\libpic32.a(pic32_init_cache.o)
                0x800000b0                __pic32_icache_size
                0x800000b4                __pic32_icache_linesize
                0x800000b8                __pic32_icache_ways
                0x800000bc                __pic32_dcache_size
                0x800000c0                __pic32_dcache_linesize
                0x800000c4                __pic32_dcache_ways
                0x800000c8                __pic32_scache_size
                0x800000cc                __pic32_scache_linesize
                0x800000d0                __pic32_scache_ways
                0x800000d4                . = ALIGN (0x4)
                0x800000d4                _sdata_end = .

.lit8
 *(.lit8)

.lit4
 *(.lit4)
                0x800000d4                . = ALIGN (0x4)
                0x800000d4                _data_end = .
                0x800000d4                _bss_begin = .

.sbss           0x800000d4       0x28
                0x800000d4                _sbss_begin = .
 *(.dynsbss)
 *(.sbss .sbss.* .gnu.linkonce.sb.*)
 .sbss          0x800000d4        0x8 build/default/production/_ext/1160401513/exceptions.o
 .sbss          0x800000dc       0x14 build/default/production/_ext/1003616436/main.o
                0x800000dc                usbError
                0x800000e0                writeBufferBytes
                0x800000e4                readBufferBytes
                0x800000e8                UART6_Error
                0x800000ec                rxByte
 *(.scommon)
 .scommon       0x800000f0        0x2 build/default/production/_ext/763370911/usb_device_cdc.o
                0x800000f0                gUSBDeviceCdcCommonDataObj
 *fill*         0x800000f2        0x2 
 .scommon       0x800000f4        0x8 build/default/production/_ext/1160401513/initialization.o
                0x800000f4                sysObj
                0x800000fc                _sbss_end = .
                0x800000fc                . = ALIGN (0x4)

.bss            0x800000fc      0x2d0
 *(.dynbss)
 *(COMMON)
 COMMON         0x800000fc      0x1d4 build/default/production/_ext/490896790/drv_usbhs.o
                0x800000fc                gDrvUSBEndpoints
                0x8000019c                gDrvUSBObj
 COMMON         0x800002d0       0x30 build/default/production/_ext/301408759/plib_uart6.o
                0x800002d0                uart6Obj
 COMMON         0x80000300       0xac build/default/production/_ext/763370911/usb_device_cdc.o
                0x80000300                gUSBDeviceCDCInstance
                0x80000340                gUSBDeviceCDCIRP
 COMMON         0x800003ac       0x20 build/default/production/_ext/1003616436/app.o
                0x800003ac                g_appData
                0x800003cc                . = ALIGN ((. != 0x0)?0x4:0x1)
                0x800003cc                . = ALIGN (0x4)
                0x800003cc                _end = .
                0x800003cc                _bss_end = .
                0x00080000                _bmxdudba_address = 0x80000
                0x00080000                _bmxdupba_address = 0x80000

/DISCARD/
 *(.pdr)
 *(.rel.dyn)
 *(.note.GNU-stack)
 *(.note.GNU-stack)
 *(.gnu_debuglink)
 *(.gnu.lto_*)
 *(.discard)

.gptab.sdata
 *(.gptab.data)
 *(.gptab.sdata)

.gptab.sbss
 *(.gptab.bss)
 *(.gptab.sbss)

.mdebug.abi32   0x00000000        0x0
 *(.mdebug.abi32)
 .mdebug.abi32  0x00000000        0x0 c:/program files (x86)/microchip/xc32/v2.15/bin/bin/../../lib/gcc/pic32mx/4.8.3/fpu64/crtbegin.o
 .mdebug.abi32  0x00000000        0x0 build/default/production/_ext/694295097/bsp.o
 .mdebug.abi32  0x00000000        0x0 build/default/production/_ext/490896790/drv_usbhs.o
 .mdebug.abi32  0x00000000        0x0 build/default/production/_ext/490896790/drv_usbhs_device.o
 .mdebug.abi32  0x00000000        0x0 build/default/production/_ext/2068470151/plib_clk.o
 .mdebug.abi32  0x00000000        0x0 build/default/production/_ext/1465287765/plib_coretimer.o
 .mdebug.abi32  0x00000000        0x0 build/default/production/_ext/301865530/plib_evic.o
 .mdebug.abi32  0x00000000        0x0 build/default/production/_ext/301811702/plib_gpio.o
 .mdebug.abi32  0x00000000        0x0 build/default/production/_ext/301585742/plib_ocmp8.o
 .mdebug.abi32  0x00000000        0x0 build/default/production/_ext/301585742/plib_ocmp5.o
 .mdebug.abi32  0x00000000        0x0 build/default/production/_ext/301585742/plib_ocmp3.o
 .mdebug.abi32  0x00000000        0x0 build/default/production/_ext/2068486526/plib_tmr2.o
 .mdebug.abi32  0x00000000        0x0 build/default/production/_ext/301408759/plib_uart6.o
 .mdebug.abi32  0x00000000        0x0 build/default/production/_ext/1481935855/xc32_monitor.o
 .mdebug.abi32  0x00000000        0x0 build/default/production/_ext/404994212/sys_int.o
 .mdebug.abi32  0x00000000        0x0 build/default/production/_ext/763370911/usb_device.o
 .mdebug.abi32  0x00000000        0x0 build/default/production/_ext/763370911/usb_device_cdc.o
 .mdebug.abi32  0x00000000        0x0 build/default/production/_ext/763370911/usb_device_cdc_acm.o
 .mdebug.abi32  0x00000000        0x0 build/default/production/_ext/1160401513/initialization.o
 .mdebug.abi32  0x00000000        0x0 build/default/production/_ext/1160401513/interrupts.o
 .mdebug.abi32  0x00000000        0x0 build/default/production/_ext/1160401513/exceptions.o
 .mdebug.abi32  0x00000000        0x0 build/default/production/_ext/1160401513/usb_device_init_data.o
 .mdebug.abi32  0x00000000        0x0 build/default/production/_ext/1160401513/tasks.o
 .mdebug.abi32  0x00000000        0x0 build/default/production/_ext/1003616436/app.o
 .mdebug.abi32  0x00000000        0x0 build/default/production/_ext/1003616436/main.o
 .mdebug.abi32  0x00000000        0x0 build/default/production/_ext/1003616436/usb_com_port.o
 .mdebug.abi32  0x00000000        0x0 c:/program files (x86)/microchip/xc32/v2.15/bin/bin/../../lib/gcc/pic32mx/4.8.3/../../../../pic32mx/lib/fpu64\libsupc++.a(class_type_info.o)
 .mdebug.abi32  0x00000000        0x0 c:/program files (x86)/microchip/xc32/v2.15/bin/bin/../../lib/gcc/pic32mx/4.8.3/../../../../pic32mx/lib/fpu64\libsupc++.a(del_op.o)
 .mdebug.abi32  0x00000000        0x0 c:/program files (x86)/microchip/xc32/v2.15/bin/bin/../../lib/gcc/pic32mx/4.8.3/../../../../pic32mx/lib/fpu64\libsupc++.a(eh_alloc.o)
 .mdebug.abi32  0x00000000        0x0 c:/program files (x86)/microchip/xc32/v2.15/bin/bin/../../lib/gcc/pic32mx/4.8.3/../../../../pic32mx/lib/fpu64\libsupc++.a(eh_catch.o)
 .mdebug.abi32  0x00000000        0x0 c:/program files (x86)/microchip/xc32/v2.15/bin/bin/../../lib/gcc/pic32mx/4.8.3/../../../../pic32mx/lib/fpu64\libsupc++.a(eh_exception.o)
 .mdebug.abi32  0x00000000        0x0 c:/program files (x86)/microchip/xc32/v2.15/bin/bin/../../lib/gcc/pic32mx/4.8.3/../../../../pic32mx/lib/fpu64\libsupc++.a(eh_globals.o)
 .mdebug.abi32  0x00000000        0x0 c:/program files (x86)/microchip/xc32/v2.15/bin/bin/../../lib/gcc/pic32mx/4.8.3/../../../../pic32mx/lib/fpu64\libsupc++.a(eh_personality.o)
 .mdebug.abi32  0x00000000        0x0 c:/program files (x86)/microchip/xc32/v2.15/bin/bin/../../lib/gcc/pic32mx/4.8.3/../../../../pic32mx/lib/fpu64\libsupc++.a(eh_terminate.o)
 .mdebug.abi32  0x00000000        0x0 c:/program files (x86)/microchip/xc32/v2.15/bin/bin/../../lib/gcc/pic32mx/4.8.3/../../../../pic32mx/lib/fpu64\libsupc++.a(eh_throw.o)
 .mdebug.abi32  0x00000000        0x0 c:/program files (x86)/microchip/xc32/v2.15/bin/bin/../../lib/gcc/pic32mx/4.8.3/../../../../pic32mx/lib/fpu64\libsupc++.a(eh_unex_handler.o)
 .mdebug.abi32  0x00000000        0x0 c:/program files (x86)/microchip/xc32/v2.15/bin/bin/../../lib/gcc/pic32mx/4.8.3/../../../../pic32mx/lib/fpu64\libsupc++.a(new_op.o)
 .mdebug.abi32  0x00000000        0x0 c:/program files (x86)/microchip/xc32/v2.15/bin/bin/../../lib/gcc/pic32mx/4.8.3/../../../../pic32mx/lib/fpu64\libsupc++.a(si_class_type_info.o)
 .mdebug.abi32  0x00000000        0x0 c:/program files (x86)/microchip/xc32/v2.15/bin/bin/../../lib/gcc/pic32mx/4.8.3/../../../../pic32mx/lib/fpu64\libsupc++.a(tinfo.o)
 .mdebug.abi32  0x00000000        0x0 c:/program files (x86)/microchip/xc32/v2.15/bin/bin/../../lib/gcc/pic32mx/4.8.3/../../../../pic32mx/lib/fpu64\libsupc++.a(pure.o)
 .mdebug.abi32  0x00000000        0x0 c:/program files (x86)/microchip/xc32/v2.15/bin/bin/../../lib/gcc/pic32mx/4.8.3/../../../../pic32mx/lib/fpu64\libsupc++.a(eh_call.o)
 .mdebug.abi32  0x00000000        0x0 c:/program files (x86)/microchip/xc32/v2.15/bin/bin/../../lib/gcc/pic32mx/4.8.3/../../../../pic32mx/lib/fpu64\libsupc++.a(eh_term_handler.o)
 .mdebug.abi32  0x00000000        0x0 c:/program files (x86)/microchip/xc32/v2.15/bin/bin/../../lib/gcc/pic32mx/4.8.3/../../../../pic32mx/lib/fpu64\libsupc++.a(new_handler.o)
 .mdebug.abi32  0x00000000        0x0 c:/program files (x86)/microchip/xc32/v2.15/bin/bin/../../lib/gcc/pic32mx/4.8.3/fpu64\libgcc.a(unwind-sjlj.o)
 .mdebug.abi32  0x00000000        0x0 c:/program files (x86)/microchip/xc32/v2.15/bin/bin/../../lib/gcc/pic32mx/4.8.3/../../../../pic32mx/lib/fpu64\libpic32.a(default-on-reset.o)
 .mdebug.abi32  0x00000000        0x0 c:/program files (x86)/microchip/xc32/v2.15/bin/bin/../../lib/gcc/pic32mx/4.8.3/../../../../pic32mx/lib/fpu64\libpic32.a(default-on-bootstrap.o)
 .mdebug.abi32  0x00000000        0x0 c:/program files (x86)/microchip/xc32/v2.15/bin/bin/../../lib/gcc/pic32mx/4.8.3/../../../../pic32mx/lib/fpu64\libpic32.a(defaultinterrupt.o)
 .mdebug.abi32  0x00000000        0x0 c:/program files (x86)/microchip/xc32/v2.15/bin/bin/../../lib/gcc/pic32mx/4.8.3/../../../../pic32mx/lib/fpu64\libxcpp.a(xthrow.o)
 .mdebug.abi32  0x00000000        0x0 c:/program files (x86)/microchip/xc32/v2.15/bin/bin/../../lib/gcc/pic32mx/4.8.3/../../../../pic32mx/lib/fpu64\libxcpp.a(abort.o)
 .mdebug.abi32  0x00000000        0x0 c:/program files (x86)/microchip/xc32/v2.15/bin/bin/../../lib/gcc/pic32mx/4.8.3/../../../../pic32mx/lib/fpu64\libxcpp.a(abs.o)
 .mdebug.abi32  0x00000000        0x0 c:/program files (x86)/microchip/xc32/v2.15/bin/bin/../../lib/gcc/pic32mx/4.8.3/../../../../pic32mx/lib/fpu64\libxcpp.a(exit.o)
 .mdebug.abi32  0x00000000        0x0 c:/program files (x86)/microchip/xc32/v2.15/bin/bin/../../lib/gcc/pic32mx/4.8.3/../../../../pic32mx/lib/fpu64\libxcpp.a(free.o)
 .mdebug.abi32  0x00000000        0x0 c:/program files (x86)/microchip/xc32/v2.15/bin/bin/../../lib/gcc/pic32mx/4.8.3/../../../../pic32mx/lib/fpu64\libxcpp.a(malloc.o)
 .mdebug.abi32  0x00000000        0x0 c:/program files (x86)/microchip/xc32/v2.15/bin/bin/../../lib/gcc/pic32mx/4.8.3/../../../../pic32mx/lib/fpu64\libxcpp.a(memmove.o)
 .mdebug.abi32  0x00000000        0x0 c:/program files (x86)/microchip/xc32/v2.15/bin/bin/../../lib/gcc/pic32mx/4.8.3/../../../../pic32mx/lib/fpu64\libxcpp.a(raise.o)
 .mdebug.abi32  0x00000000        0x0 c:/program files (x86)/microchip/xc32/v2.15/bin/bin/../../lib/gcc/pic32mx/4.8.3/../../../../pic32mx/lib/fpu64\libxcpp.a(vsnprint.o)
 .mdebug.abi32  0x00000000        0x0 c:/program files (x86)/microchip/xc32/v2.15/bin/bin/../../lib/gcc/pic32mx/4.8.3/../../../../pic32mx/lib/fpu64\libxcpp.a(xexit.o)
 .mdebug.abi32  0x00000000        0x0 c:/program files (x86)/microchip/xc32/v2.15/bin/bin/../../lib/gcc/pic32mx/4.8.3/../../../../pic32mx/lib/fpu64\libxcpp.a(xgetmem.o)
 .mdebug.abi32  0x00000000        0x0 c:/program files (x86)/microchip/xc32/v2.15/bin/bin/../../lib/gcc/pic32mx/4.8.3/../../../../pic32mx/lib/fpu64\libxcpp.a(xprintf.o)
 .mdebug.abi32  0x00000000        0x0 c:/program files (x86)/microchip/xc32/v2.15/bin/bin/../../lib/gcc/pic32mx/4.8.3/../../../../pic32mx/lib/fpu64\libxcpp.a(xputfld.o)
 .mdebug.abi32  0x00000000        0x0 c:/program files (x86)/microchip/xc32/v2.15/bin/bin/../../lib/gcc/pic32mx/4.8.3/../../../../pic32mx/lib/fpu64\libxcpp.a(xputstr.o)
 .mdebug.abi32  0x00000000        0x0 c:/program files (x86)/microchip/xc32/v2.15/bin/bin/../../lib/gcc/pic32mx/4.8.3/../../../../pic32mx/lib/fpu64\libxcpp.a(xputtxt.o)
 .mdebug.abi32  0x00000000        0x0 c:/program files (x86)/microchip/xc32/v2.15/bin/bin/../../lib/gcc/pic32mx/4.8.3/../../../../pic32mx/lib/fpu64\libxcpp.a(xstate.o)
 .mdebug.abi32  0x00000000        0x0 c:/program files (x86)/microchip/xc32/v2.15/bin/bin/../../lib/gcc/pic32mx/4.8.3/../../../../pic32mx/lib/fpu64\libxcpp.a(xvacopy.o)
 .mdebug.abi32  0x00000000        0x0 c:/program files (x86)/microchip/xc32/v2.15/bin/bin/../../lib/gcc/pic32mx/4.8.3/../../../../pic32mx/lib/fpu64\libxcpp.a(xwctomb.o)
 .mdebug.abi32  0x00000000        0x0 c:/program files (x86)/microchip/xc32/v2.15/bin/bin/../../lib/gcc/pic32mx/4.8.3/../../../../pic32mx/lib/fpu64\libxcpp.a(xfail_s.o)
 .mdebug.abi32  0x00000000        0x0 c:/program files (x86)/microchip/xc32/v2.15/bin/bin/../../lib/gcc/pic32mx/4.8.3/../../../../pic32mx/lib/fpu64\libxcpp.a(errno.o)
 .mdebug.abi32  0x00000000        0x0 c:/program files (x86)/microchip/xc32/v2.15/bin/bin/../../lib/gcc/pic32mx/4.8.3/../../../../pic32mx/lib/fpu64\libxcpp.a(fputc.o)
 .mdebug.abi32  0x00000000        0x0 c:/program files (x86)/microchip/xc32/v2.15/bin/bin/../../lib/gcc/pic32mx/4.8.3/../../../../pic32mx/lib/fpu64\libxcpp.a(fputs.o)
 .mdebug.abi32  0x00000000        0x0 c:/program files (x86)/microchip/xc32/v2.15/bin/bin/../../lib/gcc/pic32mx/4.8.3/../../../../pic32mx/lib/fpu64\libxcpp.a(memchr.o)
 .mdebug.abi32  0x00000000        0x0 c:/program files (x86)/microchip/xc32/v2.15/bin/bin/../../lib/gcc/pic32mx/4.8.3/../../../../pic32mx/lib/fpu64\libxcpp.a(strchr.o)
 .mdebug.abi32  0x00000000        0x0 c:/program files (x86)/microchip/xc32/v2.15/bin/bin/../../lib/gcc/pic32mx/4.8.3/../../../../pic32mx/lib/fpu64\libxcpp.a(strrchr.o)
 .mdebug.abi32  0x00000000        0x0 c:/program files (x86)/microchip/xc32/v2.15/bin/bin/../../lib/gcc/pic32mx/4.8.3/../../../../pic32mx/lib/fpu64\libxcpp.a(xctype.o)
 .mdebug.abi32  0x00000000        0x0 c:/program files (x86)/microchip/xc32/v2.15/bin/bin/../../lib/gcc/pic32mx/4.8.3/../../../../pic32mx/lib/fpu64\libxcpp.a(xfiles.o)
 .mdebug.abi32  0x00000000        0x0 c:/program files (x86)/microchip/xc32/v2.15/bin/bin/../../lib/gcc/pic32mx/4.8.3/../../../../pic32mx/lib/fpu64\libxcpp.a(xfwprep.o)
 .mdebug.abi32  0x00000000        0x0 c:/program files (x86)/microchip/xc32/v2.15/bin/bin/../../lib/gcc/pic32mx/4.8.3/../../../../pic32mx/lib/fpu64\libxcpp.a(xldtob.o)
 .mdebug.abi32  0x00000000        0x0 c:/program files (x86)/microchip/xc32/v2.15/bin/bin/../../lib/gcc/pic32mx/4.8.3/../../../../pic32mx/lib/fpu64\libxcpp.a(xldunsca.o)
 .mdebug.abi32  0x00000000        0x0 c:/program files (x86)/microchip/xc32/v2.15/bin/bin/../../lib/gcc/pic32mx/4.8.3/../../../../pic32mx/lib/fpu64\libxcpp.a(xlitob.o)
 .mdebug.abi32  0x00000000        0x0 c:/program files (x86)/microchip/xc32/v2.15/bin/bin/../../lib/gcc/pic32mx/4.8.3/../../../../pic32mx/lib/fpu64\libxcpp.a(xlprec.o)
 .mdebug.abi32  0x00000000        0x0 c:/program files (x86)/microchip/xc32/v2.15/bin/bin/../../lib/gcc/pic32mx/4.8.3/../../../../pic32mx/lib/fpu64\libxcpp.a(xlvalues.o)
 .mdebug.abi32  0x00000000        0x0 c:/program files (x86)/microchip/xc32/v2.15/bin/bin/../../lib/gcc/pic32mx/4.8.3/../../../../pic32mx/lib/fpu64\libxcpp.a(xmbtowc.o)
 .mdebug.abi32  0x00000000        0x0 c:/program files (x86)/microchip/xc32/v2.15/bin/bin/../../lib/gcc/pic32mx/4.8.3/../../../../pic32mx/lib/fpu64\libxcpp.a(xwcstate.o)
 .mdebug.abi32  0x00000000        0x0 c:/program files (x86)/microchip/xc32/v2.15/bin/bin/../../lib/gcc/pic32mx/4.8.3/../../../../pic32mx/lib/fpu64\libxcpp.a(strnlen_s.o)
 .mdebug.abi32  0x00000000        0x0 c:/program files (x86)/microchip/xc32/v2.15/bin/bin/../../lib/gcc/pic32mx/4.8.3/../../../../pic32mx/lib/fpu64\libxcpp.a(fclose.o)
 .mdebug.abi32  0x00000000        0x0 c:/program files (x86)/microchip/xc32/v2.15/bin/bin/../../lib/gcc/pic32mx/4.8.3/../../../../pic32mx/lib/fpu64\libxcpp.a(fflush.o)
 .mdebug.abi32  0x00000000        0x0 c:/program files (x86)/microchip/xc32/v2.15/bin/bin/../../lib/gcc/pic32mx/4.8.3/../../../../pic32mx/lib/fpu64\libxcpp.a(ldexpl.o)
 .mdebug.abi32  0x00000000        0x0 c:/program files (x86)/microchip/xc32/v2.15/bin/bin/../../lib/gcc/pic32mx/4.8.3/../../../../pic32mx/lib/fpu64\libxcpp.a(ldiv.o)
 .mdebug.abi32  0x00000000        0x0 c:/program files (x86)/microchip/xc32/v2.15/bin/bin/../../lib/gcc/pic32mx/4.8.3/../../../../pic32mx/lib/fpu64\libxcpp.a(remove.o)
 .mdebug.abi32  0x00000000        0x0 c:/program files (x86)/microchip/xc32/v2.15/bin/bin/../../lib/gcc/pic32mx/4.8.3/../../../../pic32mx/lib/fpu64\libxcpp.a(sqrtl.o)
 .mdebug.abi32  0x00000000        0x0 c:/program files (x86)/microchip/xc32/v2.15/bin/bin/../../lib/gcc/pic32mx/4.8.3/../../../../pic32mx/lib/fpu64\libxcpp.a(xatexit.o)
 .mdebug.abi32  0x00000000        0x0 c:/program files (x86)/microchip/xc32/v2.15/bin/bin/../../lib/gcc/pic32mx/4.8.3/../../../../pic32mx/lib/fpu64\libxcpp.a(xdunscal.o)
 .mdebug.abi32  0x00000000        0x0 c:/program files (x86)/microchip/xc32/v2.15/bin/bin/../../lib/gcc/pic32mx/4.8.3/../../../../pic32mx/lib/fpu64\libxcpp.a(xferaise.o)
 .mdebug.abi32  0x00000000        0x0 c:/program files (x86)/microchip/xc32/v2.15/bin/bin/../../lib/gcc/pic32mx/4.8.3/../../../../pic32mx/lib/fpu64\libxcpp.a(xfofind.o)
 .mdebug.abi32  0x00000000        0x0 c:/program files (x86)/microchip/xc32/v2.15/bin/bin/../../lib/gcc/pic32mx/4.8.3/../../../../pic32mx/lib/fpu64\libxcpp.a(xgenld.o)
 .mdebug.abi32  0x00000000        0x0 c:/program files (x86)/microchip/xc32/v2.15/bin/bin/../../lib/gcc/pic32mx/4.8.3/../../../../pic32mx/lib/fpu64\libxcpp.a(xldint.o)
 .mdebug.abi32  0x00000000        0x0 c:/program files (x86)/microchip/xc32/v2.15/bin/bin/../../lib/gcc/pic32mx/4.8.3/../../../../pic32mx/lib/fpu64\libxcpp.a(xldscale.o)
 .mdebug.abi32  0x00000000        0x0 c:/program files (x86)/microchip/xc32/v2.15/bin/bin/../../lib/gcc/pic32mx/4.8.3/../../../../pic32mx/lib/fpu64\libxcpp.a(xldtest.o)
 .mdebug.abi32  0x00000000        0x0 c:/program files (x86)/microchip/xc32/v2.15/bin/bin/../../lib/gcc/pic32mx/4.8.3/../../../../pic32mx/lib/fpu64\libxcpp.a(feraiseexcept.o)
 .mdebug.abi32  0x00000000        0x0 c:/program files (x86)/microchip/xc32/v2.15/bin/bin/../../lib/gcc/pic32mx/4.8.3/../../../../pic32mx/lib/fpu64\libxcpp.a(fesetenv.o)
 .mdebug.abi32  0x00000000        0x0 c:/program files (x86)/microchip/xc32/v2.15/bin/bin/../../lib/gcc/pic32mx/4.8.3/../../../../pic32mx/lib/fpu64\libxcpp.a(div.o)
 .mdebug.abi32  0x00000000        0x0 c:/program files (x86)/microchip/xc32/v2.15/bin/bin/../../lib/gcc/pic32mx/4.8.3/../../../../pic32mx/lib/fpu64\libxcpp.a(localeco.o)
 .mdebug.abi32  0x00000000        0x0 c:/program files (x86)/microchip/xc32/v2.15/bin/bin/../../lib/gcc/pic32mx/4.8.3/../../../../pic32mx/lib/fpu64\libxcpp.a(xdint.o)
 .mdebug.abi32  0x00000000        0x0 c:/program files (x86)/microchip/xc32/v2.15/bin/bin/../../lib/gcc/pic32mx/4.8.3/../../../../pic32mx/lib/fpu64\libxcpp.a(xdnorm.o)
 .mdebug.abi32  0x00000000        0x0 c:/program files (x86)/microchip/xc32/v2.15/bin/bin/../../lib/gcc/pic32mx/4.8.3/../../../../pic32mx/lib/fpu64\libxcpp.a(xdscale.o)
 .mdebug.abi32  0x00000000        0x0 c:/program files (x86)/microchip/xc32/v2.15/bin/bin/../../lib/gcc/pic32mx/4.8.3/../../../../pic32mx/lib/fpu64\libxcpp.a(xdtest.o)
 .mdebug.abi32  0x00000000        0x0 c:/program files (x86)/microchip/xc32/v2.15/bin/bin/../../lib/gcc/pic32mx/4.8.3/../../../../pic32mx/lib/fpu64\libxcpp.a(xvalues.o)
 .mdebug.abi32  0x00000000        0x0 c:/program files (x86)/microchip/xc32/v2.15/bin/bin/../../lib/gcc/pic32mx/4.8.3/../../../../pic32mx/lib/fpu64\libxcpp.a(fegetenv.o)
 .mdebug.abi32  0x00000000        0x0 c:/program files (x86)/microchip/xc32/v2.15/bin/bin/../../lib/gcc/pic32mx/4.8.3/../../../../pic32mx/lib/fpu64\libpic32.a(sbrk.o)
 .mdebug.abi32  0x00000000        0x0 c:/program files (x86)/microchip/xc32/v2.15/bin/bin/../../lib/gcc/pic32mx/4.8.3/../../../../pic32mx/lib/fpu64\libpic32.a(_exit.o)
 .mdebug.abi32  0x00000000        0x0 c:/program files (x86)/microchip/xc32/v2.15/bin/bin/../../lib/gcc/pic32mx/4.8.3/../../../../pic32mx/lib/fpu64\libpic32.a(isatty.o)
 .mdebug.abi32  0x00000000        0x0 c:/program files (x86)/microchip/xc32/v2.15/bin/bin/../../lib/gcc/pic32mx/4.8.3/../../../../pic32mx/lib/fpu64\libpic32.a(write.o)
 .mdebug.abi32  0x00000000        0x0 c:/program files (x86)/microchip/xc32/v2.15/bin/bin/../../lib/gcc/pic32mx/4.8.3/../../../../pic32mx/lib/fpu64\libpic32.a(close.o)
 .mdebug.abi32  0x00000000        0x0 c:/program files (x86)/microchip/xc32/v2.15/bin/bin/../../lib/gcc/pic32mx/4.8.3/../../../../pic32mx/lib/fpu64\libpic32.a(unlink.o)
 .mdebug.abi32  0x00000000        0x0 c:/program files (x86)/microchip/xc32/v2.15/bin/bin/../../lib/gcc/pic32mx/4.8.3/../../../../pic32mx/lib/fpu64\libpic32.a(kill.o)
 .mdebug.abi32  0x00000000        0x0 c:/program files (x86)/microchip/xc32/v2.15/bin/bin/../../lib/gcc/pic32mx/4.8.3/../../../../pic32mx/lib/fpu64\libpic32.a(getpid.o)
 .mdebug.abi32  0x00000000        0x0 c:/program files (x86)/microchip/xc32/v2.15/bin/bin/../../lib/gcc/pic32mx/4.8.3/../../../../pic32mx/lib/fpu64\libpic32.a(errno.o)
 .mdebug.abi32  0x00000000        0x0 c:/program files (x86)/microchip/xc32/v2.15/bin/bin/../../lib/gcc/pic32mx/4.8.3/../../../../pic32mx/lib/fpu64\libpic32.a(rmdir.o)
 .mdebug.abi32  0x00000000        0x0 c:/program files (x86)/microchip/xc32/v2.15/bin/bin/../../lib/gcc/pic32mx/4.8.3/fpu64\libgcc.a(_udivdi3.o)
 .mdebug.abi32  0x00000000        0x0 c:/program files (x86)/microchip/xc32/v2.15/bin/bin/../../lib/gcc/pic32mx/4.8.3/fpu64\libgcc.a(_umoddi3.o)
 .mdebug.abi32  0x00000000        0x0 c:/program files (x86)/microchip/xc32/v2.15/bin/bin/../../lib/gcc/pic32mx/4.8.3/fpu64/crtend.o

.mdebug.abiN32
 *(.mdebug.abiN32)

.mdebug.abi64
 *(.mdebug.abi64)

.mdebug.abiO64
 *(.mdebug.abiO64)

.mdebug.eabi32
 *(.mdebug.eabi32)

.mdebug.eabi64
 *(.mdebug.eabi64)

.gcc_compiled_long32
 *(.gcc_compiled_long32)

.gcc_compiled_long64
 *(.gcc_compiled_long64)

.stab
 *(.stab)

.stabstr
 *(.stabstr)

.stab.excl
 *(.stab.excl)

.stab.exclstr
 *(.stab.exclstr)

.stab.index
 *(.stab.index)

.stab.indexstr
 *(.stab.indexstr)

.comment        0x00000000      0x11f
 *(.comment)
 .comment       0x00000000       0x3c c:/program files (x86)/microchip/xc32/v2.15/bin/bin/../../lib/gcc/pic32mx/4.8.3/fpu64/crtbegin.o
                                 0x3d (size before relaxing)
 .comment       0x00000000       0x3d build/default/production/_ext/694295097/bsp.o
 .comment       0x00000000       0x3d build/default/production/_ext/490896790/drv_usbhs.o
 .comment       0x00000000       0x3d build/default/production/_ext/490896790/drv_usbhs_device.o
 .comment       0x00000000       0x3d build/default/production/_ext/2068470151/plib_clk.o
 .comment       0x00000000       0x3d build/default/production/_ext/1465287765/plib_coretimer.o
 .comment       0x00000000       0x3d build/default/production/_ext/301865530/plib_evic.o
 .comment       0x00000000       0x3d build/default/production/_ext/301811702/plib_gpio.o
 .comment       0x00000000       0x3d build/default/production/_ext/301585742/plib_ocmp8.o
 .comment       0x00000000       0x3d build/default/production/_ext/301585742/plib_ocmp5.o
 .comment       0x00000000       0x3d build/default/production/_ext/301585742/plib_ocmp3.o
 .comment       0x00000000       0x3d build/default/production/_ext/2068486526/plib_tmr2.o
 .comment       0x00000000       0x3d build/default/production/_ext/301408759/plib_uart6.o
 .comment       0x00000000       0x3d build/default/production/_ext/1481935855/xc32_monitor.o
 .comment       0x00000000       0x3d build/default/production/_ext/404994212/sys_int.o
 .comment       0x00000000       0x3d build/default/production/_ext/763370911/usb_device.o
 .comment       0x00000000       0x3d build/default/production/_ext/763370911/usb_device_cdc.o
 .comment       0x00000000       0x3d build/default/production/_ext/763370911/usb_device_cdc_acm.o
 .comment       0x00000000       0x3d build/default/production/_ext/1160401513/initialization.o
 .comment       0x00000000       0x3d build/default/production/_ext/1160401513/interrupts.o
 .comment       0x00000000       0x3d build/default/production/_ext/1160401513/exceptions.o
 .comment       0x00000000       0x3d build/default/production/_ext/1160401513/usb_device_init_data.o
 .comment       0x00000000       0x3d build/default/production/_ext/1160401513/tasks.o
 .comment       0x00000000       0x3d build/default/production/_ext/1003616436/app.o
 .comment       0x00000000       0x3d build/default/production/_ext/1003616436/main.o
 .comment       0x00000000       0x3d build/default/production/_ext/1003616436/usb_com_port.o
 .comment       0x00000000       0x3d c:/program files (x86)/microchip/xc32/v2.15/bin/bin/../../lib/gcc/pic32mx/4.8.3/../../../../pic32mx/lib/fpu64\libsupc++.a(class_type_info.o)
 .comment       0x00000000       0x3d c:/program files (x86)/microchip/xc32/v2.15/bin/bin/../../lib/gcc/pic32mx/4.8.3/../../../../pic32mx/lib/fpu64\libsupc++.a(del_op.o)
 .comment       0x00000000       0x3d c:/program files (x86)/microchip/xc32/v2.15/bin/bin/../../lib/gcc/pic32mx/4.8.3/../../../../pic32mx/lib/fpu64\libsupc++.a(eh_alloc.o)
 .comment       0x00000000       0x3d c:/program files (x86)/microchip/xc32/v2.15/bin/bin/../../lib/gcc/pic32mx/4.8.3/../../../../pic32mx/lib/fpu64\libsupc++.a(eh_catch.o)
 .comment       0x00000000       0x3d c:/program files (x86)/microchip/xc32/v2.15/bin/bin/../../lib/gcc/pic32mx/4.8.3/../../../../pic32mx/lib/fpu64\libsupc++.a(eh_exception.o)
 .comment       0x00000000       0x3d c:/program files (x86)/microchip/xc32/v2.15/bin/bin/../../lib/gcc/pic32mx/4.8.3/../../../../pic32mx/lib/fpu64\libsupc++.a(eh_globals.o)
 .comment       0x00000000       0x3d c:/program files (x86)/microchip/xc32/v2.15/bin/bin/../../lib/gcc/pic32mx/4.8.3/../../../../pic32mx/lib/fpu64\libsupc++.a(eh_personality.o)
 .comment       0x00000000       0x3d c:/program files (x86)/microchip/xc32/v2.15/bin/bin/../../lib/gcc/pic32mx/4.8.3/../../../../pic32mx/lib/fpu64\libsupc++.a(eh_terminate.o)
 .comment       0x00000000       0x3d c:/program files (x86)/microchip/xc32/v2.15/bin/bin/../../lib/gcc/pic32mx/4.8.3/../../../../pic32mx/lib/fpu64\libsupc++.a(eh_throw.o)
 .comment       0x00000000       0x3d c:/program files (x86)/microchip/xc32/v2.15/bin/bin/../../lib/gcc/pic32mx/4.8.3/../../../../pic32mx/lib/fpu64\libsupc++.a(eh_unex_handler.o)
 .comment       0x00000000       0x3d c:/program files (x86)/microchip/xc32/v2.15/bin/bin/../../lib/gcc/pic32mx/4.8.3/../../../../pic32mx/lib/fpu64\libsupc++.a(new_op.o)
 .comment       0x00000000       0x3d c:/program files (x86)/microchip/xc32/v2.15/bin/bin/../../lib/gcc/pic32mx/4.8.3/../../../../pic32mx/lib/fpu64\libsupc++.a(si_class_type_info.o)
 .comment       0x00000000       0x3d c:/program files (x86)/microchip/xc32/v2.15/bin/bin/../../lib/gcc/pic32mx/4.8.3/../../../../pic32mx/lib/fpu64\libsupc++.a(tinfo.o)
 .comment       0x00000000       0x3d c:/program files (x86)/microchip/xc32/v2.15/bin/bin/../../lib/gcc/pic32mx/4.8.3/../../../../pic32mx/lib/fpu64\libsupc++.a(pure.o)
 .comment       0x00000000       0x3d c:/program files (x86)/microchip/xc32/v2.15/bin/bin/../../lib/gcc/pic32mx/4.8.3/../../../../pic32mx/lib/fpu64\libsupc++.a(eh_call.o)
 .comment       0x00000000       0x3d c:/program files (x86)/microchip/xc32/v2.15/bin/bin/../../lib/gcc/pic32mx/4.8.3/../../../../pic32mx/lib/fpu64\libsupc++.a(eh_term_handler.o)
 .comment       0x00000000       0x3d c:/program files (x86)/microchip/xc32/v2.15/bin/bin/../../lib/gcc/pic32mx/4.8.3/../../../../pic32mx/lib/fpu64\libsupc++.a(new_handler.o)
 .comment       0x00000000       0x3d c:/program files (x86)/microchip/xc32/v2.15/bin/bin/../../lib/gcc/pic32mx/4.8.3/fpu64\libgcc.a(unwind-sjlj.o)
 .comment       0x0000003c       0x18 c:/program files (x86)/microchip/xc32/v2.15/bin/bin/../../lib/gcc/pic32mx/4.8.3/../../../../pic32mx/lib/fpu64\libpic32.a(memset.o)
                                 0x19 (size before relaxing)
 .comment       0x00000054       0x19 c:/program files (x86)/microchip/xc32/v2.15/bin/bin/../../lib/gcc/pic32mx/4.8.3/../../../../pic32mx/lib/fpu64\libpic32.a(strcmp.o)
                                 0x1a (size before relaxing)
 .comment       0x0000006d       0x19 c:/program files (x86)/microchip/xc32/v2.15/bin/bin/../../lib/gcc/pic32mx/4.8.3/../../../../pic32mx/lib/fpu64\libpic32.a(strlen.o)
                                 0x1a (size before relaxing)
 .comment       0x00000000       0x3d c:/program files (x86)/microchip/xc32/v2.15/bin/bin/../../lib/gcc/pic32mx/4.8.3/../../../../pic32mx/lib/fpu64\libpic32.a(default-on-reset.o)
 .comment       0x00000000       0x3d c:/program files (x86)/microchip/xc32/v2.15/bin/bin/../../lib/gcc/pic32mx/4.8.3/../../../../pic32mx/lib/fpu64\libpic32.a(default-on-bootstrap.o)
 .comment       0x00000000       0x3d c:/program files (x86)/microchip/xc32/v2.15/bin/bin/../../lib/gcc/pic32mx/4.8.3/../../../../pic32mx/lib/fpu64\libpic32.a(defaultinterrupt.o)
 .comment       0x00000000       0x3d c:/program files (x86)/microchip/xc32/v2.15/bin/bin/../../lib/gcc/pic32mx/4.8.3/../../../../pic32mx/lib/fpu64\libxcpp.a(xthrow.o)
 .comment       0x00000000       0x3d c:/program files (x86)/microchip/xc32/v2.15/bin/bin/../../lib/gcc/pic32mx/4.8.3/../../../../pic32mx/lib/fpu64\libxcpp.a(abort.o)
 .comment       0x00000000       0x3d c:/program files (x86)/microchip/xc32/v2.15/bin/bin/../../lib/gcc/pic32mx/4.8.3/../../../../pic32mx/lib/fpu64\libxcpp.a(abs.o)
 .comment       0x00000000       0x3d c:/program files (x86)/microchip/xc32/v2.15/bin/bin/../../lib/gcc/pic32mx/4.8.3/../../../../pic32mx/lib/fpu64\libxcpp.a(exit.o)
 .comment       0x00000000       0x3d c:/program files (x86)/microchip/xc32/v2.15/bin/bin/../../lib/gcc/pic32mx/4.8.3/../../../../pic32mx/lib/fpu64\libxcpp.a(free.o)
 .comment       0x00000000       0x3d c:/program files (x86)/microchip/xc32/v2.15/bin/bin/../../lib/gcc/pic32mx/4.8.3/../../../../pic32mx/lib/fpu64\libxcpp.a(malloc.o)
 .comment       0x00000000       0x3d c:/program files (x86)/microchip/xc32/v2.15/bin/bin/../../lib/gcc/pic32mx/4.8.3/../../../../pic32mx/lib/fpu64\libxcpp.a(memmove.o)
 .comment       0x00000000       0x3d c:/program files (x86)/microchip/xc32/v2.15/bin/bin/../../lib/gcc/pic32mx/4.8.3/../../../../pic32mx/lib/fpu64\libxcpp.a(raise.o)
 .comment       0x00000000       0x3d c:/program files (x86)/microchip/xc32/v2.15/bin/bin/../../lib/gcc/pic32mx/4.8.3/../../../../pic32mx/lib/fpu64\libxcpp.a(vsnprint.o)
 .comment       0x00000000       0x3d c:/program files (x86)/microchip/xc32/v2.15/bin/bin/../../lib/gcc/pic32mx/4.8.3/../../../../pic32mx/lib/fpu64\libxcpp.a(xexit.o)
 .comment       0x00000000       0x3d c:/program files (x86)/microchip/xc32/v2.15/bin/bin/../../lib/gcc/pic32mx/4.8.3/../../../../pic32mx/lib/fpu64\libxcpp.a(xgetmem.o)
 .comment       0x00000000       0x3d c:/program files (x86)/microchip/xc32/v2.15/bin/bin/../../lib/gcc/pic32mx/4.8.3/../../../../pic32mx/lib/fpu64\libxcpp.a(xprintf.o)
 .comment       0x00000000       0x3d c:/program files (x86)/microchip/xc32/v2.15/bin/bin/../../lib/gcc/pic32mx/4.8.3/../../../../pic32mx/lib/fpu64\libxcpp.a(xputfld.o)
 .comment       0x00000000       0x3d c:/program files (x86)/microchip/xc32/v2.15/bin/bin/../../lib/gcc/pic32mx/4.8.3/../../../../pic32mx/lib/fpu64\libxcpp.a(xputstr.o)
 .comment       0x00000000       0x3d c:/program files (x86)/microchip/xc32/v2.15/bin/bin/../../lib/gcc/pic32mx/4.8.3/../../../../pic32mx/lib/fpu64\libxcpp.a(xputtxt.o)
 .comment       0x00000000       0x3d c:/program files (x86)/microchip/xc32/v2.15/bin/bin/../../lib/gcc/pic32mx/4.8.3/../../../../pic32mx/lib/fpu64\libxcpp.a(xstate.o)
 .comment       0x00000000       0x3d c:/program files (x86)/microchip/xc32/v2.15/bin/bin/../../lib/gcc/pic32mx/4.8.3/../../../../pic32mx/lib/fpu64\libxcpp.a(xvacopy.o)
 .comment       0x00000000       0x3d c:/program files (x86)/microchip/xc32/v2.15/bin/bin/../../lib/gcc/pic32mx/4.8.3/../../../../pic32mx/lib/fpu64\libxcpp.a(xwctomb.o)
 .comment       0x00000000       0x3d c:/program files (x86)/microchip/xc32/v2.15/bin/bin/../../lib/gcc/pic32mx/4.8.3/../../../../pic32mx/lib/fpu64\libxcpp.a(xfail_s.o)
 .comment       0x00000000       0x3d c:/program files (x86)/microchip/xc32/v2.15/bin/bin/../../lib/gcc/pic32mx/4.8.3/../../../../pic32mx/lib/fpu64\libxcpp.a(errno.o)
 .comment       0x00000000       0x3d c:/program files (x86)/microchip/xc32/v2.15/bin/bin/../../lib/gcc/pic32mx/4.8.3/../../../../pic32mx/lib/fpu64\libxcpp.a(fputc.o)
 .comment       0x00000000       0x3d c:/program files (x86)/microchip/xc32/v2.15/bin/bin/../../lib/gcc/pic32mx/4.8.3/../../../../pic32mx/lib/fpu64\libxcpp.a(fputs.o)
 .comment       0x00000000       0x3d c:/program files (x86)/microchip/xc32/v2.15/bin/bin/../../lib/gcc/pic32mx/4.8.3/../../../../pic32mx/lib/fpu64\libxcpp.a(memchr.o)
 .comment       0x00000000       0x3d c:/program files (x86)/microchip/xc32/v2.15/bin/bin/../../lib/gcc/pic32mx/4.8.3/../../../../pic32mx/lib/fpu64\libxcpp.a(strchr.o)
 .comment       0x00000000       0x3d c:/program files (x86)/microchip/xc32/v2.15/bin/bin/../../lib/gcc/pic32mx/4.8.3/../../../../pic32mx/lib/fpu64\libxcpp.a(strrchr.o)
 .comment       0x00000000       0x3d c:/program files (x86)/microchip/xc32/v2.15/bin/bin/../../lib/gcc/pic32mx/4.8.3/../../../../pic32mx/lib/fpu64\libxcpp.a(xctype.o)
 .comment       0x00000000       0x3d c:/program files (x86)/microchip/xc32/v2.15/bin/bin/../../lib/gcc/pic32mx/4.8.3/../../../../pic32mx/lib/fpu64\libxcpp.a(xfiles.o)
 .comment       0x00000000       0x3d c:/program files (x86)/microchip/xc32/v2.15/bin/bin/../../lib/gcc/pic32mx/4.8.3/../../../../pic32mx/lib/fpu64\libxcpp.a(xfwprep.o)
 .comment       0x00000000       0x3d c:/program files (x86)/microchip/xc32/v2.15/bin/bin/../../lib/gcc/pic32mx/4.8.3/../../../../pic32mx/lib/fpu64\libxcpp.a(xldtob.o)
 .comment       0x00000000       0x3d c:/program files (x86)/microchip/xc32/v2.15/bin/bin/../../lib/gcc/pic32mx/4.8.3/../../../../pic32mx/lib/fpu64\libxcpp.a(xldunsca.o)
 .comment       0x00000000       0x3d c:/program files (x86)/microchip/xc32/v2.15/bin/bin/../../lib/gcc/pic32mx/4.8.3/../../../../pic32mx/lib/fpu64\libxcpp.a(xlitob.o)
 .comment       0x00000000       0x3d c:/program files (x86)/microchip/xc32/v2.15/bin/bin/../../lib/gcc/pic32mx/4.8.3/../../../../pic32mx/lib/fpu64\libxcpp.a(xlprec.o)
 .comment       0x00000000       0x3d c:/program files (x86)/microchip/xc32/v2.15/bin/bin/../../lib/gcc/pic32mx/4.8.3/../../../../pic32mx/lib/fpu64\libxcpp.a(xlvalues.o)
 .comment       0x00000000       0x3d c:/program files (x86)/microchip/xc32/v2.15/bin/bin/../../lib/gcc/pic32mx/4.8.3/../../../../pic32mx/lib/fpu64\libxcpp.a(xmbtowc.o)
 .comment       0x00000000       0x3d c:/program files (x86)/microchip/xc32/v2.15/bin/bin/../../lib/gcc/pic32mx/4.8.3/../../../../pic32mx/lib/fpu64\libxcpp.a(xwcstate.o)
 .comment       0x00000000       0x3d c:/program files (x86)/microchip/xc32/v2.15/bin/bin/../../lib/gcc/pic32mx/4.8.3/../../../../pic32mx/lib/fpu64\libxcpp.a(strnlen_s.o)
 .comment       0x00000000       0x3d c:/program files (x86)/microchip/xc32/v2.15/bin/bin/../../lib/gcc/pic32mx/4.8.3/../../../../pic32mx/lib/fpu64\libxcpp.a(fclose.o)
 .comment       0x00000000       0x3d c:/program files (x86)/microchip/xc32/v2.15/bin/bin/../../lib/gcc/pic32mx/4.8.3/../../../../pic32mx/lib/fpu64\libxcpp.a(fflush.o)
 .comment       0x00000000       0x3d c:/program files (x86)/microchip/xc32/v2.15/bin/bin/../../lib/gcc/pic32mx/4.8.3/../../../../pic32mx/lib/fpu64\libxcpp.a(ldexpl.o)
 .comment       0x00000000       0x3d c:/program files (x86)/microchip/xc32/v2.15/bin/bin/../../lib/gcc/pic32mx/4.8.3/../../../../pic32mx/lib/fpu64\libxcpp.a(ldiv.o)
 .comment       0x00000000       0x3d c:/program files (x86)/microchip/xc32/v2.15/bin/bin/../../lib/gcc/pic32mx/4.8.3/../../../../pic32mx/lib/fpu64\libxcpp.a(remove.o)
 .comment       0x00000000       0x3d c:/program files (x86)/microchip/xc32/v2.15/bin/bin/../../lib/gcc/pic32mx/4.8.3/../../../../pic32mx/lib/fpu64\libxcpp.a(sqrtl.o)
 .comment       0x00000000       0x3d c:/program files (x86)/microchip/xc32/v2.15/bin/bin/../../lib/gcc/pic32mx/4.8.3/../../../../pic32mx/lib/fpu64\libxcpp.a(xatexit.o)
 .comment       0x00000000       0x3d c:/program files (x86)/microchip/xc32/v2.15/bin/bin/../../lib/gcc/pic32mx/4.8.3/../../../../pic32mx/lib/fpu64\libxcpp.a(xdunscal.o)
 .comment       0x00000000       0x3d c:/program files (x86)/microchip/xc32/v2.15/bin/bin/../../lib/gcc/pic32mx/4.8.3/../../../../pic32mx/lib/fpu64\libxcpp.a(xferaise.o)
 .comment       0x00000000       0x3d c:/program files (x86)/microchip/xc32/v2.15/bin/bin/../../lib/gcc/pic32mx/4.8.3/../../../../pic32mx/lib/fpu64\libxcpp.a(xfofind.o)
 .comment       0x00000000       0x3d c:/program files (x86)/microchip/xc32/v2.15/bin/bin/../../lib/gcc/pic32mx/4.8.3/../../../../pic32mx/lib/fpu64\libxcpp.a(xgenld.o)
 .comment       0x00000000       0x3d c:/program files (x86)/microchip/xc32/v2.15/bin/bin/../../lib/gcc/pic32mx/4.8.3/../../../../pic32mx/lib/fpu64\libxcpp.a(xldint.o)
 .comment       0x00000000       0x3d c:/program files (x86)/microchip/xc32/v2.15/bin/bin/../../lib/gcc/pic32mx/4.8.3/../../../../pic32mx/lib/fpu64\libxcpp.a(xldscale.o)
 .comment       0x00000000       0x3d c:/program files (x86)/microchip/xc32/v2.15/bin/bin/../../lib/gcc/pic32mx/4.8.3/../../../../pic32mx/lib/fpu64\libxcpp.a(xldtest.o)
 .comment       0x00000000       0x3d c:/program files (x86)/microchip/xc32/v2.15/bin/bin/../../lib/gcc/pic32mx/4.8.3/../../../../pic32mx/lib/fpu64\libxcpp.a(feraiseexcept.o)
 .comment       0x00000000       0x3d c:/program files (x86)/microchip/xc32/v2.15/bin/bin/../../lib/gcc/pic32mx/4.8.3/../../../../pic32mx/lib/fpu64\libxcpp.a(fesetenv.o)
 .comment       0x00000000       0x3d c:/program files (x86)/microchip/xc32/v2.15/bin/bin/../../lib/gcc/pic32mx/4.8.3/../../../../pic32mx/lib/fpu64\libxcpp.a(div.o)
 .comment       0x00000000       0x3d c:/program files (x86)/microchip/xc32/v2.15/bin/bin/../../lib/gcc/pic32mx/4.8.3/../../../../pic32mx/lib/fpu64\libxcpp.a(localeco.o)
 .comment       0x00000000       0x3d c:/program files (x86)/microchip/xc32/v2.15/bin/bin/../../lib/gcc/pic32mx/4.8.3/../../../../pic32mx/lib/fpu64\libxcpp.a(xdint.o)
 .comment       0x00000000       0x3d c:/program files (x86)/microchip/xc32/v2.15/bin/bin/../../lib/gcc/pic32mx/4.8.3/../../../../pic32mx/lib/fpu64\libxcpp.a(xdnorm.o)
 .comment       0x00000000       0x3d c:/program files (x86)/microchip/xc32/v2.15/bin/bin/../../lib/gcc/pic32mx/4.8.3/../../../../pic32mx/lib/fpu64\libxcpp.a(xdscale.o)
 .comment       0x00000000       0x3d c:/program files (x86)/microchip/xc32/v2.15/bin/bin/../../lib/gcc/pic32mx/4.8.3/../../../../pic32mx/lib/fpu64\libxcpp.a(xdtest.o)
 .comment       0x00000000       0x3d c:/program files (x86)/microchip/xc32/v2.15/bin/bin/../../lib/gcc/pic32mx/4.8.3/../../../../pic32mx/lib/fpu64\libxcpp.a(xvalues.o)
 .comment       0x00000000       0x3d c:/program files (x86)/microchip/xc32/v2.15/bin/bin/../../lib/gcc/pic32mx/4.8.3/../../../../pic32mx/lib/fpu64\libxcpp.a(fegetenv.o)
 .comment       0x00000086       0x4b c:/program files (x86)/microchip/xc32/v2.15/bin/bin/../../lib/gcc/pic32mx/4.8.3/../../../../pic32mx/lib/fpu64\libpic32.a(sbrk.o)
                                 0x88 (size before relaxing)
 .comment       0x00000000       0x3d c:/program files (x86)/microchip/xc32/v2.15/bin/bin/../../lib/gcc/pic32mx/4.8.3/../../../../pic32mx/lib/fpu64\libpic32.a(_exit.o)
 .comment       0x000000d1       0x4e c:/program files (x86)/microchip/xc32/v2.15/bin/bin/../../lib/gcc/pic32mx/4.8.3/../../../../pic32mx/lib/fpu64\libpic32.a(isatty.o)
                                 0x8b (size before relaxing)
 .comment       0x00000000       0x3d c:/program files (x86)/microchip/xc32/v2.15/bin/bin/../../lib/gcc/pic32mx/4.8.3/../../../../pic32mx/lib/fpu64\libpic32.a(write.o)
 .comment       0x00000000       0x3d c:/program files (x86)/microchip/xc32/v2.15/bin/bin/../../lib/gcc/pic32mx/4.8.3/../../../../pic32mx/lib/fpu64\libpic32.a(close.o)
 .comment       0x00000000       0x3d c:/program files (x86)/microchip/xc32/v2.15/bin/bin/../../lib/gcc/pic32mx/4.8.3/../../../../pic32mx/lib/fpu64\libpic32.a(unlink.o)
 .comment       0x00000000       0x3d c:/program files (x86)/microchip/xc32/v2.15/bin/bin/../../lib/gcc/pic32mx/4.8.3/../../../../pic32mx/lib/fpu64\libpic32.a(kill.o)
 .comment       0x00000000       0x3d c:/program files (x86)/microchip/xc32/v2.15/bin/bin/../../lib/gcc/pic32mx/4.8.3/../../../../pic32mx/lib/fpu64\libpic32.a(getpid.o)
 .comment       0x00000000       0x3d c:/program files (x86)/microchip/xc32/v2.15/bin/bin/../../lib/gcc/pic32mx/4.8.3/../../../../pic32mx/lib/fpu64\libpic32.a(errno.o)
 .comment       0x00000000       0x3d c:/program files (x86)/microchip/xc32/v2.15/bin/bin/../../lib/gcc/pic32mx/4.8.3/../../../../pic32mx/lib/fpu64\libpic32.a(rmdir.o)
 .comment       0x00000000       0x3d c:/program files (x86)/microchip/xc32/v2.15/bin/bin/../../lib/gcc/pic32mx/4.8.3/fpu64\libgcc.a(_udivdi3.o)
 .comment       0x00000000       0x3d c:/program files (x86)/microchip/xc32/v2.15/bin/bin/../../lib/gcc/pic32mx/4.8.3/fpu64\libgcc.a(_umoddi3.o)
 .comment       0x00000000       0x3d c:/program files (x86)/microchip/xc32/v2.15/bin/bin/../../lib/gcc/pic32mx/4.8.3/fpu64/crtend.o

.debug
 *.elf(.debug)
 *(.debug)

.line
 *.elf(.line)
 *(.line)

.debug_srcinfo
 *.elf(.debug_srcinfo)
 *(.debug_srcinfo)

.debug_sfnames
 *.elf(.debug_sfnames)
 *(.debug_sfnames)

.debug_aranges  0x00000000     0x1418
 *.elf(.debug_aranges)
 *(.debug_aranges)
 .debug_aranges
                0x00000000       0x20 build/default/production/_ext/694295097/bsp.o
 .debug_aranges
                0x00000020       0x70 build/default/production/_ext/490896790/drv_usbhs.o
 .debug_aranges
                0x00000090      0x100 build/default/production/_ext/490896790/drv_usbhs_device.o
 .debug_aranges
                0x00000190       0x20 build/default/production/_ext/2068470151/plib_clk.o
 .debug_aranges
                0x000001b0       0x60 build/default/production/_ext/1465287765/plib_coretimer.o
 .debug_aranges
                0x00000210       0x50 build/default/production/_ext/301865530/plib_evic.o
 .debug_aranges
                0x00000260       0x60 build/default/production/_ext/301811702/plib_gpio.o
 .debug_aranges
                0x000002c0       0x48 build/default/production/_ext/301585742/plib_ocmp8.o
 .debug_aranges
                0x00000308       0x48 build/default/production/_ext/301585742/plib_ocmp5.o
 .debug_aranges
                0x00000350       0x48 build/default/production/_ext/301585742/plib_ocmp3.o
 .debug_aranges
                0x00000398       0x50 build/default/production/_ext/2068486526/plib_tmr2.o
 .debug_aranges
                0x000003e8       0x90 build/default/production/_ext/301408759/plib_uart6.o
 .debug_aranges
                0x00000478       0x28 build/default/production/_ext/1481935855/xc32_monitor.o
 .debug_aranges
                0x000004a0       0x40 build/default/production/_ext/404994212/sys_int.o
 .debug_aranges
                0x000004e0      0x1a0 build/default/production/_ext/763370911/usb_device.o
 .debug_aranges
                0x00000680       0x88 build/default/production/_ext/763370911/usb_device_cdc.o
 .debug_aranges
                0x00000708       0x20 build/default/production/_ext/763370911/usb_device_cdc_acm.o
 .debug_aranges
                0x00000728       0x20 build/default/production/_ext/1160401513/initialization.o
 .debug_aranges
                0x00000748       0x40 build/default/production/_ext/1160401513/interrupts.o
 .debug_aranges
                0x00000788       0x38 build/default/production/_ext/1160401513/exceptions.o
 .debug_aranges
                0x000007c0       0x18 build/default/production/_ext/1160401513/usb_device_init_data.o
 .debug_aranges
                0x000007d8       0x20 build/default/production/_ext/1160401513/tasks.o
 .debug_aranges
                0x000007f8       0x68 build/default/production/_ext/1003616436/app.o
 .debug_aranges
                0x00000860       0xc8 build/default/production/_ext/1003616436/main.o
 .debug_aranges
                0x00000928       0x60 build/default/production/_ext/1003616436/usb_com_port.o
 .debug_aranges
                0x00000988       0x20 c:/program files (x86)/microchip/xc32/v2.15/bin/bin/../../lib/gcc/pic32mx/4.8.3/fpu64\libgcc.a(unwind-sjlj.o)
 .debug_aranges
                0x000009a8       0x20 c:/program files (x86)/microchip/xc32/v2.15/bin/bin/../../lib/gcc/pic32mx/4.8.3/../../../../pic32mx/lib/fpu64\libpic32.a(default-on-reset.o)
 .debug_aranges
                0x000009c8       0x20 c:/program files (x86)/microchip/xc32/v2.15/bin/bin/../../lib/gcc/pic32mx/4.8.3/../../../../pic32mx/lib/fpu64\libpic32.a(default-on-bootstrap.o)
 .debug_aranges
                0x000009e8       0x20 c:/program files (x86)/microchip/xc32/v2.15/bin/bin/../../lib/gcc/pic32mx/4.8.3/../../../../pic32mx/lib/fpu64\libpic32.a(defaultinterrupt.o)
 .debug_aranges
                0x00000a08       0xe0 c:/program files (x86)/microchip/xc32/v2.15/bin/bin/../../lib/gcc/pic32mx/4.8.3/../../../../pic32mx/lib/fpu64\libxcpp.a(xthrow.o)
 .debug_aranges
                0x00000ae8       0x20 c:/program files (x86)/microchip/xc32/v2.15/bin/bin/../../lib/gcc/pic32mx/4.8.3/../../../../pic32mx/lib/fpu64\libxcpp.a(abort.o)
 .debug_aranges
                0x00000b08       0x20 c:/program files (x86)/microchip/xc32/v2.15/bin/bin/../../lib/gcc/pic32mx/4.8.3/../../../../pic32mx/lib/fpu64\libxcpp.a(abs.o)
 .debug_aranges
                0x00000b28       0x30 c:/program files (x86)/microchip/xc32/v2.15/bin/bin/../../lib/gcc/pic32mx/4.8.3/../../../../pic32mx/lib/fpu64\libxcpp.a(exit.o)
 .debug_aranges
                0x00000b58       0x20 c:/program files (x86)/microchip/xc32/v2.15/bin/bin/../../lib/gcc/pic32mx/4.8.3/../../../../pic32mx/lib/fpu64\libxcpp.a(free.o)
 .debug_aranges
                0x00000b78       0x20 c:/program files (x86)/microchip/xc32/v2.15/bin/bin/../../lib/gcc/pic32mx/4.8.3/../../../../pic32mx/lib/fpu64\libxcpp.a(malloc.o)
 .debug_aranges
                0x00000b98       0x20 c:/program files (x86)/microchip/xc32/v2.15/bin/bin/../../lib/gcc/pic32mx/4.8.3/../../../../pic32mx/lib/fpu64\libxcpp.a(memmove.o)
 .debug_aranges
                0x00000bb8       0x20 c:/program files (x86)/microchip/xc32/v2.15/bin/bin/../../lib/gcc/pic32mx/4.8.3/../../../../pic32mx/lib/fpu64\libxcpp.a(raise.o)
 .debug_aranges
                0x00000bd8       0x28 c:/program files (x86)/microchip/xc32/v2.15/bin/bin/../../lib/gcc/pic32mx/4.8.3/../../../../pic32mx/lib/fpu64\libxcpp.a(vsnprint.o)
 .debug_aranges
                0x00000c00       0x20 c:/program files (x86)/microchip/xc32/v2.15/bin/bin/../../lib/gcc/pic32mx/4.8.3/../../../../pic32mx/lib/fpu64\libxcpp.a(xexit.o)
 .debug_aranges
                0x00000c20       0x20 c:/program files (x86)/microchip/xc32/v2.15/bin/bin/../../lib/gcc/pic32mx/4.8.3/../../../../pic32mx/lib/fpu64\libxcpp.a(xgetmem.o)
 .debug_aranges
                0x00000c40       0x20 c:/program files (x86)/microchip/xc32/v2.15/bin/bin/../../lib/gcc/pic32mx/4.8.3/../../../../pic32mx/lib/fpu64\libxcpp.a(xprintf.o)
 .debug_aranges
                0x00000c60       0x20 c:/program files (x86)/microchip/xc32/v2.15/bin/bin/../../lib/gcc/pic32mx/4.8.3/../../../../pic32mx/lib/fpu64\libxcpp.a(xputfld.o)
 .debug_aranges
                0x00000c80       0x20 c:/program files (x86)/microchip/xc32/v2.15/bin/bin/../../lib/gcc/pic32mx/4.8.3/../../../../pic32mx/lib/fpu64\libxcpp.a(xputstr.o)
 .debug_aranges
                0x00000ca0       0x20 c:/program files (x86)/microchip/xc32/v2.15/bin/bin/../../lib/gcc/pic32mx/4.8.3/../../../../pic32mx/lib/fpu64\libxcpp.a(xputtxt.o)
 .debug_aranges
                0x00000cc0       0x28 c:/program files (x86)/microchip/xc32/v2.15/bin/bin/../../lib/gcc/pic32mx/4.8.3/../../../../pic32mx/lib/fpu64\libxcpp.a(xstate.o)
 .debug_aranges
                0x00000ce8       0x20 c:/program files (x86)/microchip/xc32/v2.15/bin/bin/../../lib/gcc/pic32mx/4.8.3/../../../../pic32mx/lib/fpu64\libxcpp.a(xvacopy.o)
 .debug_aranges
                0x00000d08       0x28 c:/program files (x86)/microchip/xc32/v2.15/bin/bin/../../lib/gcc/pic32mx/4.8.3/../../../../pic32mx/lib/fpu64\libxcpp.a(xwctomb.o)
 .debug_aranges
                0x00000d30       0x38 c:/program files (x86)/microchip/xc32/v2.15/bin/bin/../../lib/gcc/pic32mx/4.8.3/../../../../pic32mx/lib/fpu64\libxcpp.a(xfail_s.o)
 .debug_aranges
                0x00000d68       0x20 c:/program files (x86)/microchip/xc32/v2.15/bin/bin/../../lib/gcc/pic32mx/4.8.3/../../../../pic32mx/lib/fpu64\libxcpp.a(errno.o)
 .debug_aranges
                0x00000d88       0x20 c:/program files (x86)/microchip/xc32/v2.15/bin/bin/../../lib/gcc/pic32mx/4.8.3/../../../../pic32mx/lib/fpu64\libxcpp.a(fputc.o)
 .debug_aranges
                0x00000da8       0x20 c:/program files (x86)/microchip/xc32/v2.15/bin/bin/../../lib/gcc/pic32mx/4.8.3/../../../../pic32mx/lib/fpu64\libxcpp.a(fputs.o)
 .debug_aranges
                0x00000dc8       0x20 c:/program files (x86)/microchip/xc32/v2.15/bin/bin/../../lib/gcc/pic32mx/4.8.3/../../../../pic32mx/lib/fpu64\libxcpp.a(memchr.o)
 .debug_aranges
                0x00000de8       0x20 c:/program files (x86)/microchip/xc32/v2.15/bin/bin/../../lib/gcc/pic32mx/4.8.3/../../../../pic32mx/lib/fpu64\libxcpp.a(strchr.o)
 .debug_aranges
                0x00000e08       0x20 c:/program files (x86)/microchip/xc32/v2.15/bin/bin/../../lib/gcc/pic32mx/4.8.3/../../../../pic32mx/lib/fpu64\libxcpp.a(strrchr.o)
 .debug_aranges
                0x00000e28       0x20 c:/program files (x86)/microchip/xc32/v2.15/bin/bin/../../lib/gcc/pic32mx/4.8.3/../../../../pic32mx/lib/fpu64\libxcpp.a(xctype.o)
 .debug_aranges
                0x00000e48       0x20 c:/program files (x86)/microchip/xc32/v2.15/bin/bin/../../lib/gcc/pic32mx/4.8.3/../../../../pic32mx/lib/fpu64\libxcpp.a(xfwprep.o)
 .debug_aranges
                0x00000e68       0x20 c:/program files (x86)/microchip/xc32/v2.15/bin/bin/../../lib/gcc/pic32mx/4.8.3/../../../../pic32mx/lib/fpu64\libxcpp.a(xldtob.o)
 .debug_aranges
                0x00000e88       0x20 c:/program files (x86)/microchip/xc32/v2.15/bin/bin/../../lib/gcc/pic32mx/4.8.3/../../../../pic32mx/lib/fpu64\libxcpp.a(xldunsca.o)
 .debug_aranges
                0x00000ea8       0x20 c:/program files (x86)/microchip/xc32/v2.15/bin/bin/../../lib/gcc/pic32mx/4.8.3/../../../../pic32mx/lib/fpu64\libxcpp.a(xlitob.o)
 .debug_aranges
                0x00000ec8       0x70 c:/program files (x86)/microchip/xc32/v2.15/bin/bin/../../lib/gcc/pic32mx/4.8.3/../../../../pic32mx/lib/fpu64\libxcpp.a(xlprec.o)
 .debug_aranges
                0x00000f38       0x28 c:/program files (x86)/microchip/xc32/v2.15/bin/bin/../../lib/gcc/pic32mx/4.8.3/../../../../pic32mx/lib/fpu64\libxcpp.a(xmbtowc.o)
 .debug_aranges
                0x00000f60       0x20 c:/program files (x86)/microchip/xc32/v2.15/bin/bin/../../lib/gcc/pic32mx/4.8.3/../../../../pic32mx/lib/fpu64\libxcpp.a(xwcstate.o)
 .debug_aranges
                0x00000f80       0x20 c:/program files (x86)/microchip/xc32/v2.15/bin/bin/../../lib/gcc/pic32mx/4.8.3/../../../../pic32mx/lib/fpu64\libxcpp.a(strnlen_s.o)
 .debug_aranges
                0x00000fa0       0x30 c:/program files (x86)/microchip/xc32/v2.15/bin/bin/../../lib/gcc/pic32mx/4.8.3/../../../../pic32mx/lib/fpu64\libxcpp.a(fclose.o)
 .debug_aranges
                0x00000fd0       0x20 c:/program files (x86)/microchip/xc32/v2.15/bin/bin/../../lib/gcc/pic32mx/4.8.3/../../../../pic32mx/lib/fpu64\libxcpp.a(fflush.o)
 .debug_aranges
                0x00000ff0       0x20 c:/program files (x86)/microchip/xc32/v2.15/bin/bin/../../lib/gcc/pic32mx/4.8.3/../../../../pic32mx/lib/fpu64\libxcpp.a(ldexpl.o)
 .debug_aranges
                0x00001010       0x20 c:/program files (x86)/microchip/xc32/v2.15/bin/bin/../../lib/gcc/pic32mx/4.8.3/../../../../pic32mx/lib/fpu64\libxcpp.a(ldiv.o)
 .debug_aranges
                0x00001030       0x20 c:/program files (x86)/microchip/xc32/v2.15/bin/bin/../../lib/gcc/pic32mx/4.8.3/../../../../pic32mx/lib/fpu64\libxcpp.a(remove.o)
 .debug_aranges
                0x00001050       0x20 c:/program files (x86)/microchip/xc32/v2.15/bin/bin/../../lib/gcc/pic32mx/4.8.3/../../../../pic32mx/lib/fpu64\libxcpp.a(sqrtl.o)
 .debug_aranges
                0x00001070       0x20 c:/program files (x86)/microchip/xc32/v2.15/bin/bin/../../lib/gcc/pic32mx/4.8.3/../../../../pic32mx/lib/fpu64\libxcpp.a(xatexit.o)
 .debug_aranges
                0x00001090       0x20 c:/program files (x86)/microchip/xc32/v2.15/bin/bin/../../lib/gcc/pic32mx/4.8.3/../../../../pic32mx/lib/fpu64\libxcpp.a(xdunscal.o)
 .debug_aranges
                0x000010b0       0x20 c:/program files (x86)/microchip/xc32/v2.15/bin/bin/../../lib/gcc/pic32mx/4.8.3/../../../../pic32mx/lib/fpu64\libxcpp.a(xferaise.o)
 .debug_aranges
                0x000010d0       0x28 c:/program files (x86)/microchip/xc32/v2.15/bin/bin/../../lib/gcc/pic32mx/4.8.3/../../../../pic32mx/lib/fpu64\libxcpp.a(xfofind.o)
 .debug_aranges
                0x000010f8       0x20 c:/program files (x86)/microchip/xc32/v2.15/bin/bin/../../lib/gcc/pic32mx/4.8.3/../../../../pic32mx/lib/fpu64\libxcpp.a(xgenld.o)
 .debug_aranges
                0x00001118       0x20 c:/program files (x86)/microchip/xc32/v2.15/bin/bin/../../lib/gcc/pic32mx/4.8.3/../../../../pic32mx/lib/fpu64\libxcpp.a(xldint.o)
 .debug_aranges
                0x00001138       0x20 c:/program files (x86)/microchip/xc32/v2.15/bin/bin/../../lib/gcc/pic32mx/4.8.3/../../../../pic32mx/lib/fpu64\libxcpp.a(xldscale.o)
 .debug_aranges
                0x00001158       0x20 c:/program files (x86)/microchip/xc32/v2.15/bin/bin/../../lib/gcc/pic32mx/4.8.3/../../../../pic32mx/lib/fpu64\libxcpp.a(xldtest.o)
 .debug_aranges
                0x00001178       0x20 c:/program files (x86)/microchip/xc32/v2.15/bin/bin/../../lib/gcc/pic32mx/4.8.3/../../../../pic32mx/lib/fpu64\libxcpp.a(feraiseexcept.o)
 .debug_aranges
                0x00001198       0x20 c:/program files (x86)/microchip/xc32/v2.15/bin/bin/../../lib/gcc/pic32mx/4.8.3/../../../../pic32mx/lib/fpu64\libxcpp.a(fesetenv.o)
 .debug_aranges
                0x000011b8       0x20 c:/program files (x86)/microchip/xc32/v2.15/bin/bin/../../lib/gcc/pic32mx/4.8.3/../../../../pic32mx/lib/fpu64\libxcpp.a(div.o)
 .debug_aranges
                0x000011d8       0x20 c:/program files (x86)/microchip/xc32/v2.15/bin/bin/../../lib/gcc/pic32mx/4.8.3/../../../../pic32mx/lib/fpu64\libxcpp.a(localeco.o)
 .debug_aranges
                0x000011f8       0x20 c:/program files (x86)/microchip/xc32/v2.15/bin/bin/../../lib/gcc/pic32mx/4.8.3/../../../../pic32mx/lib/fpu64\libxcpp.a(xdint.o)
 .debug_aranges
                0x00001218       0x20 c:/program files (x86)/microchip/xc32/v2.15/bin/bin/../../lib/gcc/pic32mx/4.8.3/../../../../pic32mx/lib/fpu64\libxcpp.a(xdnorm.o)
 .debug_aranges
                0x00001238       0x20 c:/program files (x86)/microchip/xc32/v2.15/bin/bin/../../lib/gcc/pic32mx/4.8.3/../../../../pic32mx/lib/fpu64\libxcpp.a(xdscale.o)
 .debug_aranges
                0x00001258       0x20 c:/program files (x86)/microchip/xc32/v2.15/bin/bin/../../lib/gcc/pic32mx/4.8.3/../../../../pic32mx/lib/fpu64\libxcpp.a(xdtest.o)
 .debug_aranges
                0x00001278       0x20 c:/program files (x86)/microchip/xc32/v2.15/bin/bin/../../lib/gcc/pic32mx/4.8.3/../../../../pic32mx/lib/fpu64\libxcpp.a(fegetenv.o)
 .debug_aranges
                0x00001298       0x40 c:/program files (x86)/microchip/xc32/v2.15/bin/bin/../../lib/gcc/pic32mx/4.8.3/../../../../pic32mx/lib/fpu64\libpic32.a(sbrk.o)
 .debug_aranges
                0x000012d8       0x20 c:/program files (x86)/microchip/xc32/v2.15/bin/bin/../../lib/gcc/pic32mx/4.8.3/../../../../pic32mx/lib/fpu64\libpic32.a(_exit.o)
 .debug_aranges
                0x000012f8       0x20 c:/program files (x86)/microchip/xc32/v2.15/bin/bin/../../lib/gcc/pic32mx/4.8.3/../../../../pic32mx/lib/fpu64\libpic32.a(isatty.o)
 .debug_aranges
                0x00001318       0x20 c:/program files (x86)/microchip/xc32/v2.15/bin/bin/../../lib/gcc/pic32mx/4.8.3/../../../../pic32mx/lib/fpu64\libpic32.a(write.o)
 .debug_aranges
                0x00001338       0x20 c:/program files (x86)/microchip/xc32/v2.15/bin/bin/../../lib/gcc/pic32mx/4.8.3/../../../../pic32mx/lib/fpu64\libpic32.a(close.o)
 .debug_aranges
                0x00001358       0x20 c:/program files (x86)/microchip/xc32/v2.15/bin/bin/../../lib/gcc/pic32mx/4.8.3/../../../../pic32mx/lib/fpu64\libpic32.a(unlink.o)
 .debug_aranges
                0x00001378       0x20 c:/program files (x86)/microchip/xc32/v2.15/bin/bin/../../lib/gcc/pic32mx/4.8.3/../../../../pic32mx/lib/fpu64\libpic32.a(kill.o)
 .debug_aranges
                0x00001398       0x20 c:/program files (x86)/microchip/xc32/v2.15/bin/bin/../../lib/gcc/pic32mx/4.8.3/../../../../pic32mx/lib/fpu64\libpic32.a(getpid.o)
 .debug_aranges
                0x000013b8       0x20 c:/program files (x86)/microchip/xc32/v2.15/bin/bin/../../lib/gcc/pic32mx/4.8.3/../../../../pic32mx/lib/fpu64\libpic32.a(rmdir.o)
 .debug_aranges
                0x000013d8       0x20 c:/program files (x86)/microchip/xc32/v2.15/bin/bin/../../lib/gcc/pic32mx/4.8.3/fpu64\libgcc.a(_udivdi3.o)
 .debug_aranges
                0x000013f8       0x20 c:/program files (x86)/microchip/xc32/v2.15/bin/bin/../../lib/gcc/pic32mx/4.8.3/fpu64\libgcc.a(_umoddi3.o)

.debug_pubnames
 *.elf(.debug_pubnames)
 *(.debug_pubnames)

.debug_info     0x00000000    0x448ba
 *.elf(.debug_info .gnu.linkonce.wi.*)
 *(.debug_info .gnu.linkonce.wi.*)
 .debug_info    0x00000000      0x1ae build/default/production/_ext/694295097/bsp.o
 .debug_info    0x000001ae     0x616c build/default/production/_ext/490896790/drv_usbhs.o
 .debug_info    0x0000631a     0xb430 build/default/production/_ext/490896790/drv_usbhs_device.o
 .debug_info    0x0001174a      0x247 build/default/production/_ext/2068470151/plib_clk.o
 .debug_info    0x00011991      0x6c6 build/default/production/_ext/1465287765/plib_coretimer.o
 .debug_info    0x00012057     0x1869 build/default/production/_ext/301865530/plib_evic.o
 .debug_info    0x000138c0      0x749 build/default/production/_ext/301811702/plib_gpio.o
 .debug_info    0x00014009      0x31f build/default/production/_ext/301585742/plib_ocmp8.o
 .debug_info    0x00014328      0x31f build/default/production/_ext/301585742/plib_ocmp5.o
 .debug_info    0x00014647      0x31f build/default/production/_ext/301585742/plib_ocmp3.o
 .debug_info    0x00014966      0x302 build/default/production/_ext/2068486526/plib_tmr2.o
 .debug_info    0x00014c68      0xa9b build/default/production/_ext/301408759/plib_uart6.o
 .debug_info    0x00015703      0x14e build/default/production/_ext/1481935855/xc32_monitor.o
 .debug_info    0x00015851     0x17ea build/default/production/_ext/404994212/sys_int.o
 .debug_info    0x0001703b     0x68fe build/default/production/_ext/763370911/usb_device.o
 .debug_info    0x0001d939     0x3a35 build/default/production/_ext/763370911/usb_device_cdc.o
 .debug_info    0x0002136e     0x1232 build/default/production/_ext/763370911/usb_device_cdc_acm.o
 .debug_info    0x000225a0     0x2c35 build/default/production/_ext/1160401513/initialization.o
 .debug_info    0x000251d5      0x32b build/default/production/_ext/1160401513/interrupts.o
 .debug_info    0x00025500      0x958 build/default/production/_ext/1160401513/exceptions.o
 .debug_info    0x00025e58     0x4083 build/default/production/_ext/1160401513/usb_device_init_data.o
 .debug_info    0x00029edb      0x2aa build/default/production/_ext/1160401513/tasks.o
 .debug_info    0x0002a185     0x1abb build/default/production/_ext/1003616436/app.o
 .debug_info    0x0002bc40    0x10ff1 build/default/production/_ext/1003616436/main.o
 .debug_info    0x0003cc31     0x1d1a build/default/production/_ext/1003616436/usb_com_port.o
 .debug_info    0x0003e94b     0x1273 c:/program files (x86)/microchip/xc32/v2.15/bin/bin/../../lib/gcc/pic32mx/4.8.3/fpu64\libgcc.a(unwind-sjlj.o)
 .debug_info    0x0003fbbe       0xd2 c:/program files (x86)/microchip/xc32/v2.15/bin/bin/../../lib/gcc/pic32mx/4.8.3/../../../../pic32mx/lib/fpu64\libpic32.a(default-on-reset.o)
 .debug_info    0x0003fc90       0xda c:/program files (x86)/microchip/xc32/v2.15/bin/bin/../../lib/gcc/pic32mx/4.8.3/../../../../pic32mx/lib/fpu64\libpic32.a(default-on-bootstrap.o)
 .debug_info    0x0003fd6a       0xec c:/program files (x86)/microchip/xc32/v2.15/bin/bin/../../lib/gcc/pic32mx/4.8.3/../../../../pic32mx/lib/fpu64\libpic32.a(defaultinterrupt.o)
 .debug_info    0x0003fe56      0x830 c:/program files (x86)/microchip/xc32/v2.15/bin/bin/../../lib/gcc/pic32mx/4.8.3/../../../../pic32mx/lib/fpu64\libxcpp.a(xthrow.o)
 .debug_info    0x00040686       0xb9 c:/program files (x86)/microchip/xc32/v2.15/bin/bin/../../lib/gcc/pic32mx/4.8.3/../../../../pic32mx/lib/fpu64\libxcpp.a(abort.o)
 .debug_info    0x0004073f       0xb5 c:/program files (x86)/microchip/xc32/v2.15/bin/bin/../../lib/gcc/pic32mx/4.8.3/../../../../pic32mx/lib/fpu64\libxcpp.a(abs.o)
 .debug_info    0x000407f4       0xe7 c:/program files (x86)/microchip/xc32/v2.15/bin/bin/../../lib/gcc/pic32mx/4.8.3/../../../../pic32mx/lib/fpu64\libxcpp.a(exit.o)
 .debug_info    0x000408db       0xb7 c:/program files (x86)/microchip/xc32/v2.15/bin/bin/../../lib/gcc/pic32mx/4.8.3/../../../../pic32mx/lib/fpu64\libxcpp.a(free.o)
 .debug_info    0x00040992       0xc7 c:/program files (x86)/microchip/xc32/v2.15/bin/bin/../../lib/gcc/pic32mx/4.8.3/../../../../pic32mx/lib/fpu64\libxcpp.a(malloc.o)
 .debug_info    0x00040a59       0xbd c:/program files (x86)/microchip/xc32/v2.15/bin/bin/../../lib/gcc/pic32mx/4.8.3/../../../../pic32mx/lib/fpu64\libxcpp.a(memmove.o)
 .debug_info    0x00040b16       0xb9 c:/program files (x86)/microchip/xc32/v2.15/bin/bin/../../lib/gcc/pic32mx/4.8.3/../../../../pic32mx/lib/fpu64\libxcpp.a(raise.o)
 .debug_info    0x00040bcf       0xd4 c:/program files (x86)/microchip/xc32/v2.15/bin/bin/../../lib/gcc/pic32mx/4.8.3/../../../../pic32mx/lib/fpu64\libxcpp.a(vsnprint.o)
 .debug_info    0x00040ca3       0xb9 c:/program files (x86)/microchip/xc32/v2.15/bin/bin/../../lib/gcc/pic32mx/4.8.3/../../../../pic32mx/lib/fpu64\libxcpp.a(xexit.o)
 .debug_info    0x00040d5c       0xbd c:/program files (x86)/microchip/xc32/v2.15/bin/bin/../../lib/gcc/pic32mx/4.8.3/../../../../pic32mx/lib/fpu64\libxcpp.a(xgetmem.o)
 .debug_info    0x00040e19       0xbd c:/program files (x86)/microchip/xc32/v2.15/bin/bin/../../lib/gcc/pic32mx/4.8.3/../../../../pic32mx/lib/fpu64\libxcpp.a(xprintf.o)
 .debug_info    0x00040ed6       0xbd c:/program files (x86)/microchip/xc32/v2.15/bin/bin/../../lib/gcc/pic32mx/4.8.3/../../../../pic32mx/lib/fpu64\libxcpp.a(xputfld.o)
 .debug_info    0x00040f93       0xbd c:/program files (x86)/microchip/xc32/v2.15/bin/bin/../../lib/gcc/pic32mx/4.8.3/../../../../pic32mx/lib/fpu64\libxcpp.a(xputstr.o)
 .debug_info    0x00041050       0xbd c:/program files (x86)/microchip/xc32/v2.15/bin/bin/../../lib/gcc/pic32mx/4.8.3/../../../../pic32mx/lib/fpu64\libxcpp.a(xputtxt.o)
 .debug_info    0x0004110d       0xdd c:/program files (x86)/microchip/xc32/v2.15/bin/bin/../../lib/gcc/pic32mx/4.8.3/../../../../pic32mx/lib/fpu64\libxcpp.a(xstate.o)
 .debug_info    0x000411ea       0xbd c:/program files (x86)/microchip/xc32/v2.15/bin/bin/../../lib/gcc/pic32mx/4.8.3/../../../../pic32mx/lib/fpu64\libxcpp.a(xvacopy.o)
 .debug_info    0x000412a7       0xd5 c:/program files (x86)/microchip/xc32/v2.15/bin/bin/../../lib/gcc/pic32mx/4.8.3/../../../../pic32mx/lib/fpu64\libxcpp.a(xwctomb.o)
 .debug_info    0x0004137c      0x12b c:/program files (x86)/microchip/xc32/v2.15/bin/bin/../../lib/gcc/pic32mx/4.8.3/../../../../pic32mx/lib/fpu64\libxcpp.a(xfail_s.o)
 .debug_info    0x000414a7       0xbd c:/program files (x86)/microchip/xc32/v2.15/bin/bin/../../lib/gcc/pic32mx/4.8.3/../../../../pic32mx/lib/fpu64\libxcpp.a(errno.o)
 .debug_info    0x00041564       0xb9 c:/program files (x86)/microchip/xc32/v2.15/bin/bin/../../lib/gcc/pic32mx/4.8.3/../../../../pic32mx/lib/fpu64\libxcpp.a(fputc.o)
 .debug_info    0x0004161d       0xb9 c:/program files (x86)/microchip/xc32/v2.15/bin/bin/../../lib/gcc/pic32mx/4.8.3/../../../../pic32mx/lib/fpu64\libxcpp.a(fputs.o)
 .debug_info    0x000416d6       0xbb c:/program files (x86)/microchip/xc32/v2.15/bin/bin/../../lib/gcc/pic32mx/4.8.3/../../../../pic32mx/lib/fpu64\libxcpp.a(memchr.o)
 .debug_info    0x00041791       0xbb c:/program files (x86)/microchip/xc32/v2.15/bin/bin/../../lib/gcc/pic32mx/4.8.3/../../../../pic32mx/lib/fpu64\libxcpp.a(strchr.o)
 .debug_info    0x0004184c       0xbd c:/program files (x86)/microchip/xc32/v2.15/bin/bin/../../lib/gcc/pic32mx/4.8.3/../../../../pic32mx/lib/fpu64\libxcpp.a(strrchr.o)
 .debug_info    0x00041909       0xbf c:/program files (x86)/microchip/xc32/v2.15/bin/bin/../../lib/gcc/pic32mx/4.8.3/../../../../pic32mx/lib/fpu64\libxcpp.a(xctype.o)
 .debug_info    0x000419c8       0xbd c:/program files (x86)/microchip/xc32/v2.15/bin/bin/../../lib/gcc/pic32mx/4.8.3/../../../../pic32mx/lib/fpu64\libxcpp.a(xfwprep.o)
 .debug_info    0x00041a85       0xbb c:/program files (x86)/microchip/xc32/v2.15/bin/bin/../../lib/gcc/pic32mx/4.8.3/../../../../pic32mx/lib/fpu64\libxcpp.a(xldtob.o)
 .debug_info    0x00041b40       0xc1 c:/program files (x86)/microchip/xc32/v2.15/bin/bin/../../lib/gcc/pic32mx/4.8.3/../../../../pic32mx/lib/fpu64\libxcpp.a(xldunsca.o)
 .debug_info    0x00041c01       0xbb c:/program files (x86)/microchip/xc32/v2.15/bin/bin/../../lib/gcc/pic32mx/4.8.3/../../../../pic32mx/lib/fpu64\libxcpp.a(xlitob.o)
 .debug_info    0x00041cbc      0x1cc c:/program files (x86)/microchip/xc32/v2.15/bin/bin/../../lib/gcc/pic32mx/4.8.3/../../../../pic32mx/lib/fpu64\libxcpp.a(xlprec.o)
 .debug_info    0x00041e88       0xd5 c:/program files (x86)/microchip/xc32/v2.15/bin/bin/../../lib/gcc/pic32mx/4.8.3/../../../../pic32mx/lib/fpu64\libxcpp.a(xmbtowc.o)
 .debug_info    0x00041f5d       0xc3 c:/program files (x86)/microchip/xc32/v2.15/bin/bin/../../lib/gcc/pic32mx/4.8.3/../../../../pic32mx/lib/fpu64\libxcpp.a(xwcstate.o)
 .debug_info    0x00042020       0xc8 c:/program files (x86)/microchip/xc32/v2.15/bin/bin/../../lib/gcc/pic32mx/4.8.3/../../../../pic32mx/lib/fpu64\libxcpp.a(strnlen_s.o)
 .debug_info    0x000420e8       0xfa c:/program files (x86)/microchip/xc32/v2.15/bin/bin/../../lib/gcc/pic32mx/4.8.3/../../../../pic32mx/lib/fpu64\libxcpp.a(fclose.o)
 .debug_info    0x000421e2       0xbb c:/program files (x86)/microchip/xc32/v2.15/bin/bin/../../lib/gcc/pic32mx/4.8.3/../../../../pic32mx/lib/fpu64\libxcpp.a(fflush.o)
 .debug_info    0x0004229d       0xbb c:/program files (x86)/microchip/xc32/v2.15/bin/bin/../../lib/gcc/pic32mx/4.8.3/../../../../pic32mx/lib/fpu64\libxcpp.a(ldexpl.o)
 .debug_info    0x00042358       0xb7 c:/program files (x86)/microchip/xc32/v2.15/bin/bin/../../lib/gcc/pic32mx/4.8.3/../../../../pic32mx/lib/fpu64\libxcpp.a(ldiv.o)
 .debug_info    0x0004240f       0xbb c:/program files (x86)/microchip/xc32/v2.15/bin/bin/../../lib/gcc/pic32mx/4.8.3/../../../../pic32mx/lib/fpu64\libxcpp.a(remove.o)
 .debug_info    0x000424ca       0xb9 c:/program files (x86)/microchip/xc32/v2.15/bin/bin/../../lib/gcc/pic32mx/4.8.3/../../../../pic32mx/lib/fpu64\libxcpp.a(sqrtl.o)
 .debug_info    0x00042583       0xbd c:/program files (x86)/microchip/xc32/v2.15/bin/bin/../../lib/gcc/pic32mx/4.8.3/../../../../pic32mx/lib/fpu64\libxcpp.a(xatexit.o)
 .debug_info    0x00042640       0xc0 c:/program files (x86)/microchip/xc32/v2.15/bin/bin/../../lib/gcc/pic32mx/4.8.3/../../../../pic32mx/lib/fpu64\libxcpp.a(xdunscal.o)
 .debug_info    0x00042700       0xbf c:/program files (x86)/microchip/xc32/v2.15/bin/bin/../../lib/gcc/pic32mx/4.8.3/../../../../pic32mx/lib/fpu64\libxcpp.a(xferaise.o)
 .debug_info    0x000427bf       0xd4 c:/program files (x86)/microchip/xc32/v2.15/bin/bin/../../lib/gcc/pic32mx/4.8.3/../../../../pic32mx/lib/fpu64\libxcpp.a(xfofind.o)
 .debug_info    0x00042893       0xbb c:/program files (x86)/microchip/xc32/v2.15/bin/bin/../../lib/gcc/pic32mx/4.8.3/../../../../pic32mx/lib/fpu64\libxcpp.a(xgenld.o)
 .debug_info    0x0004294e       0xbb c:/program files (x86)/microchip/xc32/v2.15/bin/bin/../../lib/gcc/pic32mx/4.8.3/../../../../pic32mx/lib/fpu64\libxcpp.a(xldint.o)
 .debug_info    0x00042a09       0xbf c:/program files (x86)/microchip/xc32/v2.15/bin/bin/../../lib/gcc/pic32mx/4.8.3/../../../../pic32mx/lib/fpu64\libxcpp.a(xldscale.o)
 .debug_info    0x00042ac8       0xbd c:/program files (x86)/microchip/xc32/v2.15/bin/bin/../../lib/gcc/pic32mx/4.8.3/../../../../pic32mx/lib/fpu64\libxcpp.a(xldtest.o)
 .debug_info    0x00042b85       0xc5 c:/program files (x86)/microchip/xc32/v2.15/bin/bin/../../lib/gcc/pic32mx/4.8.3/../../../../pic32mx/lib/fpu64\libxcpp.a(feraiseexcept.o)
 .debug_info    0x00042c4a       0xd7 c:/program files (x86)/microchip/xc32/v2.15/bin/bin/../../lib/gcc/pic32mx/4.8.3/../../../../pic32mx/lib/fpu64\libxcpp.a(fesetenv.o)
 .debug_info    0x00042d21       0xb5 c:/program files (x86)/microchip/xc32/v2.15/bin/bin/../../lib/gcc/pic32mx/4.8.3/../../../../pic32mx/lib/fpu64\libxcpp.a(div.o)
 .debug_info    0x00042dd6       0xc1 c:/program files (x86)/microchip/xc32/v2.15/bin/bin/../../lib/gcc/pic32mx/4.8.3/../../../../pic32mx/lib/fpu64\libxcpp.a(localeco.o)
 .debug_info    0x00042e97       0xb9 c:/program files (x86)/microchip/xc32/v2.15/bin/bin/../../lib/gcc/pic32mx/4.8.3/../../../../pic32mx/lib/fpu64\libxcpp.a(xdint.o)
 .debug_info    0x00042f50       0xbb c:/program files (x86)/microchip/xc32/v2.15/bin/bin/../../lib/gcc/pic32mx/4.8.3/../../../../pic32mx/lib/fpu64\libxcpp.a(xdnorm.o)
 .debug_info    0x0004300b       0xbd c:/program files (x86)/microchip/xc32/v2.15/bin/bin/../../lib/gcc/pic32mx/4.8.3/../../../../pic32mx/lib/fpu64\libxcpp.a(xdscale.o)
 .debug_info    0x000430c8       0xbb c:/program files (x86)/microchip/xc32/v2.15/bin/bin/../../lib/gcc/pic32mx/4.8.3/../../../../pic32mx/lib/fpu64\libxcpp.a(xdtest.o)
 .debug_info    0x00043183       0xbb c:/program files (x86)/microchip/xc32/v2.15/bin/bin/../../lib/gcc/pic32mx/4.8.3/../../../../pic32mx/lib/fpu64\libxcpp.a(fegetenv.o)
 .debug_info    0x0004323e      0x136 c:/program files (x86)/microchip/xc32/v2.15/bin/bin/../../lib/gcc/pic32mx/4.8.3/../../../../pic32mx/lib/fpu64\libpic32.a(sbrk.o)
 .debug_info    0x00043374       0xc3 c:/program files (x86)/microchip/xc32/v2.15/bin/bin/../../lib/gcc/pic32mx/4.8.3/../../../../pic32mx/lib/fpu64\libpic32.a(_exit.o)
 .debug_info    0x00043437       0xc5 c:/program files (x86)/microchip/xc32/v2.15/bin/bin/../../lib/gcc/pic32mx/4.8.3/../../../../pic32mx/lib/fpu64\libpic32.a(isatty.o)
 .debug_info    0x000434fc       0xc4 c:/program files (x86)/microchip/xc32/v2.15/bin/bin/../../lib/gcc/pic32mx/4.8.3/../../../../pic32mx/lib/fpu64\libpic32.a(write.o)
 .debug_info    0x000435c0       0xc3 c:/program files (x86)/microchip/xc32/v2.15/bin/bin/../../lib/gcc/pic32mx/4.8.3/../../../../pic32mx/lib/fpu64\libpic32.a(close.o)
 .debug_info    0x00043683       0xc5 c:/program files (x86)/microchip/xc32/v2.15/bin/bin/../../lib/gcc/pic32mx/4.8.3/../../../../pic32mx/lib/fpu64\libpic32.a(unlink.o)
 .debug_info    0x00043748       0xc1 c:/program files (x86)/microchip/xc32/v2.15/bin/bin/../../lib/gcc/pic32mx/4.8.3/../../../../pic32mx/lib/fpu64\libpic32.a(kill.o)
 .debug_info    0x00043809       0xc5 c:/program files (x86)/microchip/xc32/v2.15/bin/bin/../../lib/gcc/pic32mx/4.8.3/../../../../pic32mx/lib/fpu64\libpic32.a(getpid.o)
 .debug_info    0x000438ce       0xc3 c:/program files (x86)/microchip/xc32/v2.15/bin/bin/../../lib/gcc/pic32mx/4.8.3/../../../../pic32mx/lib/fpu64\libpic32.a(rmdir.o)
 .debug_info    0x00043991      0x776 c:/program files (x86)/microchip/xc32/v2.15/bin/bin/../../lib/gcc/pic32mx/4.8.3/fpu64\libgcc.a(_udivdi3.o)
 .debug_info    0x00044107      0x7b3 c:/program files (x86)/microchip/xc32/v2.15/bin/bin/../../lib/gcc/pic32mx/4.8.3/fpu64\libgcc.a(_umoddi3.o)

.debug_abbrev   0x00000000     0x493d
 *.elf(.debug_abbrev)
 *(.debug_abbrev)
 .debug_abbrev  0x00000000       0x39 build/default/production/_ext/694295097/bsp.o
 .debug_abbrev  0x00000039      0x474 build/default/production/_ext/490896790/drv_usbhs.o
 .debug_abbrev  0x000004ad      0x533 build/default/production/_ext/490896790/drv_usbhs_device.o
 .debug_abbrev  0x000009e0       0x5e build/default/production/_ext/2068470151/plib_clk.o
 .debug_abbrev  0x00000a3e      0x141 build/default/production/_ext/1465287765/plib_coretimer.o
 .debug_abbrev  0x00000b7f       0xed build/default/production/_ext/301865530/plib_evic.o
 .debug_abbrev  0x00000c6c      0x132 build/default/production/_ext/301811702/plib_gpio.o
 .debug_abbrev  0x00000d9e       0xa1 build/default/production/_ext/301585742/plib_ocmp8.o
 .debug_abbrev  0x00000e3f       0xa1 build/default/production/_ext/301585742/plib_ocmp5.o
 .debug_abbrev  0x00000ee0       0xa1 build/default/production/_ext/301585742/plib_ocmp3.o
 .debug_abbrev  0x00000f81       0xa1 build/default/production/_ext/2068486526/plib_tmr2.o
 .debug_abbrev  0x00001022      0x228 build/default/production/_ext/301408759/plib_uart6.o
 .debug_abbrev  0x0000124a       0x66 build/default/production/_ext/1481935855/xc32_monitor.o
 .debug_abbrev  0x000012b0      0x130 build/default/production/_ext/404994212/sys_int.o
 .debug_abbrev  0x000013e0      0x3d0 build/default/production/_ext/763370911/usb_device.o
 .debug_abbrev  0x000017b0      0x3f9 build/default/production/_ext/763370911/usb_device_cdc.o
 .debug_abbrev  0x00001ba9      0x199 build/default/production/_ext/763370911/usb_device_cdc_acm.o
 .debug_abbrev  0x00001d42      0x1f7 build/default/production/_ext/1160401513/initialization.o
 .debug_abbrev  0x00001f39       0x57 build/default/production/_ext/1160401513/interrupts.o
 .debug_abbrev  0x00001f90       0x78 build/default/production/_ext/1160401513/exceptions.o
 .debug_abbrev  0x00002008      0x1c4 build/default/production/_ext/1160401513/usb_device_init_data.o
 .debug_abbrev  0x000021cc       0xab build/default/production/_ext/1160401513/tasks.o
 .debug_abbrev  0x00002277      0x26c build/default/production/_ext/1003616436/app.o
 .debug_abbrev  0x000024e3      0xe46 build/default/production/_ext/1003616436/main.o
 .debug_abbrev  0x00003329      0x380 build/default/production/_ext/1003616436/usb_com_port.o
 .debug_abbrev  0x000036a9      0x3b3 c:/program files (x86)/microchip/xc32/v2.15/bin/bin/../../lib/gcc/pic32mx/4.8.3/fpu64\libgcc.a(unwind-sjlj.o)
 .debug_abbrev  0x00003a5c       0x28 c:/program files (x86)/microchip/xc32/v2.15/bin/bin/../../lib/gcc/pic32mx/4.8.3/../../../../pic32mx/lib/fpu64\libpic32.a(default-on-reset.o)
 .debug_abbrev  0x00003a84       0x28 c:/program files (x86)/microchip/xc32/v2.15/bin/bin/../../lib/gcc/pic32mx/4.8.3/../../../../pic32mx/lib/fpu64\libpic32.a(default-on-bootstrap.o)
 .debug_abbrev  0x00003aac       0x28 c:/program files (x86)/microchip/xc32/v2.15/bin/bin/../../lib/gcc/pic32mx/4.8.3/../../../../pic32mx/lib/fpu64\libpic32.a(defaultinterrupt.o)
 .debug_abbrev  0x00003ad4       0xd4 c:/program files (x86)/microchip/xc32/v2.15/bin/bin/../../lib/gcc/pic32mx/4.8.3/../../../../pic32mx/lib/fpu64\libxcpp.a(xthrow.o)
 .debug_abbrev  0x00003ba8       0x28 c:/program files (x86)/microchip/xc32/v2.15/bin/bin/../../lib/gcc/pic32mx/4.8.3/../../../../pic32mx/lib/fpu64\libxcpp.a(abort.o)
 .debug_abbrev  0x00003bd0       0x28 c:/program files (x86)/microchip/xc32/v2.15/bin/bin/../../lib/gcc/pic32mx/4.8.3/../../../../pic32mx/lib/fpu64\libxcpp.a(abs.o)
 .debug_abbrev  0x00003bf8       0x28 c:/program files (x86)/microchip/xc32/v2.15/bin/bin/../../lib/gcc/pic32mx/4.8.3/../../../../pic32mx/lib/fpu64\libxcpp.a(exit.o)
 .debug_abbrev  0x00003c20       0x28 c:/program files (x86)/microchip/xc32/v2.15/bin/bin/../../lib/gcc/pic32mx/4.8.3/../../../../pic32mx/lib/fpu64\libxcpp.a(free.o)
 .debug_abbrev  0x00003c48       0x35 c:/program files (x86)/microchip/xc32/v2.15/bin/bin/../../lib/gcc/pic32mx/4.8.3/../../../../pic32mx/lib/fpu64\libxcpp.a(malloc.o)
 .debug_abbrev  0x00003c7d       0x28 c:/program files (x86)/microchip/xc32/v2.15/bin/bin/../../lib/gcc/pic32mx/4.8.3/../../../../pic32mx/lib/fpu64\libxcpp.a(memmove.o)
 .debug_abbrev  0x00003ca5       0x28 c:/program files (x86)/microchip/xc32/v2.15/bin/bin/../../lib/gcc/pic32mx/4.8.3/../../../../pic32mx/lib/fpu64\libxcpp.a(raise.o)
 .debug_abbrev  0x00003ccd       0x3c c:/program files (x86)/microchip/xc32/v2.15/bin/bin/../../lib/gcc/pic32mx/4.8.3/../../../../pic32mx/lib/fpu64\libxcpp.a(vsnprint.o)
 .debug_abbrev  0x00003d09       0x28 c:/program files (x86)/microchip/xc32/v2.15/bin/bin/../../lib/gcc/pic32mx/4.8.3/../../../../pic32mx/lib/fpu64\libxcpp.a(xexit.o)
 .debug_abbrev  0x00003d31       0x28 c:/program files (x86)/microchip/xc32/v2.15/bin/bin/../../lib/gcc/pic32mx/4.8.3/../../../../pic32mx/lib/fpu64\libxcpp.a(xgetmem.o)
 .debug_abbrev  0x00003d59       0x28 c:/program files (x86)/microchip/xc32/v2.15/bin/bin/../../lib/gcc/pic32mx/4.8.3/../../../../pic32mx/lib/fpu64\libxcpp.a(xprintf.o)
 .debug_abbrev  0x00003d81       0x28 c:/program files (x86)/microchip/xc32/v2.15/bin/bin/../../lib/gcc/pic32mx/4.8.3/../../../../pic32mx/lib/fpu64\libxcpp.a(xputfld.o)
 .debug_abbrev  0x00003da9       0x28 c:/program files (x86)/microchip/xc32/v2.15/bin/bin/../../lib/gcc/pic32mx/4.8.3/../../../../pic32mx/lib/fpu64\libxcpp.a(xputstr.o)
 .debug_abbrev  0x00003dd1       0x28 c:/program files (x86)/microchip/xc32/v2.15/bin/bin/../../lib/gcc/pic32mx/4.8.3/../../../../pic32mx/lib/fpu64\libxcpp.a(xputtxt.o)
 .debug_abbrev  0x00003df9       0x28 c:/program files (x86)/microchip/xc32/v2.15/bin/bin/../../lib/gcc/pic32mx/4.8.3/../../../../pic32mx/lib/fpu64\libxcpp.a(xstate.o)
 .debug_abbrev  0x00003e21       0x28 c:/program files (x86)/microchip/xc32/v2.15/bin/bin/../../lib/gcc/pic32mx/4.8.3/../../../../pic32mx/lib/fpu64\libxcpp.a(xvacopy.o)
 .debug_abbrev  0x00003e49       0x28 c:/program files (x86)/microchip/xc32/v2.15/bin/bin/../../lib/gcc/pic32mx/4.8.3/../../../../pic32mx/lib/fpu64\libxcpp.a(xwctomb.o)
 .debug_abbrev  0x00003e71       0x3e c:/program files (x86)/microchip/xc32/v2.15/bin/bin/../../lib/gcc/pic32mx/4.8.3/../../../../pic32mx/lib/fpu64\libxcpp.a(xfail_s.o)
 .debug_abbrev  0x00003eaf       0x28 c:/program files (x86)/microchip/xc32/v2.15/bin/bin/../../lib/gcc/pic32mx/4.8.3/../../../../pic32mx/lib/fpu64\libxcpp.a(errno.o)
 .debug_abbrev  0x00003ed7       0x28 c:/program files (x86)/microchip/xc32/v2.15/bin/bin/../../lib/gcc/pic32mx/4.8.3/../../../../pic32mx/lib/fpu64\libxcpp.a(fputc.o)
 .debug_abbrev  0x00003eff       0x28 c:/program files (x86)/microchip/xc32/v2.15/bin/bin/../../lib/gcc/pic32mx/4.8.3/../../../../pic32mx/lib/fpu64\libxcpp.a(fputs.o)
 .debug_abbrev  0x00003f27       0x28 c:/program files (x86)/microchip/xc32/v2.15/bin/bin/../../lib/gcc/pic32mx/4.8.3/../../../../pic32mx/lib/fpu64\libxcpp.a(memchr.o)
 .debug_abbrev  0x00003f4f       0x28 c:/program files (x86)/microchip/xc32/v2.15/bin/bin/../../lib/gcc/pic32mx/4.8.3/../../../../pic32mx/lib/fpu64\libxcpp.a(strchr.o)
 .debug_abbrev  0x00003f77       0x28 c:/program files (x86)/microchip/xc32/v2.15/bin/bin/../../lib/gcc/pic32mx/4.8.3/../../../../pic32mx/lib/fpu64\libxcpp.a(strrchr.o)
 .debug_abbrev  0x00003f9f       0x28 c:/program files (x86)/microchip/xc32/v2.15/bin/bin/../../lib/gcc/pic32mx/4.8.3/../../../../pic32mx/lib/fpu64\libxcpp.a(xctype.o)
 .debug_abbrev  0x00003fc7       0x28 c:/program files (x86)/microchip/xc32/v2.15/bin/bin/../../lib/gcc/pic32mx/4.8.3/../../../../pic32mx/lib/fpu64\libxcpp.a(xfwprep.o)
 .debug_abbrev  0x00003fef       0x28 c:/program files (x86)/microchip/xc32/v2.15/bin/bin/../../lib/gcc/pic32mx/4.8.3/../../../../pic32mx/lib/fpu64\libxcpp.a(xldtob.o)
 .debug_abbrev  0x00004017       0x28 c:/program files (x86)/microchip/xc32/v2.15/bin/bin/../../lib/gcc/pic32mx/4.8.3/../../../../pic32mx/lib/fpu64\libxcpp.a(xldunsca.o)
 .debug_abbrev  0x0000403f       0x28 c:/program files (x86)/microchip/xc32/v2.15/bin/bin/../../lib/gcc/pic32mx/4.8.3/../../../../pic32mx/lib/fpu64\libxcpp.a(xlitob.o)
 .debug_abbrev  0x00004067       0x82 c:/program files (x86)/microchip/xc32/v2.15/bin/bin/../../lib/gcc/pic32mx/4.8.3/../../../../pic32mx/lib/fpu64\libxcpp.a(xlprec.o)
 .debug_abbrev  0x000040e9       0x3e c:/program files (x86)/microchip/xc32/v2.15/bin/bin/../../lib/gcc/pic32mx/4.8.3/../../../../pic32mx/lib/fpu64\libxcpp.a(xmbtowc.o)
 .debug_abbrev  0x00004127       0x28 c:/program files (x86)/microchip/xc32/v2.15/bin/bin/../../lib/gcc/pic32mx/4.8.3/../../../../pic32mx/lib/fpu64\libxcpp.a(xwcstate.o)
 .debug_abbrev  0x0000414f       0x28 c:/program files (x86)/microchip/xc32/v2.15/bin/bin/../../lib/gcc/pic32mx/4.8.3/../../../../pic32mx/lib/fpu64\libxcpp.a(strnlen_s.o)
 .debug_abbrev  0x00004177       0x49 c:/program files (x86)/microchip/xc32/v2.15/bin/bin/../../lib/gcc/pic32mx/4.8.3/../../../../pic32mx/lib/fpu64\libxcpp.a(fclose.o)
 .debug_abbrev  0x000041c0       0x28 c:/program files (x86)/microchip/xc32/v2.15/bin/bin/../../lib/gcc/pic32mx/4.8.3/../../../../pic32mx/lib/fpu64\libxcpp.a(fflush.o)
 .debug_abbrev  0x000041e8       0x28 c:/program files (x86)/microchip/xc32/v2.15/bin/bin/../../lib/gcc/pic32mx/4.8.3/../../../../pic32mx/lib/fpu64\libxcpp.a(ldexpl.o)
 .debug_abbrev  0x00004210       0x28 c:/program files (x86)/microchip/xc32/v2.15/bin/bin/../../lib/gcc/pic32mx/4.8.3/../../../../pic32mx/lib/fpu64\libxcpp.a(ldiv.o)
 .debug_abbrev  0x00004238       0x28 c:/program files (x86)/microchip/xc32/v2.15/bin/bin/../../lib/gcc/pic32mx/4.8.3/../../../../pic32mx/lib/fpu64\libxcpp.a(remove.o)
 .debug_abbrev  0x00004260       0x28 c:/program files (x86)/microchip/xc32/v2.15/bin/bin/../../lib/gcc/pic32mx/4.8.3/../../../../pic32mx/lib/fpu64\libxcpp.a(sqrtl.o)
 .debug_abbrev  0x00004288       0x28 c:/program files (x86)/microchip/xc32/v2.15/bin/bin/../../lib/gcc/pic32mx/4.8.3/../../../../pic32mx/lib/fpu64\libxcpp.a(xatexit.o)
 .debug_abbrev  0x000042b0       0x28 c:/program files (x86)/microchip/xc32/v2.15/bin/bin/../../lib/gcc/pic32mx/4.8.3/../../../../pic32mx/lib/fpu64\libxcpp.a(xdunscal.o)
 .debug_abbrev  0x000042d8       0x28 c:/program files (x86)/microchip/xc32/v2.15/bin/bin/../../lib/gcc/pic32mx/4.8.3/../../../../pic32mx/lib/fpu64\libxcpp.a(xferaise.o)
 .debug_abbrev  0x00004300       0x28 c:/program files (x86)/microchip/xc32/v2.15/bin/bin/../../lib/gcc/pic32mx/4.8.3/../../../../pic32mx/lib/fpu64\libxcpp.a(xfofind.o)
 .debug_abbrev  0x00004328       0x28 c:/program files (x86)/microchip/xc32/v2.15/bin/bin/../../lib/gcc/pic32mx/4.8.3/../../../../pic32mx/lib/fpu64\libxcpp.a(xgenld.o)
 .debug_abbrev  0x00004350       0x28 c:/program files (x86)/microchip/xc32/v2.15/bin/bin/../../lib/gcc/pic32mx/4.8.3/../../../../pic32mx/lib/fpu64\libxcpp.a(xldint.o)
 .debug_abbrev  0x00004378       0x28 c:/program files (x86)/microchip/xc32/v2.15/bin/bin/../../lib/gcc/pic32mx/4.8.3/../../../../pic32mx/lib/fpu64\libxcpp.a(xldscale.o)
 .debug_abbrev  0x000043a0       0x28 c:/program files (x86)/microchip/xc32/v2.15/bin/bin/../../lib/gcc/pic32mx/4.8.3/../../../../pic32mx/lib/fpu64\libxcpp.a(xldtest.o)
 .debug_abbrev  0x000043c8       0x26 c:/program files (x86)/microchip/xc32/v2.15/bin/bin/../../lib/gcc/pic32mx/4.8.3/../../../../pic32mx/lib/fpu64\libxcpp.a(feraiseexcept.o)
 .debug_abbrev  0x000043ee       0x26 c:/program files (x86)/microchip/xc32/v2.15/bin/bin/../../lib/gcc/pic32mx/4.8.3/../../../../pic32mx/lib/fpu64\libxcpp.a(fesetenv.o)
 .debug_abbrev  0x00004414       0x28 c:/program files (x86)/microchip/xc32/v2.15/bin/bin/../../lib/gcc/pic32mx/4.8.3/../../../../pic32mx/lib/fpu64\libxcpp.a(div.o)
 .debug_abbrev  0x0000443c       0x28 c:/program files (x86)/microchip/xc32/v2.15/bin/bin/../../lib/gcc/pic32mx/4.8.3/../../../../pic32mx/lib/fpu64\libxcpp.a(localeco.o)
 .debug_abbrev  0x00004464       0x28 c:/program files (x86)/microchip/xc32/v2.15/bin/bin/../../lib/gcc/pic32mx/4.8.3/../../../../pic32mx/lib/fpu64\libxcpp.a(xdint.o)
 .debug_abbrev  0x0000448c       0x28 c:/program files (x86)/microchip/xc32/v2.15/bin/bin/../../lib/gcc/pic32mx/4.8.3/../../../../pic32mx/lib/fpu64\libxcpp.a(xdnorm.o)
 .debug_abbrev  0x000044b4       0x28 c:/program files (x86)/microchip/xc32/v2.15/bin/bin/../../lib/gcc/pic32mx/4.8.3/../../../../pic32mx/lib/fpu64\libxcpp.a(xdscale.o)
 .debug_abbrev  0x000044dc       0x28 c:/program files (x86)/microchip/xc32/v2.15/bin/bin/../../lib/gcc/pic32mx/4.8.3/../../../../pic32mx/lib/fpu64\libxcpp.a(xdtest.o)
 .debug_abbrev  0x00004504       0x26 c:/program files (x86)/microchip/xc32/v2.15/bin/bin/../../lib/gcc/pic32mx/4.8.3/../../../../pic32mx/lib/fpu64\libxcpp.a(fegetenv.o)
 .debug_abbrev  0x0000452a       0x54 c:/program files (x86)/microchip/xc32/v2.15/bin/bin/../../lib/gcc/pic32mx/4.8.3/../../../../pic32mx/lib/fpu64\libpic32.a(sbrk.o)
 .debug_abbrev  0x0000457e       0x28 c:/program files (x86)/microchip/xc32/v2.15/bin/bin/../../lib/gcc/pic32mx/4.8.3/../../../../pic32mx/lib/fpu64\libpic32.a(_exit.o)
 .debug_abbrev  0x000045a6       0x28 c:/program files (x86)/microchip/xc32/v2.15/bin/bin/../../lib/gcc/pic32mx/4.8.3/../../../../pic32mx/lib/fpu64\libpic32.a(isatty.o)
 .debug_abbrev  0x000045ce       0x28 c:/program files (x86)/microchip/xc32/v2.15/bin/bin/../../lib/gcc/pic32mx/4.8.3/../../../../pic32mx/lib/fpu64\libpic32.a(write.o)
 .debug_abbrev  0x000045f6       0x28 c:/program files (x86)/microchip/xc32/v2.15/bin/bin/../../lib/gcc/pic32mx/4.8.3/../../../../pic32mx/lib/fpu64\libpic32.a(close.o)
 .debug_abbrev  0x0000461e       0x28 c:/program files (x86)/microchip/xc32/v2.15/bin/bin/../../lib/gcc/pic32mx/4.8.3/../../../../pic32mx/lib/fpu64\libpic32.a(unlink.o)
 .debug_abbrev  0x00004646       0x28 c:/program files (x86)/microchip/xc32/v2.15/bin/bin/../../lib/gcc/pic32mx/4.8.3/../../../../pic32mx/lib/fpu64\libpic32.a(kill.o)
 .debug_abbrev  0x0000466e       0x28 c:/program files (x86)/microchip/xc32/v2.15/bin/bin/../../lib/gcc/pic32mx/4.8.3/../../../../pic32mx/lib/fpu64\libpic32.a(getpid.o)
 .debug_abbrev  0x00004696       0x28 c:/program files (x86)/microchip/xc32/v2.15/bin/bin/../../lib/gcc/pic32mx/4.8.3/../../../../pic32mx/lib/fpu64\libpic32.a(rmdir.o)
 .debug_abbrev  0x000046be      0x138 c:/program files (x86)/microchip/xc32/v2.15/bin/bin/../../lib/gcc/pic32mx/4.8.3/fpu64\libgcc.a(_udivdi3.o)
 .debug_abbrev  0x000047f6      0x147 c:/program files (x86)/microchip/xc32/v2.15/bin/bin/../../lib/gcc/pic32mx/4.8.3/fpu64\libgcc.a(_umoddi3.o)

.debug_line     0x00000000     0x8dbd
 *.elf(.debug_line)
 *(.debug_line)
 .debug_line    0x00000000       0x82 build/default/production/_ext/694295097/bsp.o
 .debug_line    0x00000082      0x7df build/default/production/_ext/490896790/drv_usbhs.o
 .debug_line    0x00000861     0x11ce build/default/production/_ext/490896790/drv_usbhs_device.o
 .debug_line    0x00001a2f      0x14c build/default/production/_ext/2068470151/plib_clk.o
 .debug_line    0x00001b7b      0x1f0 build/default/production/_ext/1465287765/plib_coretimer.o
 .debug_line    0x00001d6b      0x1ca build/default/production/_ext/301865530/plib_evic.o
 .debug_line    0x00001f35      0x1ee build/default/production/_ext/301811702/plib_gpio.o
 .debug_line    0x00002123      0x19d build/default/production/_ext/301585742/plib_ocmp8.o
 .debug_line    0x000022c0      0x19d build/default/production/_ext/301585742/plib_ocmp5.o
 .debug_line    0x0000245d      0x19d build/default/production/_ext/301585742/plib_ocmp3.o
 .debug_line    0x000025fa      0x1ad build/default/production/_ext/2068486526/plib_tmr2.o
 .debug_line    0x000027a7      0x365 build/default/production/_ext/301408759/plib_uart6.o
 .debug_line    0x00002b0c       0x9c build/default/production/_ext/1481935855/xc32_monitor.o
 .debug_line    0x00002ba8      0x1a1 build/default/production/_ext/404994212/sys_int.o
 .debug_line    0x00002d49      0xa9e build/default/production/_ext/763370911/usb_device.o
 .debug_line    0x000037e7      0x6eb build/default/production/_ext/763370911/usb_device_cdc.o
 .debug_line    0x00003ed2      0x26f build/default/production/_ext/763370911/usb_device_cdc_acm.o
 .debug_line    0x00004141      0x767 build/default/production/_ext/1160401513/initialization.o
 .debug_line    0x000048a8       0xe3 build/default/production/_ext/1160401513/interrupts.o
 .debug_line    0x0000498b      0x179 build/default/production/_ext/1160401513/exceptions.o
 .debug_line    0x00004b04      0x485 build/default/production/_ext/1160401513/usb_device_init_data.o
 .debug_line    0x00004f89      0x24d build/default/production/_ext/1160401513/tasks.o
 .debug_line    0x000051d6      0x3c7 build/default/production/_ext/1003616436/app.o
 .debug_line    0x0000559d      0x9fc build/default/production/_ext/1003616436/main.o
 .debug_line    0x00005f99      0x485 build/default/production/_ext/1003616436/usb_com_port.o
 .debug_line    0x0000641e      0x23e c:/program files (x86)/microchip/xc32/v2.15/bin/bin/../../lib/gcc/pic32mx/4.8.3/fpu64\libgcc.a(unwind-sjlj.o)
 .debug_line    0x0000665c       0x98 c:/program files (x86)/microchip/xc32/v2.15/bin/bin/../../lib/gcc/pic32mx/4.8.3/../../../../pic32mx/lib/fpu64\libpic32.a(default-on-reset.o)
 .debug_line    0x000066f4       0x9c c:/program files (x86)/microchip/xc32/v2.15/bin/bin/../../lib/gcc/pic32mx/4.8.3/../../../../pic32mx/lib/fpu64\libpic32.a(default-on-bootstrap.o)
 .debug_line    0x00006790       0xaa c:/program files (x86)/microchip/xc32/v2.15/bin/bin/../../lib/gcc/pic32mx/4.8.3/../../../../pic32mx/lib/fpu64\libpic32.a(defaultinterrupt.o)
 .debug_line    0x0000683a      0x138 c:/program files (x86)/microchip/xc32/v2.15/bin/bin/../../lib/gcc/pic32mx/4.8.3/../../../../pic32mx/lib/fpu64\libxcpp.a(xthrow.o)
 .debug_line    0x00006972       0x84 c:/program files (x86)/microchip/xc32/v2.15/bin/bin/../../lib/gcc/pic32mx/4.8.3/../../../../pic32mx/lib/fpu64\libxcpp.a(abort.o)
 .debug_line    0x000069f6       0x82 c:/program files (x86)/microchip/xc32/v2.15/bin/bin/../../lib/gcc/pic32mx/4.8.3/../../../../pic32mx/lib/fpu64\libxcpp.a(abs.o)
 .debug_line    0x00006a78       0x83 c:/program files (x86)/microchip/xc32/v2.15/bin/bin/../../lib/gcc/pic32mx/4.8.3/../../../../pic32mx/lib/fpu64\libxcpp.a(exit.o)
 .debug_line    0x00006afb       0x83 c:/program files (x86)/microchip/xc32/v2.15/bin/bin/../../lib/gcc/pic32mx/4.8.3/../../../../pic32mx/lib/fpu64\libxcpp.a(free.o)
 .debug_line    0x00006b7e       0x85 c:/program files (x86)/microchip/xc32/v2.15/bin/bin/../../lib/gcc/pic32mx/4.8.3/../../../../pic32mx/lib/fpu64\libxcpp.a(malloc.o)
 .debug_line    0x00006c03       0x86 c:/program files (x86)/microchip/xc32/v2.15/bin/bin/../../lib/gcc/pic32mx/4.8.3/../../../../pic32mx/lib/fpu64\libxcpp.a(memmove.o)
 .debug_line    0x00006c89       0x84 c:/program files (x86)/microchip/xc32/v2.15/bin/bin/../../lib/gcc/pic32mx/4.8.3/../../../../pic32mx/lib/fpu64\libxcpp.a(raise.o)
 .debug_line    0x00006d0d       0x87 c:/program files (x86)/microchip/xc32/v2.15/bin/bin/../../lib/gcc/pic32mx/4.8.3/../../../../pic32mx/lib/fpu64\libxcpp.a(vsnprint.o)
 .debug_line    0x00006d94       0x84 c:/program files (x86)/microchip/xc32/v2.15/bin/bin/../../lib/gcc/pic32mx/4.8.3/../../../../pic32mx/lib/fpu64\libxcpp.a(xexit.o)
 .debug_line    0x00006e18       0x86 c:/program files (x86)/microchip/xc32/v2.15/bin/bin/../../lib/gcc/pic32mx/4.8.3/../../../../pic32mx/lib/fpu64\libxcpp.a(xgetmem.o)
 .debug_line    0x00006e9e       0x86 c:/program files (x86)/microchip/xc32/v2.15/bin/bin/../../lib/gcc/pic32mx/4.8.3/../../../../pic32mx/lib/fpu64\libxcpp.a(xprintf.o)
 .debug_line    0x00006f24       0x86 c:/program files (x86)/microchip/xc32/v2.15/bin/bin/../../lib/gcc/pic32mx/4.8.3/../../../../pic32mx/lib/fpu64\libxcpp.a(xputfld.o)
 .debug_line    0x00006faa       0x86 c:/program files (x86)/microchip/xc32/v2.15/bin/bin/../../lib/gcc/pic32mx/4.8.3/../../../../pic32mx/lib/fpu64\libxcpp.a(xputstr.o)
 .debug_line    0x00007030       0x86 c:/program files (x86)/microchip/xc32/v2.15/bin/bin/../../lib/gcc/pic32mx/4.8.3/../../../../pic32mx/lib/fpu64\libxcpp.a(xputtxt.o)
 .debug_line    0x000070b6       0x85 c:/program files (x86)/microchip/xc32/v2.15/bin/bin/../../lib/gcc/pic32mx/4.8.3/../../../../pic32mx/lib/fpu64\libxcpp.a(xstate.o)
 .debug_line    0x0000713b       0x86 c:/program files (x86)/microchip/xc32/v2.15/bin/bin/../../lib/gcc/pic32mx/4.8.3/../../../../pic32mx/lib/fpu64\libxcpp.a(xvacopy.o)
 .debug_line    0x000071c1       0x86 c:/program files (x86)/microchip/xc32/v2.15/bin/bin/../../lib/gcc/pic32mx/4.8.3/../../../../pic32mx/lib/fpu64\libxcpp.a(xwctomb.o)
 .debug_line    0x00007247       0x8d c:/program files (x86)/microchip/xc32/v2.15/bin/bin/../../lib/gcc/pic32mx/4.8.3/../../../../pic32mx/lib/fpu64\libxcpp.a(xfail_s.o)
 .debug_line    0x000072d4       0x84 c:/program files (x86)/microchip/xc32/v2.15/bin/bin/../../lib/gcc/pic32mx/4.8.3/../../../../pic32mx/lib/fpu64\libxcpp.a(errno.o)
 .debug_line    0x00007358       0x84 c:/program files (x86)/microchip/xc32/v2.15/bin/bin/../../lib/gcc/pic32mx/4.8.3/../../../../pic32mx/lib/fpu64\libxcpp.a(fputc.o)
 .debug_line    0x000073dc       0x84 c:/program files (x86)/microchip/xc32/v2.15/bin/bin/../../lib/gcc/pic32mx/4.8.3/../../../../pic32mx/lib/fpu64\libxcpp.a(fputs.o)
 .debug_line    0x00007460       0x85 c:/program files (x86)/microchip/xc32/v2.15/bin/bin/../../lib/gcc/pic32mx/4.8.3/../../../../pic32mx/lib/fpu64\libxcpp.a(memchr.o)
 .debug_line    0x000074e5       0x85 c:/program files (x86)/microchip/xc32/v2.15/bin/bin/../../lib/gcc/pic32mx/4.8.3/../../../../pic32mx/lib/fpu64\libxcpp.a(strchr.o)
 .debug_line    0x0000756a       0x86 c:/program files (x86)/microchip/xc32/v2.15/bin/bin/../../lib/gcc/pic32mx/4.8.3/../../../../pic32mx/lib/fpu64\libxcpp.a(strrchr.o)
 .debug_line    0x000075f0       0x85 c:/program files (x86)/microchip/xc32/v2.15/bin/bin/../../lib/gcc/pic32mx/4.8.3/../../../../pic32mx/lib/fpu64\libxcpp.a(xctype.o)
 .debug_line    0x00007675        0x0 c:/program files (x86)/microchip/xc32/v2.15/bin/bin/../../lib/gcc/pic32mx/4.8.3/../../../../pic32mx/lib/fpu64\libxcpp.a(xfiles.o)
 .debug_line    0x00007675       0x86 c:/program files (x86)/microchip/xc32/v2.15/bin/bin/../../lib/gcc/pic32mx/4.8.3/../../../../pic32mx/lib/fpu64\libxcpp.a(xfwprep.o)
 .debug_line    0x000076fb       0x85 c:/program files (x86)/microchip/xc32/v2.15/bin/bin/../../lib/gcc/pic32mx/4.8.3/../../../../pic32mx/lib/fpu64\libxcpp.a(xldtob.o)
 .debug_line    0x00007780       0x87 c:/program files (x86)/microchip/xc32/v2.15/bin/bin/../../lib/gcc/pic32mx/4.8.3/../../../../pic32mx/lib/fpu64\libxcpp.a(xldunsca.o)
 .debug_line    0x00007807       0x85 c:/program files (x86)/microchip/xc32/v2.15/bin/bin/../../lib/gcc/pic32mx/4.8.3/../../../../pic32mx/lib/fpu64\libxcpp.a(xlitob.o)
 .debug_line    0x0000788c       0x86 c:/program files (x86)/microchip/xc32/v2.15/bin/bin/../../lib/gcc/pic32mx/4.8.3/../../../../pic32mx/lib/fpu64\libxcpp.a(xlprec.o)
 .debug_line    0x00007912        0x0 c:/program files (x86)/microchip/xc32/v2.15/bin/bin/../../lib/gcc/pic32mx/4.8.3/../../../../pic32mx/lib/fpu64\libxcpp.a(xlvalues.o)
 .debug_line    0x00007912       0x86 c:/program files (x86)/microchip/xc32/v2.15/bin/bin/../../lib/gcc/pic32mx/4.8.3/../../../../pic32mx/lib/fpu64\libxcpp.a(xmbtowc.o)
 .debug_line    0x00007998       0x87 c:/program files (x86)/microchip/xc32/v2.15/bin/bin/../../lib/gcc/pic32mx/4.8.3/../../../../pic32mx/lib/fpu64\libxcpp.a(xwcstate.o)
 .debug_line    0x00007a1f       0x8f c:/program files (x86)/microchip/xc32/v2.15/bin/bin/../../lib/gcc/pic32mx/4.8.3/../../../../pic32mx/lib/fpu64\libxcpp.a(strnlen_s.o)
 .debug_line    0x00007aae       0x85 c:/program files (x86)/microchip/xc32/v2.15/bin/bin/../../lib/gcc/pic32mx/4.8.3/../../../../pic32mx/lib/fpu64\libxcpp.a(fclose.o)
 .debug_line    0x00007b33       0x85 c:/program files (x86)/microchip/xc32/v2.15/bin/bin/../../lib/gcc/pic32mx/4.8.3/../../../../pic32mx/lib/fpu64\libxcpp.a(fflush.o)
 .debug_line    0x00007bb8       0x86 c:/program files (x86)/microchip/xc32/v2.15/bin/bin/../../lib/gcc/pic32mx/4.8.3/../../../../pic32mx/lib/fpu64\libxcpp.a(ldexpl.o)
 .debug_line    0x00007c3e       0x83 c:/program files (x86)/microchip/xc32/v2.15/bin/bin/../../lib/gcc/pic32mx/4.8.3/../../../../pic32mx/lib/fpu64\libxcpp.a(ldiv.o)
 .debug_line    0x00007cc1       0x85 c:/program files (x86)/microchip/xc32/v2.15/bin/bin/../../lib/gcc/pic32mx/4.8.3/../../../../pic32mx/lib/fpu64\libxcpp.a(remove.o)
 .debug_line    0x00007d46       0x85 c:/program files (x86)/microchip/xc32/v2.15/bin/bin/../../lib/gcc/pic32mx/4.8.3/../../../../pic32mx/lib/fpu64\libxcpp.a(sqrtl.o)
 .debug_line    0x00007dcb       0x86 c:/program files (x86)/microchip/xc32/v2.15/bin/bin/../../lib/gcc/pic32mx/4.8.3/../../../../pic32mx/lib/fpu64\libxcpp.a(xatexit.o)
 .debug_line    0x00007e51       0x87 c:/program files (x86)/microchip/xc32/v2.15/bin/bin/../../lib/gcc/pic32mx/4.8.3/../../../../pic32mx/lib/fpu64\libxcpp.a(xdunscal.o)
 .debug_line    0x00007ed8       0x87 c:/program files (x86)/microchip/xc32/v2.15/bin/bin/../../lib/gcc/pic32mx/4.8.3/../../../../pic32mx/lib/fpu64\libxcpp.a(xferaise.o)
 .debug_line    0x00007f5f       0x86 c:/program files (x86)/microchip/xc32/v2.15/bin/bin/../../lib/gcc/pic32mx/4.8.3/../../../../pic32mx/lib/fpu64\libxcpp.a(xfofind.o)
 .debug_line    0x00007fe5       0x85 c:/program files (x86)/microchip/xc32/v2.15/bin/bin/../../lib/gcc/pic32mx/4.8.3/../../../../pic32mx/lib/fpu64\libxcpp.a(xgenld.o)
 .debug_line    0x0000806a       0x85 c:/program files (x86)/microchip/xc32/v2.15/bin/bin/../../lib/gcc/pic32mx/4.8.3/../../../../pic32mx/lib/fpu64\libxcpp.a(xldint.o)
 .debug_line    0x000080ef       0x87 c:/program files (x86)/microchip/xc32/v2.15/bin/bin/../../lib/gcc/pic32mx/4.8.3/../../../../pic32mx/lib/fpu64\libxcpp.a(xldscale.o)
 .debug_line    0x00008176       0x86 c:/program files (x86)/microchip/xc32/v2.15/bin/bin/../../lib/gcc/pic32mx/4.8.3/../../../../pic32mx/lib/fpu64\libxcpp.a(xldtest.o)
 .debug_line    0x000081fc       0x8c c:/program files (x86)/microchip/xc32/v2.15/bin/bin/../../lib/gcc/pic32mx/4.8.3/../../../../pic32mx/lib/fpu64\libxcpp.a(feraiseexcept.o)
 .debug_line    0x00008288       0x87 c:/program files (x86)/microchip/xc32/v2.15/bin/bin/../../lib/gcc/pic32mx/4.8.3/../../../../pic32mx/lib/fpu64\libxcpp.a(fesetenv.o)
 .debug_line    0x0000830f       0x82 c:/program files (x86)/microchip/xc32/v2.15/bin/bin/../../lib/gcc/pic32mx/4.8.3/../../../../pic32mx/lib/fpu64\libxcpp.a(div.o)
 .debug_line    0x00008391       0x87 c:/program files (x86)/microchip/xc32/v2.15/bin/bin/../../lib/gcc/pic32mx/4.8.3/../../../../pic32mx/lib/fpu64\libxcpp.a(localeco.o)
 .debug_line    0x00008418       0x84 c:/program files (x86)/microchip/xc32/v2.15/bin/bin/../../lib/gcc/pic32mx/4.8.3/../../../../pic32mx/lib/fpu64\libxcpp.a(xdint.o)
 .debug_line    0x0000849c       0x85 c:/program files (x86)/microchip/xc32/v2.15/bin/bin/../../lib/gcc/pic32mx/4.8.3/../../../../pic32mx/lib/fpu64\libxcpp.a(xdnorm.o)
 .debug_line    0x00008521       0x86 c:/program files (x86)/microchip/xc32/v2.15/bin/bin/../../lib/gcc/pic32mx/4.8.3/../../../../pic32mx/lib/fpu64\libxcpp.a(xdscale.o)
 .debug_line    0x000085a7       0x85 c:/program files (x86)/microchip/xc32/v2.15/bin/bin/../../lib/gcc/pic32mx/4.8.3/../../../../pic32mx/lib/fpu64\libxcpp.a(xdtest.o)
 .debug_line    0x0000862c        0x0 c:/program files (x86)/microchip/xc32/v2.15/bin/bin/../../lib/gcc/pic32mx/4.8.3/../../../../pic32mx/lib/fpu64\libxcpp.a(xvalues.o)
 .debug_line    0x0000862c       0x87 c:/program files (x86)/microchip/xc32/v2.15/bin/bin/../../lib/gcc/pic32mx/4.8.3/../../../../pic32mx/lib/fpu64\libxcpp.a(fegetenv.o)
 .debug_line    0x000086b3       0x8c c:/program files (x86)/microchip/xc32/v2.15/bin/bin/../../lib/gcc/pic32mx/4.8.3/../../../../pic32mx/lib/fpu64\libpic32.a(sbrk.o)
 .debug_line    0x0000873f       0x8d c:/program files (x86)/microchip/xc32/v2.15/bin/bin/../../lib/gcc/pic32mx/4.8.3/../../../../pic32mx/lib/fpu64\libpic32.a(_exit.o)
 .debug_line    0x000087cc       0x8e c:/program files (x86)/microchip/xc32/v2.15/bin/bin/../../lib/gcc/pic32mx/4.8.3/../../../../pic32mx/lib/fpu64\libpic32.a(isatty.o)
 .debug_line    0x0000885a       0x8d c:/program files (x86)/microchip/xc32/v2.15/bin/bin/../../lib/gcc/pic32mx/4.8.3/../../../../pic32mx/lib/fpu64\libpic32.a(write.o)
 .debug_line    0x000088e7       0x8d c:/program files (x86)/microchip/xc32/v2.15/bin/bin/../../lib/gcc/pic32mx/4.8.3/../../../../pic32mx/lib/fpu64\libpic32.a(close.o)
 .debug_line    0x00008974       0x8e c:/program files (x86)/microchip/xc32/v2.15/bin/bin/../../lib/gcc/pic32mx/4.8.3/../../../../pic32mx/lib/fpu64\libpic32.a(unlink.o)
 .debug_line    0x00008a02       0x8c c:/program files (x86)/microchip/xc32/v2.15/bin/bin/../../lib/gcc/pic32mx/4.8.3/../../../../pic32mx/lib/fpu64\libpic32.a(kill.o)
 .debug_line    0x00008a8e       0x8e c:/program files (x86)/microchip/xc32/v2.15/bin/bin/../../lib/gcc/pic32mx/4.8.3/../../../../pic32mx/lib/fpu64\libpic32.a(getpid.o)
 .debug_line    0x00008b1c        0x0 c:/program files (x86)/microchip/xc32/v2.15/bin/bin/../../lib/gcc/pic32mx/4.8.3/../../../../pic32mx/lib/fpu64\libpic32.a(errno.o)
 .debug_line    0x00008b1c       0x8d c:/program files (x86)/microchip/xc32/v2.15/bin/bin/../../lib/gcc/pic32mx/4.8.3/../../../../pic32mx/lib/fpu64\libpic32.a(rmdir.o)
 .debug_line    0x00008ba9      0x101 c:/program files (x86)/microchip/xc32/v2.15/bin/bin/../../lib/gcc/pic32mx/4.8.3/fpu64\libgcc.a(_udivdi3.o)
 .debug_line    0x00008caa      0x113 c:/program files (x86)/microchip/xc32/v2.15/bin/bin/../../lib/gcc/pic32mx/4.8.3/fpu64\libgcc.a(_umoddi3.o)

.debug_frame    0x00000000     0x2a30
 *.elf(.debug_frame)
 *(.debug_frame)
 .debug_frame   0x00000000       0x20 build/default/production/_ext/694295097/bsp.o
 .debug_frame   0x00000020      0x114 build/default/production/_ext/490896790/drv_usbhs.o
 .debug_frame   0x00000134      0x348 build/default/production/_ext/490896790/drv_usbhs_device.o
 .debug_frame   0x0000047c       0x20 build/default/production/_ext/2068470151/plib_clk.o
 .debug_frame   0x0000049c       0xd8 build/default/production/_ext/1465287765/plib_coretimer.o
 .debug_frame   0x00000574       0x80 build/default/production/_ext/301865530/plib_evic.o
 .debug_frame   0x000005f4       0xa0 build/default/production/_ext/301811702/plib_gpio.o
 .debug_frame   0x00000694       0x70 build/default/production/_ext/301585742/plib_ocmp8.o
 .debug_frame   0x00000704       0x70 build/default/production/_ext/301585742/plib_ocmp5.o
 .debug_frame   0x00000774       0x70 build/default/production/_ext/301585742/plib_ocmp3.o
 .debug_frame   0x000007e4       0x80 build/default/production/_ext/2068486526/plib_tmr2.o
 .debug_frame   0x00000864      0x130 build/default/production/_ext/301408759/plib_uart6.o
 .debug_frame   0x00000994       0x30 build/default/production/_ext/1481935855/xc32_monitor.o
 .debug_frame   0x000009c4       0x94 build/default/production/_ext/404994212/sys_int.o
 .debug_frame   0x00000a58      0x4e8 build/default/production/_ext/763370911/usb_device.o
 .debug_frame   0x00000f40      0x17c build/default/production/_ext/763370911/usb_device_cdc.o
 .debug_frame   0x000010bc       0x28 build/default/production/_ext/763370911/usb_device_cdc_acm.o
 .debug_frame   0x000010e4       0x28 build/default/production/_ext/1160401513/initialization.o
 .debug_frame   0x0000110c      0x218 build/default/production/_ext/1160401513/interrupts.o
 .debug_frame   0x00001324       0x70 build/default/production/_ext/1160401513/exceptions.o
 .debug_frame   0x00001394       0x28 build/default/production/_ext/1160401513/tasks.o
 .debug_frame   0x000013bc       0xe8 build/default/production/_ext/1003616436/app.o
 .debug_frame   0x000014a4      0x244 build/default/production/_ext/1003616436/main.o
 .debug_frame   0x000016e8       0xd8 build/default/production/_ext/1003616436/usb_com_port.o
 .debug_frame   0x000017c0      0x1e4 c:/program files (x86)/microchip/xc32/v2.15/bin/bin/../../lib/gcc/pic32mx/4.8.3/fpu64\libgcc.a(unwind-sjlj.o)
 .debug_frame   0x000019a4       0x20 c:/program files (x86)/microchip/xc32/v2.15/bin/bin/../../lib/gcc/pic32mx/4.8.3/../../../../pic32mx/lib/fpu64\libpic32.a(default-on-reset.o)
 .debug_frame   0x000019c4       0x20 c:/program files (x86)/microchip/xc32/v2.15/bin/bin/../../lib/gcc/pic32mx/4.8.3/../../../../pic32mx/lib/fpu64\libpic32.a(default-on-bootstrap.o)
 .debug_frame   0x000019e4       0x20 c:/program files (x86)/microchip/xc32/v2.15/bin/bin/../../lib/gcc/pic32mx/4.8.3/../../../../pic32mx/lib/fpu64\libpic32.a(defaultinterrupt.o)
 .debug_frame   0x00001a04      0x288 c:/program files (x86)/microchip/xc32/v2.15/bin/bin/../../lib/gcc/pic32mx/4.8.3/../../../../pic32mx/lib/fpu64\libxcpp.a(xthrow.o)
 .debug_frame   0x00001c8c       0x28 c:/program files (x86)/microchip/xc32/v2.15/bin/bin/../../lib/gcc/pic32mx/4.8.3/../../../../pic32mx/lib/fpu64\libxcpp.a(abort.o)
 .debug_frame   0x00001cb4       0x20 c:/program files (x86)/microchip/xc32/v2.15/bin/bin/../../lib/gcc/pic32mx/4.8.3/../../../../pic32mx/lib/fpu64\libxcpp.a(abs.o)
 .debug_frame   0x00001cd4       0x68 c:/program files (x86)/microchip/xc32/v2.15/bin/bin/../../lib/gcc/pic32mx/4.8.3/../../../../pic32mx/lib/fpu64\libxcpp.a(exit.o)
 .debug_frame   0x00001d3c       0x20 c:/program files (x86)/microchip/xc32/v2.15/bin/bin/../../lib/gcc/pic32mx/4.8.3/../../../../pic32mx/lib/fpu64\libxcpp.a(free.o)
 .debug_frame   0x00001d5c       0x30 c:/program files (x86)/microchip/xc32/v2.15/bin/bin/../../lib/gcc/pic32mx/4.8.3/../../../../pic32mx/lib/fpu64\libxcpp.a(malloc.o)
 .debug_frame   0x00001d8c       0x20 c:/program files (x86)/microchip/xc32/v2.15/bin/bin/../../lib/gcc/pic32mx/4.8.3/../../../../pic32mx/lib/fpu64\libxcpp.a(memmove.o)
 .debug_frame   0x00001dac       0x28 c:/program files (x86)/microchip/xc32/v2.15/bin/bin/../../lib/gcc/pic32mx/4.8.3/../../../../pic32mx/lib/fpu64\libxcpp.a(raise.o)
 .debug_frame   0x00001dd4       0x44 c:/program files (x86)/microchip/xc32/v2.15/bin/bin/../../lib/gcc/pic32mx/4.8.3/../../../../pic32mx/lib/fpu64\libxcpp.a(vsnprint.o)
 .debug_frame   0x00001e18       0x28 c:/program files (x86)/microchip/xc32/v2.15/bin/bin/../../lib/gcc/pic32mx/4.8.3/../../../../pic32mx/lib/fpu64\libxcpp.a(xexit.o)
 .debug_frame   0x00001e40       0x2c c:/program files (x86)/microchip/xc32/v2.15/bin/bin/../../lib/gcc/pic32mx/4.8.3/../../../../pic32mx/lib/fpu64\libxcpp.a(xgetmem.o)
 .debug_frame   0x00001e6c       0x38 c:/program files (x86)/microchip/xc32/v2.15/bin/bin/../../lib/gcc/pic32mx/4.8.3/../../../../pic32mx/lib/fpu64\libxcpp.a(xprintf.o)
 .debug_frame   0x00001ea4       0x2c c:/program files (x86)/microchip/xc32/v2.15/bin/bin/../../lib/gcc/pic32mx/4.8.3/../../../../pic32mx/lib/fpu64\libxcpp.a(xputfld.o)
 .debug_frame   0x00001ed0       0x3c c:/program files (x86)/microchip/xc32/v2.15/bin/bin/../../lib/gcc/pic32mx/4.8.3/../../../../pic32mx/lib/fpu64\libxcpp.a(xputstr.o)
 .debug_frame   0x00001f0c       0x34 c:/program files (x86)/microchip/xc32/v2.15/bin/bin/../../lib/gcc/pic32mx/4.8.3/../../../../pic32mx/lib/fpu64\libxcpp.a(xputtxt.o)
 .debug_frame   0x00001f40       0x48 c:/program files (x86)/microchip/xc32/v2.15/bin/bin/../../lib/gcc/pic32mx/4.8.3/../../../../pic32mx/lib/fpu64\libxcpp.a(xstate.o)
 .debug_frame   0x00001f88       0x28 c:/program files (x86)/microchip/xc32/v2.15/bin/bin/../../lib/gcc/pic32mx/4.8.3/../../../../pic32mx/lib/fpu64\libxcpp.a(xvacopy.o)
 .debug_frame   0x00001fb0       0x50 c:/program files (x86)/microchip/xc32/v2.15/bin/bin/../../lib/gcc/pic32mx/4.8.3/../../../../pic32mx/lib/fpu64\libxcpp.a(xwctomb.o)
 .debug_frame   0x00002000       0x64 c:/program files (x86)/microchip/xc32/v2.15/bin/bin/../../lib/gcc/pic32mx/4.8.3/../../../../pic32mx/lib/fpu64\libxcpp.a(xfail_s.o)
 .debug_frame   0x00002064       0x2c c:/program files (x86)/microchip/xc32/v2.15/bin/bin/../../lib/gcc/pic32mx/4.8.3/../../../../pic32mx/lib/fpu64\libxcpp.a(errno.o)
 .debug_frame   0x00002090       0x2c c:/program files (x86)/microchip/xc32/v2.15/bin/bin/../../lib/gcc/pic32mx/4.8.3/../../../../pic32mx/lib/fpu64\libxcpp.a(fputc.o)
 .debug_frame   0x000020bc       0x30 c:/program files (x86)/microchip/xc32/v2.15/bin/bin/../../lib/gcc/pic32mx/4.8.3/../../../../pic32mx/lib/fpu64\libxcpp.a(fputs.o)
 .debug_frame   0x000020ec       0x20 c:/program files (x86)/microchip/xc32/v2.15/bin/bin/../../lib/gcc/pic32mx/4.8.3/../../../../pic32mx/lib/fpu64\libxcpp.a(memchr.o)
 .debug_frame   0x0000210c       0x20 c:/program files (x86)/microchip/xc32/v2.15/bin/bin/../../lib/gcc/pic32mx/4.8.3/../../../../pic32mx/lib/fpu64\libxcpp.a(strchr.o)
 .debug_frame   0x0000212c       0x20 c:/program files (x86)/microchip/xc32/v2.15/bin/bin/../../lib/gcc/pic32mx/4.8.3/../../../../pic32mx/lib/fpu64\libxcpp.a(strrchr.o)
 .debug_frame   0x0000214c       0x2c c:/program files (x86)/microchip/xc32/v2.15/bin/bin/../../lib/gcc/pic32mx/4.8.3/../../../../pic32mx/lib/fpu64\libxcpp.a(xctype.o)
 .debug_frame   0x00002178       0x2c c:/program files (x86)/microchip/xc32/v2.15/bin/bin/../../lib/gcc/pic32mx/4.8.3/../../../../pic32mx/lib/fpu64\libxcpp.a(xfwprep.o)
 .debug_frame   0x000021a4       0x40 c:/program files (x86)/microchip/xc32/v2.15/bin/bin/../../lib/gcc/pic32mx/4.8.3/../../../../pic32mx/lib/fpu64\libxcpp.a(xldtob.o)
 .debug_frame   0x000021e4       0x28 c:/program files (x86)/microchip/xc32/v2.15/bin/bin/../../lib/gcc/pic32mx/4.8.3/../../../../pic32mx/lib/fpu64\libxcpp.a(xldunsca.o)
 .debug_frame   0x0000220c       0x34 c:/program files (x86)/microchip/xc32/v2.15/bin/bin/../../lib/gcc/pic32mx/4.8.3/../../../../pic32mx/lib/fpu64\libxcpp.a(xlitob.o)
 .debug_frame   0x00002240      0x190 c:/program files (x86)/microchip/xc32/v2.15/bin/bin/../../lib/gcc/pic32mx/4.8.3/../../../../pic32mx/lib/fpu64\libxcpp.a(xlprec.o)
 .debug_frame   0x000023d0       0x38 c:/program files (x86)/microchip/xc32/v2.15/bin/bin/../../lib/gcc/pic32mx/4.8.3/../../../../pic32mx/lib/fpu64\libxcpp.a(xmbtowc.o)
 .debug_frame   0x00002408       0x2c c:/program files (x86)/microchip/xc32/v2.15/bin/bin/../../lib/gcc/pic32mx/4.8.3/../../../../pic32mx/lib/fpu64\libxcpp.a(xwcstate.o)
 .debug_frame   0x00002434       0x20 c:/program files (x86)/microchip/xc32/v2.15/bin/bin/../../lib/gcc/pic32mx/4.8.3/../../../../pic32mx/lib/fpu64\libxcpp.a(strnlen_s.o)
 .debug_frame   0x00002454       0x60 c:/program files (x86)/microchip/xc32/v2.15/bin/bin/../../lib/gcc/pic32mx/4.8.3/../../../../pic32mx/lib/fpu64\libxcpp.a(fclose.o)
 .debug_frame   0x000024b4       0x30 c:/program files (x86)/microchip/xc32/v2.15/bin/bin/../../lib/gcc/pic32mx/4.8.3/../../../../pic32mx/lib/fpu64\libxcpp.a(fflush.o)
 .debug_frame   0x000024e4       0x28 c:/program files (x86)/microchip/xc32/v2.15/bin/bin/../../lib/gcc/pic32mx/4.8.3/../../../../pic32mx/lib/fpu64\libxcpp.a(ldexpl.o)
 .debug_frame   0x0000250c       0x20 c:/program files (x86)/microchip/xc32/v2.15/bin/bin/../../lib/gcc/pic32mx/4.8.3/../../../../pic32mx/lib/fpu64\libxcpp.a(ldiv.o)
 .debug_frame   0x0000252c       0x28 c:/program files (x86)/microchip/xc32/v2.15/bin/bin/../../lib/gcc/pic32mx/4.8.3/../../../../pic32mx/lib/fpu64\libxcpp.a(remove.o)
 .debug_frame   0x00002554       0x28 c:/program files (x86)/microchip/xc32/v2.15/bin/bin/../../lib/gcc/pic32mx/4.8.3/../../../../pic32mx/lib/fpu64\libxcpp.a(sqrtl.o)
 .debug_frame   0x0000257c       0x28 c:/program files (x86)/microchip/xc32/v2.15/bin/bin/../../lib/gcc/pic32mx/4.8.3/../../../../pic32mx/lib/fpu64\libxcpp.a(xatexit.o)
 .debug_frame   0x000025a4       0x28 c:/program files (x86)/microchip/xc32/v2.15/bin/bin/../../lib/gcc/pic32mx/4.8.3/../../../../pic32mx/lib/fpu64\libxcpp.a(xdunscal.o)
 .debug_frame   0x000025cc       0x28 c:/program files (x86)/microchip/xc32/v2.15/bin/bin/../../lib/gcc/pic32mx/4.8.3/../../../../pic32mx/lib/fpu64\libxcpp.a(xferaise.o)
 .debug_frame   0x000025f4       0x44 c:/program files (x86)/microchip/xc32/v2.15/bin/bin/../../lib/gcc/pic32mx/4.8.3/../../../../pic32mx/lib/fpu64\libxcpp.a(xfofind.o)
 .debug_frame   0x00002638       0x34 c:/program files (x86)/microchip/xc32/v2.15/bin/bin/../../lib/gcc/pic32mx/4.8.3/../../../../pic32mx/lib/fpu64\libxcpp.a(xgenld.o)
 .debug_frame   0x0000266c       0x28 c:/program files (x86)/microchip/xc32/v2.15/bin/bin/../../lib/gcc/pic32mx/4.8.3/../../../../pic32mx/lib/fpu64\libxcpp.a(xldint.o)
 .debug_frame   0x00002694       0x28 c:/program files (x86)/microchip/xc32/v2.15/bin/bin/../../lib/gcc/pic32mx/4.8.3/../../../../pic32mx/lib/fpu64\libxcpp.a(xldscale.o)
 .debug_frame   0x000026bc       0x28 c:/program files (x86)/microchip/xc32/v2.15/bin/bin/../../lib/gcc/pic32mx/4.8.3/../../../../pic32mx/lib/fpu64\libxcpp.a(xldtest.o)
 .debug_frame   0x000026e4       0x30 c:/program files (x86)/microchip/xc32/v2.15/bin/bin/../../lib/gcc/pic32mx/4.8.3/../../../../pic32mx/lib/fpu64\libxcpp.a(feraiseexcept.o)
 .debug_frame   0x00002714       0x4c c:/program files (x86)/microchip/xc32/v2.15/bin/bin/../../lib/gcc/pic32mx/4.8.3/../../../../pic32mx/lib/fpu64\libxcpp.a(fesetenv.o)
 .debug_frame   0x00002760       0x20 c:/program files (x86)/microchip/xc32/v2.15/bin/bin/../../lib/gcc/pic32mx/4.8.3/../../../../pic32mx/lib/fpu64\libxcpp.a(div.o)
 .debug_frame   0x00002780       0x20 c:/program files (x86)/microchip/xc32/v2.15/bin/bin/../../lib/gcc/pic32mx/4.8.3/../../../../pic32mx/lib/fpu64\libxcpp.a(localeco.o)
 .debug_frame   0x000027a0       0x20 c:/program files (x86)/microchip/xc32/v2.15/bin/bin/../../lib/gcc/pic32mx/4.8.3/../../../../pic32mx/lib/fpu64\libxcpp.a(xdint.o)
 .debug_frame   0x000027c0       0x20 c:/program files (x86)/microchip/xc32/v2.15/bin/bin/../../lib/gcc/pic32mx/4.8.3/../../../../pic32mx/lib/fpu64\libxcpp.a(xdnorm.o)
 .debug_frame   0x000027e0       0x28 c:/program files (x86)/microchip/xc32/v2.15/bin/bin/../../lib/gcc/pic32mx/4.8.3/../../../../pic32mx/lib/fpu64\libxcpp.a(xdscale.o)
 .debug_frame   0x00002808       0x20 c:/program files (x86)/microchip/xc32/v2.15/bin/bin/../../lib/gcc/pic32mx/4.8.3/../../../../pic32mx/lib/fpu64\libxcpp.a(xdtest.o)
 .debug_frame   0x00002828       0x2c c:/program files (x86)/microchip/xc32/v2.15/bin/bin/../../lib/gcc/pic32mx/4.8.3/../../../../pic32mx/lib/fpu64\libxcpp.a(fegetenv.o)
 .debug_frame   0x00002854       0x84 c:/program files (x86)/microchip/xc32/v2.15/bin/bin/../../lib/gcc/pic32mx/4.8.3/../../../../pic32mx/lib/fpu64\libpic32.a(sbrk.o)
 .debug_frame   0x000028d8       0x20 c:/program files (x86)/microchip/xc32/v2.15/bin/bin/../../lib/gcc/pic32mx/4.8.3/../../../../pic32mx/lib/fpu64\libpic32.a(_exit.o)
 .debug_frame   0x000028f8       0x20 c:/program files (x86)/microchip/xc32/v2.15/bin/bin/../../lib/gcc/pic32mx/4.8.3/../../../../pic32mx/lib/fpu64\libpic32.a(isatty.o)
 .debug_frame   0x00002918       0x38 c:/program files (x86)/microchip/xc32/v2.15/bin/bin/../../lib/gcc/pic32mx/4.8.3/../../../../pic32mx/lib/fpu64\libpic32.a(write.o)
 .debug_frame   0x00002950       0x20 c:/program files (x86)/microchip/xc32/v2.15/bin/bin/../../lib/gcc/pic32mx/4.8.3/../../../../pic32mx/lib/fpu64\libpic32.a(close.o)
 .debug_frame   0x00002970       0x20 c:/program files (x86)/microchip/xc32/v2.15/bin/bin/../../lib/gcc/pic32mx/4.8.3/../../../../pic32mx/lib/fpu64\libpic32.a(unlink.o)
 .debug_frame   0x00002990       0x20 c:/program files (x86)/microchip/xc32/v2.15/bin/bin/../../lib/gcc/pic32mx/4.8.3/../../../../pic32mx/lib/fpu64\libpic32.a(kill.o)
 .debug_frame   0x000029b0       0x20 c:/program files (x86)/microchip/xc32/v2.15/bin/bin/../../lib/gcc/pic32mx/4.8.3/../../../../pic32mx/lib/fpu64\libpic32.a(getpid.o)
 .debug_frame   0x000029d0       0x20 c:/program files (x86)/microchip/xc32/v2.15/bin/bin/../../lib/gcc/pic32mx/4.8.3/../../../../pic32mx/lib/fpu64\libpic32.a(rmdir.o)
 .debug_frame   0x000029f0       0x20 c:/program files (x86)/microchip/xc32/v2.15/bin/bin/../../lib/gcc/pic32mx/4.8.3/fpu64\libgcc.a(_udivdi3.o)
 .debug_frame   0x00002a10       0x20 c:/program files (x86)/microchip/xc32/v2.15/bin/bin/../../lib/gcc/pic32mx/4.8.3/fpu64\libgcc.a(_umoddi3.o)

.debug_str      0x00000000     0x103a
 *.elf(.debug_str)
 *(.debug_str)
 .debug_str     0x00000000        0x0 build/default/production/_ext/694295097/bsp.o
 .debug_str     0x00000000      0x187 build/default/production/_ext/490896790/drv_usbhs.o
 .debug_str     0x00000187      0x344 build/default/production/_ext/490896790/drv_usbhs_device.o
 .debug_str     0x000004cb        0x0 build/default/production/_ext/2068470151/plib_clk.o
 .debug_str     0x000004cb       0x14 build/default/production/_ext/1465287765/plib_coretimer.o
 .debug_str     0x000004df        0x7 build/default/production/_ext/301865530/plib_evic.o
 .debug_str     0x000004e6        0xa build/default/production/_ext/301811702/plib_gpio.o
 .debug_str     0x000004f0        0x0 build/default/production/_ext/301585742/plib_ocmp8.o
 .debug_str     0x000004f0        0x0 build/default/production/_ext/301585742/plib_ocmp5.o
 .debug_str     0x000004f0        0x0 build/default/production/_ext/301585742/plib_ocmp3.o
 .debug_str     0x000004f0        0x0 build/default/production/_ext/2068486526/plib_tmr2.o
 .debug_str     0x000004f0       0x10 build/default/production/_ext/301408759/plib_uart6.o
 .debug_str     0x00000500        0x0 build/default/production/_ext/1481935855/xc32_monitor.o
 .debug_str     0x00000500        0x0 build/default/production/_ext/404994212/sys_int.o
 .debug_str     0x00000500      0x2cc build/default/production/_ext/763370911/usb_device.o
 .debug_str     0x000007cc      0x120 build/default/production/_ext/763370911/usb_device_cdc.o
 .debug_str     0x000008ec        0xe build/default/production/_ext/763370911/usb_device_cdc_acm.o
 .debug_str     0x000008fa       0xb9 build/default/production/_ext/1160401513/initialization.o
 .debug_str     0x000009b3        0x0 build/default/production/_ext/1160401513/interrupts.o
 .debug_str     0x000009b3        0x0 build/default/production/_ext/1160401513/exceptions.o
 .debug_str     0x000009b3       0xab build/default/production/_ext/1160401513/usb_device_init_data.o
 .debug_str     0x00000a5e        0x0 build/default/production/_ext/1160401513/tasks.o
 .debug_str     0x00000a5e       0x1a build/default/production/_ext/1003616436/app.o
 .debug_str     0x00000a78      0x520 build/default/production/_ext/1003616436/main.o
 .debug_str     0x00000f98       0x48 build/default/production/_ext/1003616436/usb_com_port.o
 .debug_str     0x00000fe0       0x40 c:/program files (x86)/microchip/xc32/v2.15/bin/bin/../../lib/gcc/pic32mx/4.8.3/fpu64\libgcc.a(unwind-sjlj.o)
 .debug_str     0x00001020        0x0 c:/program files (x86)/microchip/xc32/v2.15/bin/bin/../../lib/gcc/pic32mx/4.8.3/../../../../pic32mx/lib/fpu64\libpic32.a(default-on-reset.o)
 .debug_str     0x00001020        0x0 c:/program files (x86)/microchip/xc32/v2.15/bin/bin/../../lib/gcc/pic32mx/4.8.3/../../../../pic32mx/lib/fpu64\libpic32.a(default-on-bootstrap.o)
 .debug_str     0x00001020        0x0 c:/program files (x86)/microchip/xc32/v2.15/bin/bin/../../lib/gcc/pic32mx/4.8.3/../../../../pic32mx/lib/fpu64\libpic32.a(defaultinterrupt.o)
 .debug_str     0x00001020       0x1a c:/program files (x86)/microchip/xc32/v2.15/bin/bin/../../lib/gcc/pic32mx/4.8.3/../../../../pic32mx/lib/fpu64\libxcpp.a(xthrow.o)
 .debug_str     0x0000103a        0x0 c:/program files (x86)/microchip/xc32/v2.15/bin/bin/../../lib/gcc/pic32mx/4.8.3/../../../../pic32mx/lib/fpu64\libxcpp.a(abort.o)
 .debug_str     0x0000103a        0x0 c:/program files (x86)/microchip/xc32/v2.15/bin/bin/../../lib/gcc/pic32mx/4.8.3/../../../../pic32mx/lib/fpu64\libxcpp.a(abs.o)
 .debug_str     0x0000103a        0x0 c:/program files (x86)/microchip/xc32/v2.15/bin/bin/../../lib/gcc/pic32mx/4.8.3/../../../../pic32mx/lib/fpu64\libxcpp.a(exit.o)
 .debug_str     0x0000103a        0x0 c:/program files (x86)/microchip/xc32/v2.15/bin/bin/../../lib/gcc/pic32mx/4.8.3/../../../../pic32mx/lib/fpu64\libxcpp.a(free.o)
 .debug_str     0x0000103a        0x0 c:/program files (x86)/microchip/xc32/v2.15/bin/bin/../../lib/gcc/pic32mx/4.8.3/../../../../pic32mx/lib/fpu64\libxcpp.a(malloc.o)
 .debug_str     0x0000103a        0x0 c:/program files (x86)/microchip/xc32/v2.15/bin/bin/../../lib/gcc/pic32mx/4.8.3/../../../../pic32mx/lib/fpu64\libxcpp.a(memmove.o)
 .debug_str     0x0000103a        0x0 c:/program files (x86)/microchip/xc32/v2.15/bin/bin/../../lib/gcc/pic32mx/4.8.3/../../../../pic32mx/lib/fpu64\libxcpp.a(raise.o)
 .debug_str     0x0000103a        0x0 c:/program files (x86)/microchip/xc32/v2.15/bin/bin/../../lib/gcc/pic32mx/4.8.3/../../../../pic32mx/lib/fpu64\libxcpp.a(vsnprint.o)
 .debug_str     0x0000103a        0x0 c:/program files (x86)/microchip/xc32/v2.15/bin/bin/../../lib/gcc/pic32mx/4.8.3/../../../../pic32mx/lib/fpu64\libxcpp.a(xexit.o)
 .debug_str     0x0000103a        0x0 c:/program files (x86)/microchip/xc32/v2.15/bin/bin/../../lib/gcc/pic32mx/4.8.3/../../../../pic32mx/lib/fpu64\libxcpp.a(xgetmem.o)
 .debug_str     0x0000103a        0x0 c:/program files (x86)/microchip/xc32/v2.15/bin/bin/../../lib/gcc/pic32mx/4.8.3/../../../../pic32mx/lib/fpu64\libxcpp.a(xprintf.o)
 .debug_str     0x0000103a        0x0 c:/program files (x86)/microchip/xc32/v2.15/bin/bin/../../lib/gcc/pic32mx/4.8.3/../../../../pic32mx/lib/fpu64\libxcpp.a(xputfld.o)
 .debug_str     0x0000103a        0x0 c:/program files (x86)/microchip/xc32/v2.15/bin/bin/../../lib/gcc/pic32mx/4.8.3/../../../../pic32mx/lib/fpu64\libxcpp.a(xputstr.o)
 .debug_str     0x0000103a        0x0 c:/program files (x86)/microchip/xc32/v2.15/bin/bin/../../lib/gcc/pic32mx/4.8.3/../../../../pic32mx/lib/fpu64\libxcpp.a(xputtxt.o)
 .debug_str     0x0000103a        0x0 c:/program files (x86)/microchip/xc32/v2.15/bin/bin/../../lib/gcc/pic32mx/4.8.3/../../../../pic32mx/lib/fpu64\libxcpp.a(xstate.o)
 .debug_str     0x0000103a        0x0 c:/program files (x86)/microchip/xc32/v2.15/bin/bin/../../lib/gcc/pic32mx/4.8.3/../../../../pic32mx/lib/fpu64\libxcpp.a(xvacopy.o)
 .debug_str     0x0000103a        0x0 c:/program files (x86)/microchip/xc32/v2.15/bin/bin/../../lib/gcc/pic32mx/4.8.3/../../../../pic32mx/lib/fpu64\libxcpp.a(xwctomb.o)
 .debug_str     0x0000103a        0x0 c:/program files (x86)/microchip/xc32/v2.15/bin/bin/../../lib/gcc/pic32mx/4.8.3/../../../../pic32mx/lib/fpu64\libxcpp.a(xfail_s.o)
 .debug_str     0x0000103a        0x0 c:/program files (x86)/microchip/xc32/v2.15/bin/bin/../../lib/gcc/pic32mx/4.8.3/../../../../pic32mx/lib/fpu64\libxcpp.a(errno.o)
 .debug_str     0x0000103a        0x0 c:/program files (x86)/microchip/xc32/v2.15/bin/bin/../../lib/gcc/pic32mx/4.8.3/../../../../pic32mx/lib/fpu64\libxcpp.a(fputc.o)
 .debug_str     0x0000103a        0x0 c:/program files (x86)/microchip/xc32/v2.15/bin/bin/../../lib/gcc/pic32mx/4.8.3/../../../../pic32mx/lib/fpu64\libxcpp.a(fputs.o)
 .debug_str     0x0000103a        0x0 c:/program files (x86)/microchip/xc32/v2.15/bin/bin/../../lib/gcc/pic32mx/4.8.3/../../../../pic32mx/lib/fpu64\libxcpp.a(memchr.o)
 .debug_str     0x0000103a        0x0 c:/program files (x86)/microchip/xc32/v2.15/bin/bin/../../lib/gcc/pic32mx/4.8.3/../../../../pic32mx/lib/fpu64\libxcpp.a(strchr.o)
 .debug_str     0x0000103a        0x0 c:/program files (x86)/microchip/xc32/v2.15/bin/bin/../../lib/gcc/pic32mx/4.8.3/../../../../pic32mx/lib/fpu64\libxcpp.a(strrchr.o)
 .debug_str     0x0000103a        0x0 c:/program files (x86)/microchip/xc32/v2.15/bin/bin/../../lib/gcc/pic32mx/4.8.3/../../../../pic32mx/lib/fpu64\libxcpp.a(xctype.o)
 .debug_str     0x0000103a        0x0 c:/program files (x86)/microchip/xc32/v2.15/bin/bin/../../lib/gcc/pic32mx/4.8.3/../../../../pic32mx/lib/fpu64\libxcpp.a(xfiles.o)
 .debug_str     0x0000103a        0x0 c:/program files (x86)/microchip/xc32/v2.15/bin/bin/../../lib/gcc/pic32mx/4.8.3/../../../../pic32mx/lib/fpu64\libxcpp.a(xfwprep.o)
 .debug_str     0x0000103a        0x0 c:/program files (x86)/microchip/xc32/v2.15/bin/bin/../../lib/gcc/pic32mx/4.8.3/../../../../pic32mx/lib/fpu64\libxcpp.a(xldtob.o)
 .debug_str     0x0000103a        0x0 c:/program files (x86)/microchip/xc32/v2.15/bin/bin/../../lib/gcc/pic32mx/4.8.3/../../../../pic32mx/lib/fpu64\libxcpp.a(xldunsca.o)
 .debug_str     0x0000103a        0x0 c:/program files (x86)/microchip/xc32/v2.15/bin/bin/../../lib/gcc/pic32mx/4.8.3/../../../../pic32mx/lib/fpu64\libxcpp.a(xlitob.o)
 .debug_str     0x0000103a        0x0 c:/program files (x86)/microchip/xc32/v2.15/bin/bin/../../lib/gcc/pic32mx/4.8.3/../../../../pic32mx/lib/fpu64\libxcpp.a(xlprec.o)
 .debug_str     0x0000103a        0x0 c:/program files (x86)/microchip/xc32/v2.15/bin/bin/../../lib/gcc/pic32mx/4.8.3/../../../../pic32mx/lib/fpu64\libxcpp.a(xlvalues.o)
 .debug_str     0x0000103a        0x0 c:/program files (x86)/microchip/xc32/v2.15/bin/bin/../../lib/gcc/pic32mx/4.8.3/../../../../pic32mx/lib/fpu64\libxcpp.a(xmbtowc.o)
 .debug_str     0x0000103a        0x0 c:/program files (x86)/microchip/xc32/v2.15/bin/bin/../../lib/gcc/pic32mx/4.8.3/../../../../pic32mx/lib/fpu64\libxcpp.a(xwcstate.o)
 .debug_str     0x0000103a        0x0 c:/program files (x86)/microchip/xc32/v2.15/bin/bin/../../lib/gcc/pic32mx/4.8.3/../../../../pic32mx/lib/fpu64\libxcpp.a(strnlen_s.o)
 .debug_str     0x0000103a        0x0 c:/program files (x86)/microchip/xc32/v2.15/bin/bin/../../lib/gcc/pic32mx/4.8.3/../../../../pic32mx/lib/fpu64\libxcpp.a(fclose.o)
 .debug_str     0x0000103a        0x0 c:/program files (x86)/microchip/xc32/v2.15/bin/bin/../../lib/gcc/pic32mx/4.8.3/../../../../pic32mx/lib/fpu64\libxcpp.a(fflush.o)
 .debug_str     0x0000103a        0x0 c:/program files (x86)/microchip/xc32/v2.15/bin/bin/../../lib/gcc/pic32mx/4.8.3/../../../../pic32mx/lib/fpu64\libxcpp.a(ldexpl.o)
 .debug_str     0x0000103a        0x0 c:/program files (x86)/microchip/xc32/v2.15/bin/bin/../../lib/gcc/pic32mx/4.8.3/../../../../pic32mx/lib/fpu64\libxcpp.a(ldiv.o)
 .debug_str     0x0000103a        0x0 c:/program files (x86)/microchip/xc32/v2.15/bin/bin/../../lib/gcc/pic32mx/4.8.3/../../../../pic32mx/lib/fpu64\libxcpp.a(remove.o)
 .debug_str     0x0000103a        0x0 c:/program files (x86)/microchip/xc32/v2.15/bin/bin/../../lib/gcc/pic32mx/4.8.3/../../../../pic32mx/lib/fpu64\libxcpp.a(sqrtl.o)
 .debug_str     0x0000103a        0x0 c:/program files (x86)/microchip/xc32/v2.15/bin/bin/../../lib/gcc/pic32mx/4.8.3/../../../../pic32mx/lib/fpu64\libxcpp.a(xatexit.o)
 .debug_str     0x0000103a        0x0 c:/program files (x86)/microchip/xc32/v2.15/bin/bin/../../lib/gcc/pic32mx/4.8.3/../../../../pic32mx/lib/fpu64\libxcpp.a(xdunscal.o)
 .debug_str     0x0000103a        0x0 c:/program files (x86)/microchip/xc32/v2.15/bin/bin/../../lib/gcc/pic32mx/4.8.3/../../../../pic32mx/lib/fpu64\libxcpp.a(xferaise.o)
 .debug_str     0x0000103a        0x0 c:/program files (x86)/microchip/xc32/v2.15/bin/bin/../../lib/gcc/pic32mx/4.8.3/../../../../pic32mx/lib/fpu64\libxcpp.a(xfofind.o)
 .debug_str     0x0000103a        0x0 c:/program files (x86)/microchip/xc32/v2.15/bin/bin/../../lib/gcc/pic32mx/4.8.3/../../../../pic32mx/lib/fpu64\libxcpp.a(xgenld.o)
 .debug_str     0x0000103a        0x0 c:/program files (x86)/microchip/xc32/v2.15/bin/bin/../../lib/gcc/pic32mx/4.8.3/../../../../pic32mx/lib/fpu64\libxcpp.a(xldint.o)
 .debug_str     0x0000103a        0x0 c:/program files (x86)/microchip/xc32/v2.15/bin/bin/../../lib/gcc/pic32mx/4.8.3/../../../../pic32mx/lib/fpu64\libxcpp.a(xldscale.o)
 .debug_str     0x0000103a        0x0 c:/program files (x86)/microchip/xc32/v2.15/bin/bin/../../lib/gcc/pic32mx/4.8.3/../../../../pic32mx/lib/fpu64\libxcpp.a(xldtest.o)
 .debug_str     0x0000103a        0x0 c:/program files (x86)/microchip/xc32/v2.15/bin/bin/../../lib/gcc/pic32mx/4.8.3/../../../../pic32mx/lib/fpu64\libxcpp.a(feraiseexcept.o)
 .debug_str     0x0000103a        0x0 c:/program files (x86)/microchip/xc32/v2.15/bin/bin/../../lib/gcc/pic32mx/4.8.3/../../../../pic32mx/lib/fpu64\libxcpp.a(fesetenv.o)
 .debug_str     0x0000103a        0x0 c:/program files (x86)/microchip/xc32/v2.15/bin/bin/../../lib/gcc/pic32mx/4.8.3/../../../../pic32mx/lib/fpu64\libxcpp.a(div.o)
 .debug_str     0x0000103a        0x0 c:/program files (x86)/microchip/xc32/v2.15/bin/bin/../../lib/gcc/pic32mx/4.8.3/../../../../pic32mx/lib/fpu64\libxcpp.a(localeco.o)
 .debug_str     0x0000103a        0x0 c:/program files (x86)/microchip/xc32/v2.15/bin/bin/../../lib/gcc/pic32mx/4.8.3/../../../../pic32mx/lib/fpu64\libxcpp.a(xdint.o)
 .debug_str     0x0000103a        0x0 c:/program files (x86)/microchip/xc32/v2.15/bin/bin/../../lib/gcc/pic32mx/4.8.3/../../../../pic32mx/lib/fpu64\libxcpp.a(xdnorm.o)
 .debug_str     0x0000103a        0x0 c:/program files (x86)/microchip/xc32/v2.15/bin/bin/../../lib/gcc/pic32mx/4.8.3/../../../../pic32mx/lib/fpu64\libxcpp.a(xdscale.o)
 .debug_str     0x0000103a        0x0 c:/program files (x86)/microchip/xc32/v2.15/bin/bin/../../lib/gcc/pic32mx/4.8.3/../../../../pic32mx/lib/fpu64\libxcpp.a(xdtest.o)
 .debug_str     0x0000103a        0x0 c:/program files (x86)/microchip/xc32/v2.15/bin/bin/../../lib/gcc/pic32mx/4.8.3/../../../../pic32mx/lib/fpu64\libxcpp.a(xvalues.o)
 .debug_str     0x0000103a        0x0 c:/program files (x86)/microchip/xc32/v2.15/bin/bin/../../lib/gcc/pic32mx/4.8.3/../../../../pic32mx/lib/fpu64\libxcpp.a(fegetenv.o)
 .debug_str     0x0000103a        0x0 c:/program files (x86)/microchip/xc32/v2.15/bin/bin/../../lib/gcc/pic32mx/4.8.3/../../../../pic32mx/lib/fpu64\libpic32.a(sbrk.o)
 .debug_str     0x0000103a        0x0 c:/program files (x86)/microchip/xc32/v2.15/bin/bin/../../lib/gcc/pic32mx/4.8.3/../../../../pic32mx/lib/fpu64\libpic32.a(_exit.o)
 .debug_str     0x0000103a        0x0 c:/program files (x86)/microchip/xc32/v2.15/bin/bin/../../lib/gcc/pic32mx/4.8.3/../../../../pic32mx/lib/fpu64\libpic32.a(isatty.o)
 .debug_str     0x0000103a        0x0 c:/program files (x86)/microchip/xc32/v2.15/bin/bin/../../lib/gcc/pic32mx/4.8.3/../../../../pic32mx/lib/fpu64\libpic32.a(write.o)
 .debug_str     0x0000103a        0x0 c:/program files (x86)/microchip/xc32/v2.15/bin/bin/../../lib/gcc/pic32mx/4.8.3/../../../../pic32mx/lib/fpu64\libpic32.a(close.o)
 .debug_str     0x0000103a        0x0 c:/program files (x86)/microchip/xc32/v2.15/bin/bin/../../lib/gcc/pic32mx/4.8.3/../../../../pic32mx/lib/fpu64\libpic32.a(unlink.o)
 .debug_str     0x0000103a        0x0 c:/program files (x86)/microchip/xc32/v2.15/bin/bin/../../lib/gcc/pic32mx/4.8.3/../../../../pic32mx/lib/fpu64\libpic32.a(kill.o)
 .debug_str     0x0000103a        0x0 c:/program files (x86)/microchip/xc32/v2.15/bin/bin/../../lib/gcc/pic32mx/4.8.3/../../../../pic32mx/lib/fpu64\libpic32.a(getpid.o)
 .debug_str     0x0000103a        0x0 c:/program files (x86)/microchip/xc32/v2.15/bin/bin/../../lib/gcc/pic32mx/4.8.3/../../../../pic32mx/lib/fpu64\libpic32.a(errno.o)
 .debug_str     0x0000103a        0x0 c:/program files (x86)/microchip/xc32/v2.15/bin/bin/../../lib/gcc/pic32mx/4.8.3/../../../../pic32mx/lib/fpu64\libpic32.a(rmdir.o)
 .debug_str     0x0000103a        0x0 c:/program files (x86)/microchip/xc32/v2.15/bin/bin/../../lib/gcc/pic32mx/4.8.3/fpu64\libgcc.a(_udivdi3.o)
 .debug_str     0x0000103a        0x0 c:/program files (x86)/microchip/xc32/v2.15/bin/bin/../../lib/gcc/pic32mx/4.8.3/fpu64\libgcc.a(_umoddi3.o)

.debug_loc      0x00000000     0xb17b
 *.elf(.debug_loc)
 *(.debug_loc)
 .debug_loc     0x00000000      0x60d build/default/production/_ext/490896790/drv_usbhs.o
 .debug_loc     0x0000060d     0x3f73 build/default/production/_ext/490896790/drv_usbhs_device.o
 .debug_loc     0x00004580       0x42 build/default/production/_ext/1465287765/plib_coretimer.o
 .debug_loc     0x000045c2       0x84 build/default/production/_ext/301865530/plib_evic.o
 .debug_loc     0x00004646      0x129 build/default/production/_ext/301811702/plib_gpio.o
 .debug_loc     0x0000476f      0x392 build/default/production/_ext/301408759/plib_uart6.o
 .debug_loc     0x00004b01       0xc1 build/default/production/_ext/404994212/sys_int.o
 .debug_loc     0x00004bc2     0x20e7 build/default/production/_ext/763370911/usb_device.o
 .debug_loc     0x00006ca9      0xdca build/default/production/_ext/763370911/usb_device_cdc.o
 .debug_loc     0x00007a73      0x1ff build/default/production/_ext/763370911/usb_device_cdc_acm.o
 .debug_loc     0x00007c72       0x21 build/default/production/_ext/1160401513/initialization.o
 .debug_loc     0x00007c93      0x52e build/default/production/_ext/1003616436/app.o
 .debug_loc     0x000081c1      0xae2 build/default/production/_ext/1003616436/main.o
 .debug_loc     0x00008ca3      0x6c1 build/default/production/_ext/1003616436/usb_com_port.o
 .debug_loc     0x00009364      0x8d8 c:/program files (x86)/microchip/xc32/v2.15/bin/bin/../../lib/gcc/pic32mx/4.8.3/fpu64\libgcc.a(unwind-sjlj.o)
 .debug_loc     0x00009c3c       0x60 c:/program files (x86)/microchip/xc32/v2.15/bin/bin/../../lib/gcc/pic32mx/4.8.3/../../../../pic32mx/lib/fpu64\libpic32.a(sbrk.o)
 .debug_loc     0x00009c9c       0x38 c:/program files (x86)/microchip/xc32/v2.15/bin/bin/../../lib/gcc/pic32mx/4.8.3/../../../../pic32mx/lib/fpu64\libpic32.a(write.o)
 .debug_loc     0x00009cd4      0xa6a c:/program files (x86)/microchip/xc32/v2.15/bin/bin/../../lib/gcc/pic32mx/4.8.3/fpu64\libgcc.a(_udivdi3.o)
 .debug_loc     0x0000a73e      0xa3d c:/program files (x86)/microchip/xc32/v2.15/bin/bin/../../lib/gcc/pic32mx/4.8.3/fpu64\libgcc.a(_umoddi3.o)

.debug_macinfo
 *.elf(.debug_macinfo)
 *(.debug_macinfo)

.debug_weaknames
 *.elf(.debug_weaknames)
 *(.debug_weaknames)

.debug_funcnames
 *.elf(.debug_funcnames)
 *(.debug_funcnames)

.debug_typenames
 *.elf(.debug_typenames)
 *(.debug_typenames)

.debug_varnames
 *.elf(.debug_varnames)
 *(.debug_varnames)

.debug_pubtypes
 *.elf(.debug_pubtypes)
 *(.debug_pubtypes)

.debug_ranges   0x00000000     0x1248
 *.elf(.debug_ranges)
 *(.debug_ranges)
 .debug_ranges  0x00000000       0x10 build/default/production/_ext/694295097/bsp.o
 .debug_ranges  0x00000010       0x60 build/default/production/_ext/490896790/drv_usbhs.o
 .debug_ranges  0x00000070      0x1e8 build/default/production/_ext/490896790/drv_usbhs_device.o
 .debug_ranges  0x00000258       0x10 build/default/production/_ext/2068470151/plib_clk.o
 .debug_ranges  0x00000268       0x50 build/default/production/_ext/1465287765/plib_coretimer.o
 .debug_ranges  0x000002b8       0x40 build/default/production/_ext/301865530/plib_evic.o
 .debug_ranges  0x000002f8       0x50 build/default/production/_ext/301811702/plib_gpio.o
 .debug_ranges  0x00000348       0x38 build/default/production/_ext/301585742/plib_ocmp8.o
 .debug_ranges  0x00000380       0x38 build/default/production/_ext/301585742/plib_ocmp5.o
 .debug_ranges  0x000003b8       0x38 build/default/production/_ext/301585742/plib_ocmp3.o
 .debug_ranges  0x000003f0       0x40 build/default/production/_ext/2068486526/plib_tmr2.o
 .debug_ranges  0x00000430       0xa0 build/default/production/_ext/301408759/plib_uart6.o
 .debug_ranges  0x000004d0       0x18 build/default/production/_ext/1481935855/xc32_monitor.o
 .debug_ranges  0x000004e8       0x30 build/default/production/_ext/404994212/sys_int.o
 .debug_ranges  0x00000518      0x190 build/default/production/_ext/763370911/usb_device.o
 .debug_ranges  0x000006a8       0x78 build/default/production/_ext/763370911/usb_device_cdc.o
 .debug_ranges  0x00000720       0x10 build/default/production/_ext/763370911/usb_device_cdc_acm.o
 .debug_ranges  0x00000730       0x10 build/default/production/_ext/1160401513/initialization.o
 .debug_ranges  0x00000740       0x30 build/default/production/_ext/1160401513/interrupts.o
 .debug_ranges  0x00000770       0x28 build/default/production/_ext/1160401513/exceptions.o
 .debug_ranges  0x00000798       0x10 build/default/production/_ext/1160401513/tasks.o
 .debug_ranges  0x000007a8       0x58 build/default/production/_ext/1003616436/app.o
 .debug_ranges  0x00000800      0x220 build/default/production/_ext/1003616436/main.o
 .debug_ranges  0x00000a20       0x70 build/default/production/_ext/1003616436/usb_com_port.o
 .debug_ranges  0x00000a90       0x98 c:/program files (x86)/microchip/xc32/v2.15/bin/bin/../../lib/gcc/pic32mx/4.8.3/fpu64\libgcc.a(unwind-sjlj.o)
 .debug_ranges  0x00000b28       0x10 c:/program files (x86)/microchip/xc32/v2.15/bin/bin/../../lib/gcc/pic32mx/4.8.3/../../../../pic32mx/lib/fpu64\libpic32.a(default-on-reset.o)
 .debug_ranges  0x00000b38       0x10 c:/program files (x86)/microchip/xc32/v2.15/bin/bin/../../lib/gcc/pic32mx/4.8.3/../../../../pic32mx/lib/fpu64\libpic32.a(default-on-bootstrap.o)
 .debug_ranges  0x00000b48       0x10 c:/program files (x86)/microchip/xc32/v2.15/bin/bin/../../lib/gcc/pic32mx/4.8.3/../../../../pic32mx/lib/fpu64\libpic32.a(defaultinterrupt.o)
 .debug_ranges  0x00000b58       0xd0 c:/program files (x86)/microchip/xc32/v2.15/bin/bin/../../lib/gcc/pic32mx/4.8.3/../../../../pic32mx/lib/fpu64\libxcpp.a(xthrow.o)
 .debug_ranges  0x00000c28       0x10 c:/program files (x86)/microchip/xc32/v2.15/bin/bin/../../lib/gcc/pic32mx/4.8.3/../../../../pic32mx/lib/fpu64\libxcpp.a(abort.o)
 .debug_ranges  0x00000c38       0x10 c:/program files (x86)/microchip/xc32/v2.15/bin/bin/../../lib/gcc/pic32mx/4.8.3/../../../../pic32mx/lib/fpu64\libxcpp.a(abs.o)
 .debug_ranges  0x00000c48       0x20 c:/program files (x86)/microchip/xc32/v2.15/bin/bin/../../lib/gcc/pic32mx/4.8.3/../../../../pic32mx/lib/fpu64\libxcpp.a(exit.o)
 .debug_ranges  0x00000c68       0x10 c:/program files (x86)/microchip/xc32/v2.15/bin/bin/../../lib/gcc/pic32mx/4.8.3/../../../../pic32mx/lib/fpu64\libxcpp.a(free.o)
 .debug_ranges  0x00000c78       0x10 c:/program files (x86)/microchip/xc32/v2.15/bin/bin/../../lib/gcc/pic32mx/4.8.3/../../../../pic32mx/lib/fpu64\libxcpp.a(malloc.o)
 .debug_ranges  0x00000c88       0x10 c:/program files (x86)/microchip/xc32/v2.15/bin/bin/../../lib/gcc/pic32mx/4.8.3/../../../../pic32mx/lib/fpu64\libxcpp.a(memmove.o)
 .debug_ranges  0x00000c98       0x10 c:/program files (x86)/microchip/xc32/v2.15/bin/bin/../../lib/gcc/pic32mx/4.8.3/../../../../pic32mx/lib/fpu64\libxcpp.a(raise.o)
 .debug_ranges  0x00000ca8       0x18 c:/program files (x86)/microchip/xc32/v2.15/bin/bin/../../lib/gcc/pic32mx/4.8.3/../../../../pic32mx/lib/fpu64\libxcpp.a(vsnprint.o)
 .debug_ranges  0x00000cc0       0x10 c:/program files (x86)/microchip/xc32/v2.15/bin/bin/../../lib/gcc/pic32mx/4.8.3/../../../../pic32mx/lib/fpu64\libxcpp.a(xexit.o)
 .debug_ranges  0x00000cd0       0x10 c:/program files (x86)/microchip/xc32/v2.15/bin/bin/../../lib/gcc/pic32mx/4.8.3/../../../../pic32mx/lib/fpu64\libxcpp.a(xgetmem.o)
 .debug_ranges  0x00000ce0       0x10 c:/program files (x86)/microchip/xc32/v2.15/bin/bin/../../lib/gcc/pic32mx/4.8.3/../../../../pic32mx/lib/fpu64\libxcpp.a(xprintf.o)
 .debug_ranges  0x00000cf0       0x10 c:/program files (x86)/microchip/xc32/v2.15/bin/bin/../../lib/gcc/pic32mx/4.8.3/../../../../pic32mx/lib/fpu64\libxcpp.a(xputfld.o)
 .debug_ranges  0x00000d00       0x10 c:/program files (x86)/microchip/xc32/v2.15/bin/bin/../../lib/gcc/pic32mx/4.8.3/../../../../pic32mx/lib/fpu64\libxcpp.a(xputstr.o)
 .debug_ranges  0x00000d10       0x10 c:/program files (x86)/microchip/xc32/v2.15/bin/bin/../../lib/gcc/pic32mx/4.8.3/../../../../pic32mx/lib/fpu64\libxcpp.a(xputtxt.o)
 .debug_ranges  0x00000d20       0x18 c:/program files (x86)/microchip/xc32/v2.15/bin/bin/../../lib/gcc/pic32mx/4.8.3/../../../../pic32mx/lib/fpu64\libxcpp.a(xstate.o)
 .debug_ranges  0x00000d38       0x10 c:/program files (x86)/microchip/xc32/v2.15/bin/bin/../../lib/gcc/pic32mx/4.8.3/../../../../pic32mx/lib/fpu64\libxcpp.a(xvacopy.o)
 .debug_ranges  0x00000d48       0x18 c:/program files (x86)/microchip/xc32/v2.15/bin/bin/../../lib/gcc/pic32mx/4.8.3/../../../../pic32mx/lib/fpu64\libxcpp.a(xwctomb.o)
 .debug_ranges  0x00000d60       0x28 c:/program files (x86)/microchip/xc32/v2.15/bin/bin/../../lib/gcc/pic32mx/4.8.3/../../../../pic32mx/lib/fpu64\libxcpp.a(xfail_s.o)
 .debug_ranges  0x00000d88       0x10 c:/program files (x86)/microchip/xc32/v2.15/bin/bin/../../lib/gcc/pic32mx/4.8.3/../../../../pic32mx/lib/fpu64\libxcpp.a(errno.o)
 .debug_ranges  0x00000d98       0x10 c:/program files (x86)/microchip/xc32/v2.15/bin/bin/../../lib/gcc/pic32mx/4.8.3/../../../../pic32mx/lib/fpu64\libxcpp.a(fputc.o)
 .debug_ranges  0x00000da8       0x10 c:/program files (x86)/microchip/xc32/v2.15/bin/bin/../../lib/gcc/pic32mx/4.8.3/../../../../pic32mx/lib/fpu64\libxcpp.a(fputs.o)
 .debug_ranges  0x00000db8       0x10 c:/program files (x86)/microchip/xc32/v2.15/bin/bin/../../lib/gcc/pic32mx/4.8.3/../../../../pic32mx/lib/fpu64\libxcpp.a(memchr.o)
 .debug_ranges  0x00000dc8       0x10 c:/program files (x86)/microchip/xc32/v2.15/bin/bin/../../lib/gcc/pic32mx/4.8.3/../../../../pic32mx/lib/fpu64\libxcpp.a(strchr.o)
 .debug_ranges  0x00000dd8       0x10 c:/program files (x86)/microchip/xc32/v2.15/bin/bin/../../lib/gcc/pic32mx/4.8.3/../../../../pic32mx/lib/fpu64\libxcpp.a(strrchr.o)
 .debug_ranges  0x00000de8       0x10 c:/program files (x86)/microchip/xc32/v2.15/bin/bin/../../lib/gcc/pic32mx/4.8.3/../../../../pic32mx/lib/fpu64\libxcpp.a(xctype.o)
 .debug_ranges  0x00000df8       0x10 c:/program files (x86)/microchip/xc32/v2.15/bin/bin/../../lib/gcc/pic32mx/4.8.3/../../../../pic32mx/lib/fpu64\libxcpp.a(xfwprep.o)
 .debug_ranges  0x00000e08       0x10 c:/program files (x86)/microchip/xc32/v2.15/bin/bin/../../lib/gcc/pic32mx/4.8.3/../../../../pic32mx/lib/fpu64\libxcpp.a(xldtob.o)
 .debug_ranges  0x00000e18       0x10 c:/program files (x86)/microchip/xc32/v2.15/bin/bin/../../lib/gcc/pic32mx/4.8.3/../../../../pic32mx/lib/fpu64\libxcpp.a(xldunsca.o)
 .debug_ranges  0x00000e28       0x10 c:/program files (x86)/microchip/xc32/v2.15/bin/bin/../../lib/gcc/pic32mx/4.8.3/../../../../pic32mx/lib/fpu64\libxcpp.a(xlitob.o)
 .debug_ranges  0x00000e38       0x60 c:/program files (x86)/microchip/xc32/v2.15/bin/bin/../../lib/gcc/pic32mx/4.8.3/../../../../pic32mx/lib/fpu64\libxcpp.a(xlprec.o)
 .debug_ranges  0x00000e98       0x18 c:/program files (x86)/microchip/xc32/v2.15/bin/bin/../../lib/gcc/pic32mx/4.8.3/../../../../pic32mx/lib/fpu64\libxcpp.a(xmbtowc.o)
 .debug_ranges  0x00000eb0       0x10 c:/program files (x86)/microchip/xc32/v2.15/bin/bin/../../lib/gcc/pic32mx/4.8.3/../../../../pic32mx/lib/fpu64\libxcpp.a(xwcstate.o)
 .debug_ranges  0x00000ec0       0x10 c:/program files (x86)/microchip/xc32/v2.15/bin/bin/../../lib/gcc/pic32mx/4.8.3/../../../../pic32mx/lib/fpu64\libxcpp.a(strnlen_s.o)
 .debug_ranges  0x00000ed0       0x20 c:/program files (x86)/microchip/xc32/v2.15/bin/bin/../../lib/gcc/pic32mx/4.8.3/../../../../pic32mx/lib/fpu64\libxcpp.a(fclose.o)
 .debug_ranges  0x00000ef0       0x10 c:/program files (x86)/microchip/xc32/v2.15/bin/bin/../../lib/gcc/pic32mx/4.8.3/../../../../pic32mx/lib/fpu64\libxcpp.a(fflush.o)
 .debug_ranges  0x00000f00       0x10 c:/program files (x86)/microchip/xc32/v2.15/bin/bin/../../lib/gcc/pic32mx/4.8.3/../../../../pic32mx/lib/fpu64\libxcpp.a(ldexpl.o)
 .debug_ranges  0x00000f10       0x10 c:/program files (x86)/microchip/xc32/v2.15/bin/bin/../../lib/gcc/pic32mx/4.8.3/../../../../pic32mx/lib/fpu64\libxcpp.a(ldiv.o)
 .debug_ranges  0x00000f20       0x10 c:/program files (x86)/microchip/xc32/v2.15/bin/bin/../../lib/gcc/pic32mx/4.8.3/../../../../pic32mx/lib/fpu64\libxcpp.a(remove.o)
 .debug_ranges  0x00000f30       0x10 c:/program files (x86)/microchip/xc32/v2.15/bin/bin/../../lib/gcc/pic32mx/4.8.3/../../../../pic32mx/lib/fpu64\libxcpp.a(sqrtl.o)
 .debug_ranges  0x00000f40       0x10 c:/program files (x86)/microchip/xc32/v2.15/bin/bin/../../lib/gcc/pic32mx/4.8.3/../../../../pic32mx/lib/fpu64\libxcpp.a(xatexit.o)
 .debug_ranges  0x00000f50       0x10 c:/program files (x86)/microchip/xc32/v2.15/bin/bin/../../lib/gcc/pic32mx/4.8.3/../../../../pic32mx/lib/fpu64\libxcpp.a(xdunscal.o)
 .debug_ranges  0x00000f60       0x10 c:/program files (x86)/microchip/xc32/v2.15/bin/bin/../../lib/gcc/pic32mx/4.8.3/../../../../pic32mx/lib/fpu64\libxcpp.a(xferaise.o)
 .debug_ranges  0x00000f70       0x18 c:/program files (x86)/microchip/xc32/v2.15/bin/bin/../../lib/gcc/pic32mx/4.8.3/../../../../pic32mx/lib/fpu64\libxcpp.a(xfofind.o)
 .debug_ranges  0x00000f88       0x10 c:/program files (x86)/microchip/xc32/v2.15/bin/bin/../../lib/gcc/pic32mx/4.8.3/../../../../pic32mx/lib/fpu64\libxcpp.a(xgenld.o)
 .debug_ranges  0x00000f98       0x10 c:/program files (x86)/microchip/xc32/v2.15/bin/bin/../../lib/gcc/pic32mx/4.8.3/../../../../pic32mx/lib/fpu64\libxcpp.a(xldint.o)
 .debug_ranges  0x00000fa8       0x10 c:/program files (x86)/microchip/xc32/v2.15/bin/bin/../../lib/gcc/pic32mx/4.8.3/../../../../pic32mx/lib/fpu64\libxcpp.a(xldscale.o)
 .debug_ranges  0x00000fb8       0x10 c:/program files (x86)/microchip/xc32/v2.15/bin/bin/../../lib/gcc/pic32mx/4.8.3/../../../../pic32mx/lib/fpu64\libxcpp.a(xldtest.o)
 .debug_ranges  0x00000fc8       0x10 c:/program files (x86)/microchip/xc32/v2.15/bin/bin/../../lib/gcc/pic32mx/4.8.3/../../../../pic32mx/lib/fpu64\libxcpp.a(div.o)
 .debug_ranges  0x00000fd8       0x10 c:/program files (x86)/microchip/xc32/v2.15/bin/bin/../../lib/gcc/pic32mx/4.8.3/../../../../pic32mx/lib/fpu64\libxcpp.a(localeco.o)
 .debug_ranges  0x00000fe8       0x10 c:/program files (x86)/microchip/xc32/v2.15/bin/bin/../../lib/gcc/pic32mx/4.8.3/../../../../pic32mx/lib/fpu64\libxcpp.a(xdint.o)
 .debug_ranges  0x00000ff8       0x10 c:/program files (x86)/microchip/xc32/v2.15/bin/bin/../../lib/gcc/pic32mx/4.8.3/../../../../pic32mx/lib/fpu64\libxcpp.a(xdnorm.o)
 .debug_ranges  0x00001008       0x10 c:/program files (x86)/microchip/xc32/v2.15/bin/bin/../../lib/gcc/pic32mx/4.8.3/../../../../pic32mx/lib/fpu64\libxcpp.a(xdscale.o)
 .debug_ranges  0x00001018       0x10 c:/program files (x86)/microchip/xc32/v2.15/bin/bin/../../lib/gcc/pic32mx/4.8.3/../../../../pic32mx/lib/fpu64\libxcpp.a(xdtest.o)
 .debug_ranges  0x00001028       0x30 c:/program files (x86)/microchip/xc32/v2.15/bin/bin/../../lib/gcc/pic32mx/4.8.3/../../../../pic32mx/lib/fpu64\libpic32.a(sbrk.o)
 .debug_ranges  0x00001058       0x10 c:/program files (x86)/microchip/xc32/v2.15/bin/bin/../../lib/gcc/pic32mx/4.8.3/../../../../pic32mx/lib/fpu64\libpic32.a(_exit.o)
 .debug_ranges  0x00001068       0x10 c:/program files (x86)/microchip/xc32/v2.15/bin/bin/../../lib/gcc/pic32mx/4.8.3/../../../../pic32mx/lib/fpu64\libpic32.a(isatty.o)
 .debug_ranges  0x00001078       0x10 c:/program files (x86)/microchip/xc32/v2.15/bin/bin/../../lib/gcc/pic32mx/4.8.3/../../../../pic32mx/lib/fpu64\libpic32.a(write.o)
 .debug_ranges  0x00001088       0x10 c:/program files (x86)/microchip/xc32/v2.15/bin/bin/../../lib/gcc/pic32mx/4.8.3/../../../../pic32mx/lib/fpu64\libpic32.a(close.o)
 .debug_ranges  0x00001098       0x10 c:/program files (x86)/microchip/xc32/v2.15/bin/bin/../../lib/gcc/pic32mx/4.8.3/../../../../pic32mx/lib/fpu64\libpic32.a(unlink.o)
 .debug_ranges  0x000010a8       0x10 c:/program files (x86)/microchip/xc32/v2.15/bin/bin/../../lib/gcc/pic32mx/4.8.3/../../../../pic32mx/lib/fpu64\libpic32.a(kill.o)
 .debug_ranges  0x000010b8       0x10 c:/program files (x86)/microchip/xc32/v2.15/bin/bin/../../lib/gcc/pic32mx/4.8.3/../../../../pic32mx/lib/fpu64\libpic32.a(getpid.o)
 .debug_ranges  0x000010c8       0x10 c:/program files (x86)/microchip/xc32/v2.15/bin/bin/../../lib/gcc/pic32mx/4.8.3/../../../../pic32mx/lib/fpu64\libpic32.a(rmdir.o)
 .debug_ranges  0x000010d8       0x98 c:/program files (x86)/microchip/xc32/v2.15/bin/bin/../../lib/gcc/pic32mx/4.8.3/fpu64\libgcc.a(_udivdi3.o)
 .debug_ranges  0x00001170       0xd8 c:/program files (x86)/microchip/xc32/v2.15/bin/bin/../../lib/gcc/pic32mx/4.8.3/fpu64\libgcc.a(_umoddi3.o)

.gnu.attributes
                0x00000000       0x10
 *(.gnu.attributes)
 .gnu.attributes
                0x00000000       0x10 c:/program files (x86)/microchip/xc32/v2.15/bin/bin/../../lib/gcc/pic32mx/4.8.3/fpu64/crtbegin.o
 .gnu.attributes
                0x00000010       0x10 build/default/production/_ext/694295097/bsp.o
 .gnu.attributes
                0x00000020       0x10 build/default/production/_ext/490896790/drv_usbhs.o
 .gnu.attributes
                0x00000030       0x10 build/default/production/_ext/490896790/drv_usbhs_device.o
 .gnu.attributes
                0x00000040       0x10 build/default/production/_ext/2068470151/plib_clk.o
 .gnu.attributes
                0x00000050       0x10 build/default/production/_ext/1465287765/plib_coretimer.o
 .gnu.attributes
                0x00000060       0x10 build/default/production/_ext/301865530/plib_evic.o
 .gnu.attributes
                0x00000070       0x10 build/default/production/_ext/301811702/plib_gpio.o
 .gnu.attributes
                0x00000080       0x10 build/default/production/_ext/301585742/plib_ocmp8.o
 .gnu.attributes
                0x00000090       0x10 build/default/production/_ext/301585742/plib_ocmp5.o
 .gnu.attributes
                0x000000a0       0x10 build/default/production/_ext/301585742/plib_ocmp3.o
 .gnu.attributes
                0x000000b0       0x10 build/default/production/_ext/2068486526/plib_tmr2.o
 .gnu.attributes
                0x000000c0       0x10 build/default/production/_ext/301408759/plib_uart6.o
 .gnu.attributes
                0x000000d0       0x10 build/default/production/_ext/1481935855/xc32_monitor.o
 .gnu.attributes
                0x000000e0       0x10 build/default/production/_ext/404994212/sys_int.o
 .gnu.attributes
                0x000000f0       0x10 build/default/production/_ext/763370911/usb_device.o
 .gnu.attributes
                0x00000100       0x10 build/default/production/_ext/763370911/usb_device_cdc.o
 .gnu.attributes
                0x00000110       0x10 build/default/production/_ext/763370911/usb_device_cdc_acm.o
 .gnu.attributes
                0x00000120       0x10 build/default/production/_ext/1160401513/initialization.o
 .gnu.attributes
                0x00000130       0x10 build/default/production/_ext/1160401513/interrupts.o
 .gnu.attributes
                0x00000140       0x10 build/default/production/_ext/1160401513/exceptions.o
 .gnu.attributes
                0x00000150       0x10 build/default/production/_ext/1160401513/usb_device_init_data.o
 .gnu.attributes
                0x00000160       0x10 build/default/production/_ext/1160401513/tasks.o
 .gnu.attributes
                0x00000170       0x10 build/default/production/_ext/1003616436/app.o
 .gnu.attributes
                0x00000180       0x10 build/default/production/_ext/1003616436/main.o
 .gnu.attributes
                0x00000190       0x10 build/default/production/_ext/1003616436/usb_com_port.o
 .gnu.attributes
                0x000001a0       0x10 c:/program files (x86)/microchip/xc32/v2.15/bin/bin/../../lib/gcc/pic32mx/4.8.3/../../../../pic32mx/lib/fpu64\libsupc++.a(class_type_info.o)
 .gnu.attributes
                0x000001b0       0x10 c:/program files (x86)/microchip/xc32/v2.15/bin/bin/../../lib/gcc/pic32mx/4.8.3/../../../../pic32mx/lib/fpu64\libsupc++.a(del_op.o)
 .gnu.attributes
                0x000001c0       0x10 c:/program files (x86)/microchip/xc32/v2.15/bin/bin/../../lib/gcc/pic32mx/4.8.3/../../../../pic32mx/lib/fpu64\libsupc++.a(eh_alloc.o)
 .gnu.attributes
                0x000001d0       0x10 c:/program files (x86)/microchip/xc32/v2.15/bin/bin/../../lib/gcc/pic32mx/4.8.3/../../../../pic32mx/lib/fpu64\libsupc++.a(eh_catch.o)
 .gnu.attributes
                0x000001e0       0x10 c:/program files (x86)/microchip/xc32/v2.15/bin/bin/../../lib/gcc/pic32mx/4.8.3/../../../../pic32mx/lib/fpu64\libsupc++.a(eh_exception.o)
 .gnu.attributes
                0x000001f0       0x10 c:/program files (x86)/microchip/xc32/v2.15/bin/bin/../../lib/gcc/pic32mx/4.8.3/../../../../pic32mx/lib/fpu64\libsupc++.a(eh_globals.o)
 .gnu.attributes
                0x00000200       0x10 c:/program files (x86)/microchip/xc32/v2.15/bin/bin/../../lib/gcc/pic32mx/4.8.3/../../../../pic32mx/lib/fpu64\libsupc++.a(eh_personality.o)
 .gnu.attributes
                0x00000210       0x10 c:/program files (x86)/microchip/xc32/v2.15/bin/bin/../../lib/gcc/pic32mx/4.8.3/../../../../pic32mx/lib/fpu64\libsupc++.a(eh_terminate.o)
 .gnu.attributes
                0x00000220       0x10 c:/program files (x86)/microchip/xc32/v2.15/bin/bin/../../lib/gcc/pic32mx/4.8.3/../../../../pic32mx/lib/fpu64\libsupc++.a(eh_throw.o)
 .gnu.attributes
                0x00000230       0x10 c:/program files (x86)/microchip/xc32/v2.15/bin/bin/../../lib/gcc/pic32mx/4.8.3/../../../../pic32mx/lib/fpu64\libsupc++.a(eh_unex_handler.o)
 .gnu.attributes
                0x00000240       0x10 c:/program files (x86)/microchip/xc32/v2.15/bin/bin/../../lib/gcc/pic32mx/4.8.3/../../../../pic32mx/lib/fpu64\libsupc++.a(new_op.o)
 .gnu.attributes
                0x00000250       0x10 c:/program files (x86)/microchip/xc32/v2.15/bin/bin/../../lib/gcc/pic32mx/4.8.3/../../../../pic32mx/lib/fpu64\libsupc++.a(si_class_type_info.o)
 .gnu.attributes
                0x00000260       0x10 c:/program files (x86)/microchip/xc32/v2.15/bin/bin/../../lib/gcc/pic32mx/4.8.3/../../../../pic32mx/lib/fpu64\libsupc++.a(tinfo.o)
 .gnu.attributes
                0x00000270       0x10 c:/program files (x86)/microchip/xc32/v2.15/bin/bin/../../lib/gcc/pic32mx/4.8.3/../../../../pic32mx/lib/fpu64\libsupc++.a(pure.o)
 .gnu.attributes
                0x00000280       0x10 c:/program files (x86)/microchip/xc32/v2.15/bin/bin/../../lib/gcc/pic32mx/4.8.3/../../../../pic32mx/lib/fpu64\libsupc++.a(eh_call.o)
 .gnu.attributes
                0x00000290       0x10 c:/program files (x86)/microchip/xc32/v2.15/bin/bin/../../lib/gcc/pic32mx/4.8.3/../../../../pic32mx/lib/fpu64\libsupc++.a(eh_term_handler.o)
 .gnu.attributes
                0x000002a0       0x10 c:/program files (x86)/microchip/xc32/v2.15/bin/bin/../../lib/gcc/pic32mx/4.8.3/../../../../pic32mx/lib/fpu64\libsupc++.a(new_handler.o)
 .gnu.attributes
                0x000002b0       0x10 c:/program files (x86)/microchip/xc32/v2.15/bin/bin/../../lib/gcc/pic32mx/4.8.3/fpu64\libgcc.a(unwind-sjlj.o)
 .gnu.attributes
                0x000002c0       0x10 c:/program files (x86)/microchip/xc32/v2.15/bin/bin/../../lib/gcc/pic32mx/4.8.3/../../../../pic32mx/lib/fpu64\libpic32.a(default-on-reset.o)
 .gnu.attributes
                0x000002d0       0x10 c:/program files (x86)/microchip/xc32/v2.15/bin/bin/../../lib/gcc/pic32mx/4.8.3/../../../../pic32mx/lib/fpu64\libpic32.a(default-on-bootstrap.o)
 .gnu.attributes
                0x000002e0       0x10 c:/program files (x86)/microchip/xc32/v2.15/bin/bin/../../lib/gcc/pic32mx/4.8.3/../../../../pic32mx/lib/fpu64\libpic32.a(defaultinterrupt.o)
 .gnu.attributes
                0x000002f0       0x10 c:/program files (x86)/microchip/xc32/v2.15/bin/bin/../../lib/gcc/pic32mx/4.8.3/../../../../pic32mx/lib/fpu64\libxcpp.a(xthrow.o)
 .gnu.attributes
                0x00000300       0x10 c:/program files (x86)/microchip/xc32/v2.15/bin/bin/../../lib/gcc/pic32mx/4.8.3/../../../../pic32mx/lib/fpu64\libxcpp.a(abort.o)
 .gnu.attributes
                0x00000310       0x10 c:/program files (x86)/microchip/xc32/v2.15/bin/bin/../../lib/gcc/pic32mx/4.8.3/../../../../pic32mx/lib/fpu64\libxcpp.a(abs.o)
 .gnu.attributes
                0x00000320       0x10 c:/program files (x86)/microchip/xc32/v2.15/bin/bin/../../lib/gcc/pic32mx/4.8.3/../../../../pic32mx/lib/fpu64\libxcpp.a(exit.o)
 .gnu.attributes
                0x00000330       0x10 c:/program files (x86)/microchip/xc32/v2.15/bin/bin/../../lib/gcc/pic32mx/4.8.3/../../../../pic32mx/lib/fpu64\libxcpp.a(free.o)
 .gnu.attributes
                0x00000340       0x10 c:/program files (x86)/microchip/xc32/v2.15/bin/bin/../../lib/gcc/pic32mx/4.8.3/../../../../pic32mx/lib/fpu64\libxcpp.a(malloc.o)
 .gnu.attributes
                0x00000350       0x10 c:/program files (x86)/microchip/xc32/v2.15/bin/bin/../../lib/gcc/pic32mx/4.8.3/../../../../pic32mx/lib/fpu64\libxcpp.a(memmove.o)
 .gnu.attributes
                0x00000360       0x10 c:/program files (x86)/microchip/xc32/v2.15/bin/bin/../../lib/gcc/pic32mx/4.8.3/../../../../pic32mx/lib/fpu64\libxcpp.a(raise.o)
 .gnu.attributes
                0x00000370       0x10 c:/program files (x86)/microchip/xc32/v2.15/bin/bin/../../lib/gcc/pic32mx/4.8.3/../../../../pic32mx/lib/fpu64\libxcpp.a(vsnprint.o)
 .gnu.attributes
                0x00000380       0x10 c:/program files (x86)/microchip/xc32/v2.15/bin/bin/../../lib/gcc/pic32mx/4.8.3/../../../../pic32mx/lib/fpu64\libxcpp.a(xexit.o)
 .gnu.attributes
                0x00000390       0x10 c:/program files (x86)/microchip/xc32/v2.15/bin/bin/../../lib/gcc/pic32mx/4.8.3/../../../../pic32mx/lib/fpu64\libxcpp.a(xgetmem.o)
 .gnu.attributes
                0x000003a0       0x10 c:/program files (x86)/microchip/xc32/v2.15/bin/bin/../../lib/gcc/pic32mx/4.8.3/../../../../pic32mx/lib/fpu64\libxcpp.a(xprintf.o)
 .gnu.attributes
                0x000003b0       0x10 c:/program files (x86)/microchip/xc32/v2.15/bin/bin/../../lib/gcc/pic32mx/4.8.3/../../../../pic32mx/lib/fpu64\libxcpp.a(xputfld.o)
 .gnu.attributes
                0x000003c0       0x10 c:/program files (x86)/microchip/xc32/v2.15/bin/bin/../../lib/gcc/pic32mx/4.8.3/../../../../pic32mx/lib/fpu64\libxcpp.a(xputstr.o)
 .gnu.attributes
                0x000003d0       0x10 c:/program files (x86)/microchip/xc32/v2.15/bin/bin/../../lib/gcc/pic32mx/4.8.3/../../../../pic32mx/lib/fpu64\libxcpp.a(xputtxt.o)
 .gnu.attributes
                0x000003e0       0x10 c:/program files (x86)/microchip/xc32/v2.15/bin/bin/../../lib/gcc/pic32mx/4.8.3/../../../../pic32mx/lib/fpu64\libxcpp.a(xstate.o)
 .gnu.attributes
                0x000003f0       0x10 c:/program files (x86)/microchip/xc32/v2.15/bin/bin/../../lib/gcc/pic32mx/4.8.3/../../../../pic32mx/lib/fpu64\libxcpp.a(xvacopy.o)
 .gnu.attributes
                0x00000400       0x10 c:/program files (x86)/microchip/xc32/v2.15/bin/bin/../../lib/gcc/pic32mx/4.8.3/../../../../pic32mx/lib/fpu64\libxcpp.a(xwctomb.o)
 .gnu.attributes
                0x00000410       0x10 c:/program files (x86)/microchip/xc32/v2.15/bin/bin/../../lib/gcc/pic32mx/4.8.3/../../../../pic32mx/lib/fpu64\libxcpp.a(xfail_s.o)
 .gnu.attributes
                0x00000420       0x10 c:/program files (x86)/microchip/xc32/v2.15/bin/bin/../../lib/gcc/pic32mx/4.8.3/../../../../pic32mx/lib/fpu64\libxcpp.a(errno.o)
 .gnu.attributes
                0x00000430       0x10 c:/program files (x86)/microchip/xc32/v2.15/bin/bin/../../lib/gcc/pic32mx/4.8.3/../../../../pic32mx/lib/fpu64\libxcpp.a(fputc.o)
 .gnu.attributes
                0x00000440       0x10 c:/program files (x86)/microchip/xc32/v2.15/bin/bin/../../lib/gcc/pic32mx/4.8.3/../../../../pic32mx/lib/fpu64\libxcpp.a(fputs.o)
 .gnu.attributes
                0x00000450       0x10 c:/program files (x86)/microchip/xc32/v2.15/bin/bin/../../lib/gcc/pic32mx/4.8.3/../../../../pic32mx/lib/fpu64\libxcpp.a(memchr.o)
 .gnu.attributes
                0x00000460       0x10 c:/program files (x86)/microchip/xc32/v2.15/bin/bin/../../lib/gcc/pic32mx/4.8.3/../../../../pic32mx/lib/fpu64\libxcpp.a(strchr.o)
 .gnu.attributes
                0x00000470       0x10 c:/program files (x86)/microchip/xc32/v2.15/bin/bin/../../lib/gcc/pic32mx/4.8.3/../../../../pic32mx/lib/fpu64\libxcpp.a(strrchr.o)
 .gnu.attributes
                0x00000480       0x10 c:/program files (x86)/microchip/xc32/v2.15/bin/bin/../../lib/gcc/pic32mx/4.8.3/../../../../pic32mx/lib/fpu64\libxcpp.a(xctype.o)
 .gnu.attributes
                0x00000490       0x10 c:/program files (x86)/microchip/xc32/v2.15/bin/bin/../../lib/gcc/pic32mx/4.8.3/../../../../pic32mx/lib/fpu64\libxcpp.a(xfiles.o)
 .gnu.attributes
                0x000004a0       0x10 c:/program files (x86)/microchip/xc32/v2.15/bin/bin/../../lib/gcc/pic32mx/4.8.3/../../../../pic32mx/lib/fpu64\libxcpp.a(xfwprep.o)
 .gnu.attributes
                0x000004b0       0x10 c:/program files (x86)/microchip/xc32/v2.15/bin/bin/../../lib/gcc/pic32mx/4.8.3/../../../../pic32mx/lib/fpu64\libxcpp.a(xldtob.o)
 .gnu.attributes
                0x000004c0       0x10 c:/program files (x86)/microchip/xc32/v2.15/bin/bin/../../lib/gcc/pic32mx/4.8.3/../../../../pic32mx/lib/fpu64\libxcpp.a(xldunsca.o)
 .gnu.attributes
                0x000004d0       0x10 c:/program files (x86)/microchip/xc32/v2.15/bin/bin/../../lib/gcc/pic32mx/4.8.3/../../../../pic32mx/lib/fpu64\libxcpp.a(xlitob.o)
 .gnu.attributes
                0x000004e0       0x10 c:/program files (x86)/microchip/xc32/v2.15/bin/bin/../../lib/gcc/pic32mx/4.8.3/../../../../pic32mx/lib/fpu64\libxcpp.a(xlprec.o)
 .gnu.attributes
                0x000004f0       0x10 c:/program files (x86)/microchip/xc32/v2.15/bin/bin/../../lib/gcc/pic32mx/4.8.3/../../../../pic32mx/lib/fpu64\libxcpp.a(xlvalues.o)
 .gnu.attributes
                0x00000500       0x10 c:/program files (x86)/microchip/xc32/v2.15/bin/bin/../../lib/gcc/pic32mx/4.8.3/../../../../pic32mx/lib/fpu64\libxcpp.a(xmbtowc.o)
 .gnu.attributes
                0x00000510       0x10 c:/program files (x86)/microchip/xc32/v2.15/bin/bin/../../lib/gcc/pic32mx/4.8.3/../../../../pic32mx/lib/fpu64\libxcpp.a(xwcstate.o)
 .gnu.attributes
                0x00000520       0x10 c:/program files (x86)/microchip/xc32/v2.15/bin/bin/../../lib/gcc/pic32mx/4.8.3/../../../../pic32mx/lib/fpu64\libxcpp.a(strnlen_s.o)
 .gnu.attributes
                0x00000530       0x10 c:/program files (x86)/microchip/xc32/v2.15/bin/bin/../../lib/gcc/pic32mx/4.8.3/../../../../pic32mx/lib/fpu64\libxcpp.a(fclose.o)
 .gnu.attributes
                0x00000540       0x10 c:/program files (x86)/microchip/xc32/v2.15/bin/bin/../../lib/gcc/pic32mx/4.8.3/../../../../pic32mx/lib/fpu64\libxcpp.a(fflush.o)
 .gnu.attributes
                0x00000550       0x10 c:/program files (x86)/microchip/xc32/v2.15/bin/bin/../../lib/gcc/pic32mx/4.8.3/../../../../pic32mx/lib/fpu64\libxcpp.a(ldexpl.o)
 .gnu.attributes
                0x00000560       0x10 c:/program files (x86)/microchip/xc32/v2.15/bin/bin/../../lib/gcc/pic32mx/4.8.3/../../../../pic32mx/lib/fpu64\libxcpp.a(ldiv.o)
 .gnu.attributes
                0x00000570       0x10 c:/program files (x86)/microchip/xc32/v2.15/bin/bin/../../lib/gcc/pic32mx/4.8.3/../../../../pic32mx/lib/fpu64\libxcpp.a(remove.o)
 .gnu.attributes
                0x00000580       0x10 c:/program files (x86)/microchip/xc32/v2.15/bin/bin/../../lib/gcc/pic32mx/4.8.3/../../../../pic32mx/lib/fpu64\libxcpp.a(sqrtl.o)
 .gnu.attributes
                0x00000590       0x10 c:/program files (x86)/microchip/xc32/v2.15/bin/bin/../../lib/gcc/pic32mx/4.8.3/../../../../pic32mx/lib/fpu64\libxcpp.a(xatexit.o)
 .gnu.attributes
                0x000005a0       0x10 c:/program files (x86)/microchip/xc32/v2.15/bin/bin/../../lib/gcc/pic32mx/4.8.3/../../../../pic32mx/lib/fpu64\libxcpp.a(xdunscal.o)
 .gnu.attributes
                0x000005b0       0x10 c:/program files (x86)/microchip/xc32/v2.15/bin/bin/../../lib/gcc/pic32mx/4.8.3/../../../../pic32mx/lib/fpu64\libxcpp.a(xferaise.o)
 .gnu.attributes
                0x000005c0       0x10 c:/program files (x86)/microchip/xc32/v2.15/bin/bin/../../lib/gcc/pic32mx/4.8.3/../../../../pic32mx/lib/fpu64\libxcpp.a(xfofind.o)
 .gnu.attributes
                0x000005d0       0x10 c:/program files (x86)/microchip/xc32/v2.15/bin/bin/../../lib/gcc/pic32mx/4.8.3/../../../../pic32mx/lib/fpu64\libxcpp.a(xgenld.o)
 .gnu.attributes
                0x000005e0       0x10 c:/program files (x86)/microchip/xc32/v2.15/bin/bin/../../lib/gcc/pic32mx/4.8.3/../../../../pic32mx/lib/fpu64\libxcpp.a(xldint.o)
 .gnu.attributes
                0x000005f0       0x10 c:/program files (x86)/microchip/xc32/v2.15/bin/bin/../../lib/gcc/pic32mx/4.8.3/../../../../pic32mx/lib/fpu64\libxcpp.a(xldscale.o)
 .gnu.attributes
                0x00000600       0x10 c:/program files (x86)/microchip/xc32/v2.15/bin/bin/../../lib/gcc/pic32mx/4.8.3/../../../../pic32mx/lib/fpu64\libxcpp.a(xldtest.o)
 .gnu.attributes
                0x00000610       0x10 c:/program files (x86)/microchip/xc32/v2.15/bin/bin/../../lib/gcc/pic32mx/4.8.3/../../../../pic32mx/lib/fpu64\libxcpp.a(feraiseexcept.o)
 .gnu.attributes
                0x00000620       0x10 c:/program files (x86)/microchip/xc32/v2.15/bin/bin/../../lib/gcc/pic32mx/4.8.3/../../../../pic32mx/lib/fpu64\libxcpp.a(fesetenv.o)
 .gnu.attributes
                0x00000630       0x10 c:/program files (x86)/microchip/xc32/v2.15/bin/bin/../../lib/gcc/pic32mx/4.8.3/../../../../pic32mx/lib/fpu64\libxcpp.a(div.o)
 .gnu.attributes
                0x00000640       0x10 c:/program files (x86)/microchip/xc32/v2.15/bin/bin/../../lib/gcc/pic32mx/4.8.3/../../../../pic32mx/lib/fpu64\libxcpp.a(localeco.o)
 .gnu.attributes
                0x00000650       0x10 c:/program files (x86)/microchip/xc32/v2.15/bin/bin/../../lib/gcc/pic32mx/4.8.3/../../../../pic32mx/lib/fpu64\libxcpp.a(xdint.o)
 .gnu.attributes
                0x00000660       0x10 c:/program files (x86)/microchip/xc32/v2.15/bin/bin/../../lib/gcc/pic32mx/4.8.3/../../../../pic32mx/lib/fpu64\libxcpp.a(xdnorm.o)
 .gnu.attributes
                0x00000670       0x10 c:/program files (x86)/microchip/xc32/v2.15/bin/bin/../../lib/gcc/pic32mx/4.8.3/../../../../pic32mx/lib/fpu64\libxcpp.a(xdscale.o)
 .gnu.attributes
                0x00000680       0x10 c:/program files (x86)/microchip/xc32/v2.15/bin/bin/../../lib/gcc/pic32mx/4.8.3/../../../../pic32mx/lib/fpu64\libxcpp.a(xdtest.o)
 .gnu.attributes
                0x00000690       0x10 c:/program files (x86)/microchip/xc32/v2.15/bin/bin/../../lib/gcc/pic32mx/4.8.3/../../../../pic32mx/lib/fpu64\libxcpp.a(xvalues.o)
 .gnu.attributes
                0x000006a0       0x10 c:/program files (x86)/microchip/xc32/v2.15/bin/bin/../../lib/gcc/pic32mx/4.8.3/../../../../pic32mx/lib/fpu64\libxcpp.a(fegetenv.o)
 .gnu.attributes
                0x000006b0       0x10 c:/program files (x86)/microchip/xc32/v2.15/bin/bin/../../lib/gcc/pic32mx/4.8.3/../../../../pic32mx/lib/fpu64\libpic32.a(sbrk.o)
 .gnu.attributes
                0x000006c0       0x10 c:/program files (x86)/microchip/xc32/v2.15/bin/bin/../../lib/gcc/pic32mx/4.8.3/../../../../pic32mx/lib/fpu64\libpic32.a(_exit.o)
 .gnu.attributes
                0x000006d0       0x10 c:/program files (x86)/microchip/xc32/v2.15/bin/bin/../../lib/gcc/pic32mx/4.8.3/../../../../pic32mx/lib/fpu64\libpic32.a(isatty.o)
 .gnu.attributes
                0x000006e0       0x10 c:/program files (x86)/microchip/xc32/v2.15/bin/bin/../../lib/gcc/pic32mx/4.8.3/../../../../pic32mx/lib/fpu64\libpic32.a(write.o)
 .gnu.attributes
                0x000006f0       0x10 c:/program files (x86)/microchip/xc32/v2.15/bin/bin/../../lib/gcc/pic32mx/4.8.3/../../../../pic32mx/lib/fpu64\libpic32.a(close.o)
 .gnu.attributes
                0x00000700       0x10 c:/program files (x86)/microchip/xc32/v2.15/bin/bin/../../lib/gcc/pic32mx/4.8.3/../../../../pic32mx/lib/fpu64\libpic32.a(unlink.o)
 .gnu.attributes
                0x00000710       0x10 c:/program files (x86)/microchip/xc32/v2.15/bin/bin/../../lib/gcc/pic32mx/4.8.3/../../../../pic32mx/lib/fpu64\libpic32.a(kill.o)
 .gnu.attributes
                0x00000720       0x10 c:/program files (x86)/microchip/xc32/v2.15/bin/bin/../../lib/gcc/pic32mx/4.8.3/../../../../pic32mx/lib/fpu64\libpic32.a(getpid.o)
 .gnu.attributes
                0x00000730       0x10 c:/program files (x86)/microchip/xc32/v2.15/bin/bin/../../lib/gcc/pic32mx/4.8.3/../../../../pic32mx/lib/fpu64\libpic32.a(errno.o)
 .gnu.attributes
                0x00000740       0x10 c:/program files (x86)/microchip/xc32/v2.15/bin/bin/../../lib/gcc/pic32mx/4.8.3/../../../../pic32mx/lib/fpu64\libpic32.a(rmdir.o)
 .gnu.attributes
                0x00000750       0x10 c:/program files (x86)/microchip/xc32/v2.15/bin/bin/../../lib/gcc/pic32mx/4.8.3/fpu64\libgcc.a(_udivdi3.o)
 .gnu.attributes
                0x00000760       0x10 c:/program files (x86)/microchip/xc32/v2.15/bin/bin/../../lib/gcc/pic32mx/4.8.3/fpu64\libgcc.a(_umoddi3.o)
 .gnu.attributes
                0x00000770       0x10 c:/program files (x86)/microchip/xc32/v2.15/bin/bin/../../lib/gcc/pic32mx/4.8.3/fpu64/crtend.o
                0x9d000000                PROVIDE (__pic32_init_cache_program_base_addr, 0x9d000000)
                0x80000000                PROVIDE (__pic32_init_cache_data_base_addr, 0x80000000)
                0xd0000000                PROVIDE (__pic32_init_sqi_kseg2_virtual_base_addr, 0xd0000000)
                0x30000000                PROVIDE (__pic32_init_sqi_kseg2_physical_base_addr, 0x30000000)
                0x0000001f                PROVIDE (__pic32_init_sqi_kseg2_entrylo0_bitset, 0x1f)
                0xd0000000                __pic32_tlb_0_entryhi = __pic32_init_sqi_kseg2_virtual_base_addr
                0x00c0001f                __pic32_tlb_0_entrylo0 = ((__pic32_init_sqi_kseg2_physical_base_addr >> 0x6) | __pic32_init_sqi_kseg2_entrylo0_bitset)
                0x00c4001f                __pic32_tlb_0_entrylo1 = (__pic32_tlb_0_entrylo0 | ((__pic32_init_sqi_kseg2_physical_base_addr + 0x1000000) >> 0x6))
                0xd2000000                __pic32_tlb_1_entryhi = (__pic32_init_sqi_kseg2_virtual_base_addr + 0x2000000)
                0x00c8001f                __pic32_tlb_1_entrylo0 = (((__pic32_init_sqi_kseg2_physical_base_addr + 0x2000000) >> 0x6) | __pic32_init_sqi_kseg2_entrylo0_bitset)
                0x00cc001f                __pic32_tlb_1_entrylo1 = (__pic32_tlb_1_entrylo0 | 0x40000)
                0xf0000000                PROVIDE (__pic32_init_sqi_kseg3_virtual_base_addr, 0xf0000000)
                0x30000000                PROVIDE (__pic32_init_sqi_kseg3_physical_base_addr, 0x30000000)
                0x00000017                PROVIDE (__pic32_init_sqi_kseg3_entrylo0_bitset, 0x17)
                0xf0000000                __pic32_tlb_2_entryhi = __pic32_init_sqi_kseg3_virtual_base_addr
                0x00c00017                __pic32_tlb_2_entrylo0 = ((__pic32_init_sqi_kseg3_physical_base_addr >> 0x6) | __pic32_init_sqi_kseg3_entrylo0_bitset)
                0x00c40017                __pic32_tlb_2_entrylo1 = (__pic32_tlb_2_entrylo0 | ((__pic32_init_sqi_kseg3_physical_base_addr + 0x1000000) >> 0x6))
                0xf2000000                __pic32_tlb_3_entryhi = (__pic32_init_sqi_kseg3_virtual_base_addr + 0x2000000)
                0x00c80017                __pic32_tlb_3_entrylo0 = (((__pic32_init_sqi_kseg3_physical_base_addr + 0x2000000) >> 0x6) | __pic32_init_sqi_kseg3_entrylo0_bitset)
                0x00cc0017                __pic32_tlb_3_entrylo1 = (__pic32_tlb_3_entrylo0 | 0x40000)
                0xc0000000                PROVIDE (__pic32_init_ebi_kseg2_virtual_base_addr, 0xc0000000)
                0x20000000                PROVIDE (__pic32_init_ebi_kseg2_physical_base_addr, 0x20000000)
                0x0000001f                PROVIDE (__pic32_init_ebi_kseg2_entrylo0_bitset, 0x1f)
                0xc0000000                __pic32_tlb_4_entryhi = __pic32_init_ebi_kseg2_virtual_base_addr
                0x0080001f                __pic32_tlb_4_entrylo0 = ((__pic32_init_ebi_kseg2_physical_base_addr >> 0x6) | __pic32_init_ebi_kseg2_entrylo0_bitset)
                0x0084001f                __pic32_tlb_4_entrylo1 = (__pic32_tlb_4_entrylo0 | ((__pic32_init_ebi_kseg2_physical_base_addr + 0x1000000) >> 0x6))
                0xc2000000                __pic32_tlb_5_entryhi = (__pic32_init_ebi_kseg2_virtual_base_addr + 0x2000000)
                0x0088001f                __pic32_tlb_5_entrylo0 = (((__pic32_init_ebi_kseg2_physical_base_addr + 0x2000000) >> 0x6) | __pic32_init_ebi_kseg2_entrylo0_bitset)
                0x008c001f                __pic32_tlb_5_entrylo1 = (__pic32_tlb_5_entrylo0 | 0x40000)
                0xe0000000                PROVIDE (__pic32_init_ebi_kseg3_virtual_base_addr, 0xe0000000)
                0x20000000                PROVIDE (__pic32_init_ebi_kseg3_physical_base_addr, 0x20000000)
                0x00000017                PROVIDE (__pic32_init_ebi_kseg3_entrylo0_bitset, 0x17)
                0xe0000000                __pic32_tlb_6_entryhi = __pic32_init_ebi_kseg3_virtual_base_addr
                0x00800017                __pic32_tlb_6_entrylo0 = ((__pic32_init_ebi_kseg3_physical_base_addr >> 0x6) | __pic32_init_ebi_kseg3_entrylo0_bitset)
                0x00840017                __pic32_tlb_6_entrylo1 = (__pic32_tlb_6_entrylo0 | ((__pic32_init_ebi_kseg3_physical_base_addr + 0x1000000) >> 0x6))
                0xe2000000                __pic32_tlb_7_entryhi = (__pic32_init_ebi_kseg3_virtual_base_addr + 0x2000000)
                0x00880017                __pic32_tlb_7_entrylo0 = (((__pic32_init_ebi_kseg3_physical_base_addr + 0x2000000) >> 0x6) | __pic32_init_ebi_kseg3_entrylo0_bitset)
                0x008c0017                __pic32_tlb_7_entrylo1 = (__pic32_tlb_7_entrylo0 | 0x40000)

.tlb_init_values
                0xbfc00670       0x60
                0xbfc00670                . = ALIGN (0x4)
                0xbfc00670                __pic32_tlb_init_values_begin = ABSOLUTE (.)
                0xbfc00670        0x4 LONG 0xd0000000 __pic32_tlb_0_entryhi
                0xbfc00674        0x4 LONG 0xc0001f __pic32_tlb_0_entrylo0
                0xbfc00678        0x4 LONG 0xc4001f __pic32_tlb_0_entrylo1
                0xbfc0067c        0x4 LONG 0xd2000000 __pic32_tlb_1_entryhi
                0xbfc00680        0x4 LONG 0xc8001f __pic32_tlb_1_entrylo0
                0xbfc00684        0x4 LONG 0xcc001f __pic32_tlb_1_entrylo1
                0xbfc00688        0x4 LONG 0xf0000000 __pic32_tlb_2_entryhi
                0xbfc0068c        0x4 LONG 0xc00017 __pic32_tlb_2_entrylo0
                0xbfc00690        0x4 LONG 0xc40017 __pic32_tlb_2_entrylo1
                0xbfc00694        0x4 LONG 0xf2000000 __pic32_tlb_3_entryhi
                0xbfc00698        0x4 LONG 0xc80017 __pic32_tlb_3_entrylo0
                0xbfc0069c        0x4 LONG 0xcc0017 __pic32_tlb_3_entrylo1
                0xbfc006a0        0x4 LONG 0xc0000000 __pic32_tlb_4_entryhi
                0xbfc006a4        0x4 LONG 0x80001f __pic32_tlb_4_entrylo0
                0xbfc006a8        0x4 LONG 0x84001f __pic32_tlb_4_entrylo1
                0xbfc006ac        0x4 LONG 0xc2000000 __pic32_tlb_5_entryhi
                0xbfc006b0        0x4 LONG 0x88001f __pic32_tlb_5_entrylo0
                0xbfc006b4        0x4 LONG 0x8c001f __pic32_tlb_5_entrylo1
                0xbfc006b8        0x4 LONG 0xe0000000 __pic32_tlb_6_entryhi
                0xbfc006bc        0x4 LONG 0x800017 __pic32_tlb_6_entrylo0
                0xbfc006c0        0x4 LONG 0x840017 __pic32_tlb_6_entrylo1
                0xbfc006c4        0x4 LONG 0xe2000000 __pic32_tlb_7_entryhi
                0xbfc006c8        0x4 LONG 0x880017 __pic32_tlb_7_entrylo0
                0xbfc006cc        0x4 LONG 0x8c0017 __pic32_tlb_7_entrylo1
                0xbfc006d0                __pic32_tlb_init_values_end = ABSOLUTE (.)
                0x00000008                __pic32_tlb_init_values_count = 0x8
                0x00000200                _min_heap_size = 0x200
LOAD c:/program files (x86)/microchip/xc32/v2.15/bin/bin/../../lib/gcc/pic32mx/4.8.3/../../../../pic32mx/lib/fpu64\libsupc++.a
LOAD C:\Users\Andrew\AppData\Local\Temp\ccsLlpbg.o
LOAD C:\Users\Andrew\AppData\Local\Temp\ccWjX2Wt.o
LOAD C:\Users\Andrew\AppData\Local\Temp\ccodWkAM.o
LOAD c:/program files (x86)/microchip/xc32/v2.15/bin/bin/../../lib/gcc/pic32mx/4.8.3/../../../../pic32mx/lib/./proc/32MZ2048EFM144\default_isr_vectors.o
LOAD c:/program files (x86)/microchip/xc32/v2.15/bin/bin/../../lib/gcc/pic32mx/4.8.3/../../../../pic32mx/lib/fpu64\pic32_software_reset.o
LOAD c:/program files (x86)/microchip/xc32/v2.15/bin/bin/../../lib/gcc/pic32mx/4.8.3/fpu64\libgcc.a
START GROUP
LOAD c:/program files (x86)/microchip/xc32/v2.15/bin/bin/../../lib/gcc/pic32mx/4.8.3/../../../../pic32mx/lib/fpu64\libpic32.a
LOAD c:/program files (x86)/microchip/xc32/v2.15/bin/bin/../../lib/gcc/pic32mx/4.8.3/../../../../pic32mx/lib/fpu64\libdebug.a
LOAD c:/program files (x86)/microchip/xc32/v2.15/bin/bin/../../lib/gcc/pic32mx/4.8.3/../../../../pic32mx/lib/fpu64\libxcpp.a
LOAD c:/program files (x86)/microchip/xc32/v2.15/bin/bin/../../lib/gcc/pic32mx/4.8.3/../../../../pic32mx/lib/fpu64\libsupc++.a
LOAD c:/program files (x86)/microchip/xc32/v2.15/bin/bin/../../lib/gcc/pic32mx/4.8.3/../../../../pic32mx/lib/fpu64\libpic32.a
LOAD c:/program files (x86)/microchip/xc32/v2.15/bin/bin/../../lib/gcc/pic32mx/4.8.3/../../../../pic32mx/lib/fpu64\libmfd.a
LOAD c:/program files (x86)/microchip/xc32/v2.15/bin/bin/../../lib/gcc/pic32mx/4.8.3/../../../../pic32mx/lib/fpu64\libm.a
LOAD c:/program files (x86)/microchip/xc32/v2.15/bin/bin/../../lib/gcc/pic32mx/4.8.3/../../../../pic32mx/lib/fpu64\libe.a
LOAD c:/program files (x86)/microchip/xc32/v2.15/bin/bin/../../lib/gcc/pic32mx/4.8.3/../../../../pic32mx/lib/fpu64\libdspr2.a
LOAD c:/program files (x86)/microchip/xc32/v2.15/bin/bin/../../lib/gcc/pic32mx/4.8.3/../../../../pic32mx/lib/fpu64\libdsp.a
LOAD c:/program files (x86)/microchip/xc32/v2.15/bin/bin/../../lib/gcc/pic32mx/4.8.3/fpu64\libgcc.a
LOAD c:/program files (x86)/microchip/xc32/v2.15/bin/bin/../../lib/gcc/pic32mx/4.8.3/../../../../pic32mx/lib/fpu64\libpic32.a
END GROUP
LOAD c:/program files (x86)/microchip/xc32/v2.15/bin/bin/../../lib/gcc/pic32mx/4.8.3/fpu64\libgcc.a
LOAD c:/program files (x86)/microchip/xc32/v2.15/bin/bin/../../lib/gcc/pic32mx/4.8.3/fpu64/crtend.o
LOAD c:/program files (x86)/microchip/xc32/v2.15/bin/bin/../../lib/gcc/pic32mx/4.8.3/fpu64/crtn.o
OUTPUT(dist/default/production/hello_world.X.production.elf elf32-tradlittlemips)
LOAD stack
LOAD data_init

.reginfo        0x00000000       0x18
 .reginfo       0x00000000       0x18 c:/program files (x86)/microchip/xc32/v2.15/bin/bin/../../lib/gcc/pic32mx/4.8.3/fpu64/crti.o

.stack          0x80001b60      0x400
 .stack         0x80001b60      0x400 stack

.__vector_offset_BF810540_data
                0xbf810540      0x1b0
 .__vector_offset_BF810540_data
                0xbf810540      0x1b0 c:/program files (x86)/microchip/xc32/v2.15/bin/bin/../../lib/gcc/pic32mx/4.8.3/../../../../pic32mx/lib/./proc/32MZ2048EFM144\vector_offset_init.o

.__vector_offset_BF8106F4_data
                0xbf8106f4      0x148
 .__vector_offset_BF8106F4_data
                0xbf8106f4      0x148 c:/program files (x86)/microchip/xc32/v2.15/bin/bin/../../lib/gcc/pic32mx/4.8.3/../../../../pic32mx/lib/./proc/32MZ2048EFM144\vector_offset_init.o

.__vector_offset_BF810874_data
                0xbf810874       0x18
 .__vector_offset_BF810874_data
                0xbf810874       0x18 c:/program files (x86)/microchip/xc32/v2.15/bin/bin/../../lib/gcc/pic32mx/4.8.3/../../../../pic32mx/lib/./proc/32MZ2048EFM144\vector_offset_init.o

.__vector_offset_BF810858_data
                0xbf810858       0x14
 .__vector_offset_BF810858_data
                0xbf810858       0x14 c:/program files (x86)/microchip/xc32/v2.15/bin/bin/../../lib/gcc/pic32mx/4.8.3/../../../../pic32mx/lib/./proc/32MZ2048EFM144\vector_offset_init.o

.__vector_offset_BF810840_data
                0xbf810840        0xc
 .__vector_offset_BF810840_data
                0xbf810840        0xc c:/program files (x86)/microchip/xc32/v2.15/bin/bin/../../lib/gcc/pic32mx/4.8.3/../../../../pic32mx/lib/./proc/32MZ2048EFM144\vector_offset_init.o

.__vector_offset_BF810850_data
                0xbf810850        0x4
 .__vector_offset_BF810850_data
                0xbf810850        0x4 c:/program files (x86)/microchip/xc32/v2.15/bin/bin/../../lib/gcc/pic32mx/4.8.3/../../../../pic32mx/lib/./proc/32MZ2048EFM144\vector_offset_init.o

.__vector_offset_BF810894_data
                0xbf810894        0x4
 .__vector_offset_BF810894_data
                0xbf810894        0x4 c:/program files (x86)/microchip/xc32/v2.15/bin/bin/../../lib/gcc/pic32mx/4.8.3/../../../../pic32mx/lib/./proc/32MZ2048EFM144\vector_offset_init.o

.COHERENTBSS$   0xa00003d0      0x400
 .COHERENTBSS$  0xa00003d0      0x200 build/default/production/_ext/1003616436/main.o
                0xa00003d0                writeBuffer
 .bss.readBuffer.readBuffer
                0xa00005d0      0x200 build/default/production/_ext/1003616436/main.o
                0xa00005d0                readBuffer

.bss._ZL16emergency_buffer.emergency_buffer
                0x800007d0      0x800
 .bss._ZL16emergency_buffer.emergency_buffer
                0x800007d0      0x800 c:/program files (x86)/microchip/xc32/v2.15/bin/bin/../../lib/gcc/pic32mx/4.8.3/../../../../pic32mx/lib/fpu64\libsupc++.a(eh_alloc.o)

.bss            0x80000fd0      0x240
 .bss           0x80000fd0      0x240 build/default/production/_ext/1003616436/main.o
                0x800011d0                testString
                0x800011ec                USB1

.data           0x80001210      0x19c
 .data          0x80001210      0x19c c:/program files (x86)/microchip/xc32/v2.15/bin/bin/../../lib/gcc/pic32mx/4.8.3/../../../../pic32mx/lib/fpu64\libxcpp.a(xfiles.o)
                0x80001210                _PJP_C_Copyright
                0x8000126c                stderr
                0x80001270                stdout
                0x80001274                stdin
                0x80001278                _Files
                0x800012c8                _Stderr
                0x80001314                _Stdout
                0x80001360                _Stdin

.bss            0x800013ac      0x29c
 .bss           0x800013ac      0x158 build/default/production/_ext/763370911/usb_device.o
 .bss           0x80001504      0x144 c:/program files (x86)/microchip/xc32/v2.15/bin/bin/../../lib/gcc/pic32mx/4.8.3/../../../../pic32mx/lib/fpu64\libxcpp.a(exit.o)
                0x80001504                _Atcount0

.data           0x80001648       0xe0
 .data          0x80001648       0x78 c:/program files (x86)/microchip/xc32/v2.15/bin/bin/../../lib/gcc/pic32mx/4.8.3/../../../../pic32mx/lib/fpu64\libxcpp.a(xvalues.o)
                0x80001648                _Xbig
                0x80001650                _Rteps
                0x80001660                _Snan
                0x80001670                _Nan
                0x80001680                _Inf
                0x80001690                _Hugeval
                0x800016a0                _Eps
                0x800016b0                _Denorm
 .data          0x800016c0       0x68 c:/program files (x86)/microchip/xc32/v2.15/bin/bin/../../lib/gcc/pic32mx/4.8.3/../../../../pic32mx/lib/fpu64\libxcpp.a(xlvalues.o)
                0x800016c0                _LXbig
                0x800016c8                _LRteps
                0x800016d8                _LSnan
                0x800016e8                _LNan
                0x800016f8                _LInf
                0x80001708                _LEps
                0x80001718                _LDenorm

.data           0x80001728       0xa0
 .data          0x80001728       0x50 build/default/production/_ext/490896790/drv_usbhs_device.o
                0x80001728                gDrvUSBHSDeviceInterface
 .data          0x80001778       0x50 c:/program files (x86)/microchip/xc32/v2.15/bin/bin/../../lib/gcc/pic32mx/4.8.3/../../../../pic32mx/lib/fpu64\libxcpp.a(localeco.o)
                0x80001778                _Locale

.bss            0x800017c8       0x8c
 .bss           0x800017c8       0x48 c:/program files (x86)/microchip/xc32/v2.15/bin/bin/../../lib/gcc/pic32mx/4.8.3/../../../../pic32mx/lib/fpu64\libxcpp.a(xstate.o)
                0x800017c8                _Tls_setup__Mbstate
                0x800017cc                _Mbstate
                0x8000180c                _Tls_setup__Mbcurmax
 .bss           0x80001810       0x44 c:/program files (x86)/microchip/xc32/v2.15/bin/bin/../../lib/gcc/pic32mx/4.8.3/../../../../pic32mx/lib/fpu64\libxcpp.a(xwcstate.o)
                0x80001810                _Tls_setup__Wcstate
                0x80001814                _Wcstate

.data           0x80001854       0x3c
 .data          0x80001854       0x3c c:/program files (x86)/microchip/xc32/v2.15/bin/bin/../../lib/gcc/pic32mx/4.8.3/../../../../pic32mx/lib/fpu64\libxcpp.a(fesetenv.o)

.bss            0x80001890       0x44
 .bss           0x80001890       0x24 c:/program files (x86)/microchip/xc32/v2.15/bin/bin/../../lib/gcc/pic32mx/4.8.3/../../../../pic32mx/lib/fpu64\libpic32.a(sbrk.o)
                0x800018ac                _maxbrk
                0x800018b0                _minbrk
 .bss           0x800018b4       0x20 c:/program files (x86)/microchip/xc32/v2.15/bin/bin/../../lib/gcc/pic32mx/4.8.3/fpu64/crtbegin.o

.data           0x800018d8       0x18
 .data          0x800018d8       0x18 c:/program files (x86)/microchip/xc32/v2.15/bin/bin/../../lib/gcc/pic32mx/4.8.3/../../../../pic32mx/lib/fpu64\libxcpp.a(xldtob.o)

.bss            0x800018f0       0x10
 .bss           0x800018f0       0x10 c:/program files (x86)/microchip/xc32/v2.15/bin/bin/../../lib/gcc/pic32mx/4.8.3/../../../../pic32mx/lib/fpu64\libxcpp.a(xfiles.o)

.data           0x80001900        0xc
 .data          0x80001900        0xc c:/program files (x86)/microchip/xc32/v2.15/bin/bin/../../lib/gcc/pic32mx/4.8.3/../../../../pic32mx/lib/fpu64\libxcpp.a(exit.o)
                0x80001900                _Atcount
                0x80001904                _Atfuns

.bss._ZL10eh_globals.eh_globals
                0x8000190c        0x8
 .bss._ZL10eh_globals.eh_globals
                0x8000190c        0x8 c:/program files (x86)/microchip/xc32/v2.15/bin/bin/../../lib/gcc/pic32mx/4.8.3/../../../../pic32mx/lib/fpu64\libsupc++.a(eh_globals.o)

.bss            0x80001914       0x10
 .bss           0x80001914        0x8 c:/program files (x86)/microchip/xc32/v2.15/bin/bin/../../lib/gcc/pic32mx/4.8.3/../../../../pic32mx/lib/fpu64\libxcpp.a(malloc.o)
                0x80001914                _Aldata
 .bss           0x8000191c        0x8 c:/program files (x86)/microchip/xc32/v2.15/bin/bin/../../lib/gcc/pic32mx/4.8.3/../../../../pic32mx/lib/fpu64\libxcpp.a(errno.o)
                0x8000191c                _Tls_setup__Errno
                0x80001920                _Errno

.bss._ZL14emergency_used.emergency_used
                0x800003cc        0x4
 .bss._ZL14emergency_used.emergency_used
                0x800003cc        0x4 c:/program files (x86)/microchip/xc32/v2.15/bin/bin/../../lib/gcc/pic32mx/4.8.3/../../../../pic32mx/lib/fpu64\libsupc++.a(eh_alloc.o)

.data._ZN10__cxxabiv120__unexpected_handlerE.__unexpected_handler
                0x800018d4        0x4
 .data._ZN10__cxxabiv120__unexpected_handlerE.__unexpected_handler
                0x800018d4        0x4 c:/program files (x86)/microchip/xc32/v2.15/bin/bin/../../lib/gcc/pic32mx/4.8.3/../../../../pic32mx/lib/fpu64\libsupc++.a(eh_unex_handler.o)
                0x800018d4                __cxxabiv1::__unexpected_handler

.data._ZN10__cxxabiv119__terminate_handlerE.__terminate_handler
                0x80001924        0x4
 .data._ZN10__cxxabiv119__terminate_handlerE.__terminate_handler
                0x80001924        0x4 c:/program files (x86)/microchip/xc32/v2.15/bin/bin/../../lib/gcc/pic32mx/4.8.3/../../../../pic32mx/lib/fpu64\libsupc++.a(eh_term_handler.o)
                0x80001924                __cxxabiv1::__terminate_handler

.bss.__new_handler.__new_handler
                0x80001928        0x4
 .bss.__new_handler.__new_handler
                0x80001928        0x4 c:/program files (x86)/microchip/xc32/v2.15/bin/bin/../../lib/gcc/pic32mx/4.8.3/../../../../pic32mx/lib/fpu64\libsupc++.a(new_handler.o)
                0x80001928                __new_handler

.bss            0x8000192c        0x4
 .bss           0x8000192c        0x4 c:/program files (x86)/microchip/xc32/v2.15/bin/bin/../../lib/gcc/pic32mx/4.8.3/fpu64\libgcc.a(unwind-sjlj.o)

.data           0x80001930        0x4
 .data          0x80001930        0x4 c:/program files (x86)/microchip/xc32/v2.15/bin/bin/../../lib/gcc/pic32mx/4.8.3/../../../../pic32mx/lib/fpu64\libxcpp.a(malloc.o)
                0x80001930                _Size_block

.bss            0x80001934        0x4
 .bss           0x80001934        0x4 c:/program files (x86)/microchip/xc32/v2.15/bin/bin/../../lib/gcc/pic32mx/4.8.3/../../../../pic32mx/lib/fpu64\libxcpp.a(xfail_s.o)

.data           0x80001938        0x4
 .data          0x80001938        0x4 c:/program files (x86)/microchip/xc32/v2.15/bin/bin/../../lib/gcc/pic32mx/4.8.3/../../../../pic32mx/lib/fpu64\libxcpp.a(xctype.o)
                0x80001938                _Ctype

.bss.errno      0x8000193c        0x4
 .bss.errno     0x8000193c        0x4 c:/program files (x86)/microchip/xc32/v2.15/bin/bin/../../lib/gcc/pic32mx/4.8.3/../../../../pic32mx/lib/fpu64\libpic32.a(errno.o)
                0x8000193c                errno

.tm_clone_table%z1
                0x00000000        0x0
 .tm_clone_table
                0x00000000        0x0 c:/program files (x86)/microchip/xc32/v2.15/bin/bin/../../lib/gcc/pic32mx/4.8.3/fpu64/crtend.o
                0x00000000                __TMC_END__

.data           0x80001940        0x1
 .data          0x80001940        0x1 c:/program files (x86)/microchip/xc32/v2.15/bin/bin/../../lib/gcc/pic32mx/4.8.3/../../../../pic32mx/lib/fpu64\libxcpp.a(xstate.o)
                0x80001940                _Mbcurmax

.bss            0x80001941        0x1
 .bss           0x80001941        0x1 c:/program files (x86)/microchip/xc32/v2.15/bin/bin/../../lib/gcc/pic32mx/4.8.3/../../../../pic32mx/lib/fpu64\libxcpp.a(fclose.o)

.tm_clone_table%z2
                0x00000000        0x0
 .tm_clone_table
                0x00000000        0x0 c:/program files (x86)/microchip/xc32/v2.15/bin/bin/../../lib/gcc/pic32mx/4.8.3/fpu64/crtbegin.o

.text._Putfld   0x9d0016ec      0xa8c
 .text._Putfld  0x9d0016ec      0xa8c c:/program files (x86)/microchip/xc32/v2.15/bin/bin/../../lib/gcc/pic32mx/4.8.3/../../../../pic32mx/lib/fpu64\libxcpp.a(xputfld.o)
                0x9d0016ec                _Putfld

.dinit          0x9d002178      0xa50
 .dinit         0x9d002178      0xa50 data_init

.text._DRV_USBHS_DEVICE_Tasks_ISR
                0x9d002bc8      0x9f0
 .text._DRV_USBHS_DEVICE_Tasks_ISR
                0x9d002bc8      0x9f0 build/default/production/_ext/490896790/drv_usbhs_device.o
                0x9d002bc8                _DRV_USBHS_DEVICE_Tasks_ISR

.text._Ldtob    0x9d0035b8      0x8c0
 .text._Ldtob   0x9d0035b8      0x8c0 c:/program files (x86)/microchip/xc32/v2.15/bin/bin/../../lib/gcc/pic32mx/4.8.3/../../../../pic32mx/lib/fpu64\libxcpp.a(xldtob.o)
                0x9d0035b8                _Ldtob

.text._Genld    0x9d003e78      0x5bc
 .text._Genld   0x9d003e78      0x5bc c:/program files (x86)/microchip/xc32/v2.15/bin/bin/../../lib/gcc/pic32mx/4.8.3/../../../../pic32mx/lib/fpu64\libxcpp.a(xgenld.o)
                0x9d003e78                _Genld

.text           0x9d004434      0x5a8
 .text          0x9d004434      0x5a8 c:/program files (x86)/microchip/xc32/v2.15/bin/bin/../../lib/gcc/pic32mx/4.8.3/fpu64\libgcc.a(unwind-sjlj.o)
                0x9d004694                _Unwind_SjLj_Register
                0x9d0046a8                _Unwind_SjLj_Unregister
                0x9d0046b8                _Unwind_GetGR
                0x9d0046d0                _Unwind_GetCFA
                0x9d0046ec                _Unwind_SetGR
                0x9d004704                _Unwind_GetIP
                0x9d004714                _Unwind_GetIPInfo
                0x9d004734                _Unwind_SetIP
                0x9d004744                _Unwind_GetLanguageSpecificData
                0x9d004750                _Unwind_GetRegionStart
                0x9d004758                _Unwind_FindEnclosingFunction
                0x9d004760                _Unwind_GetDataRelBase
                0x9d004768                _Unwind_GetTextRelBase
                0x9d004770                _Unwind_SjLj_RaiseException
                0x9d004858                _Unwind_SjLj_ForcedUnwind
                0x9d004898                _Unwind_SjLj_Resume
                0x9d0048e0                _Unwind_SjLj_Resume_or_Rethrow
                0x9d004920                _Unwind_DeleteException
                0x9d00494c                _Unwind_Backtrace

.text.DRV_USBHS_DEVICE_IRPSubmit
                0x9d0049dc      0x52c
 .text.DRV_USBHS_DEVICE_IRPSubmit
                0x9d0049dc      0x52c build/default/production/_ext/490896790/drv_usbhs_device.o
                0x9d0049dc                DRV_USBHS_DEVICE_IRPSubmit

.text._Printf   0x9d004f08      0x4f8
 .text._Printf  0x9d004f08      0x4f8 c:/program files (x86)/microchip/xc32/v2.15/bin/bin/../../lib/gcc/pic32mx/4.8.3/../../../../pic32mx/lib/fpu64\libxcpp.a(xprintf.o)
                0x9d004f08                _Printf

.text.main      0x9d005400      0x464
 .text.main     0x9d005400      0x464 build/default/production/_ext/1003616436/main.o
                0x9d005400                main

.text           0x9d005864      0x8bc
 .text          0x9d005864      0x464 c:/program files (x86)/microchip/xc32/v2.15/bin/bin/../../lib/gcc/pic32mx/4.8.3/fpu64\libgcc.a(_umoddi3.o)
                0x9d005864                __umoddi3
 .text          0x9d005cc8      0x458 c:/program files (x86)/microchip/xc32/v2.15/bin/bin/../../lib/gcc/pic32mx/4.8.3/fpu64\libgcc.a(_udivdi3.o)
                0x9d005cc8                __udivdi3

.text._LXp_addh
                0x9d006120      0x42c
 .text._LXp_addh
                0x9d006120      0x42c c:/program files (x86)/microchip/xc32/v2.15/bin/bin/../../lib/gcc/pic32mx/4.8.3/../../../../pic32mx/lib/fpu64\libxcpp.a(xlprec.o)
                0x9d006120                _LXp_addh

.text._DRV_USBHS_ProcessIRPFIFO
                0x9d00654c      0x424
 .text._DRV_USBHS_ProcessIRPFIFO
                0x9d00654c      0x424 build/default/production/_ext/490896790/drv_usbhs_device.o
                0x9d00654c                _DRV_USBHS_ProcessIRPFIFO

.text.DRV_USBHS_DEVICE_EndpointEnable
                0x9d006970      0x3cc
 .text.DRV_USBHS_DEVICE_EndpointEnable
                0x9d006970      0x3cc build/default/production/_ext/490896790/drv_usbhs_device.o
                0x9d006970                DRV_USBHS_DEVICE_EndpointEnable

.text._Puttxt   0x9d006d3c      0x33c
 .text._Puttxt  0x9d006d3c      0x33c c:/program files (x86)/microchip/xc32/v2.15/bin/bin/../../lib/gcc/pic32mx/4.8.3/../../../../pic32mx/lib/fpu64\libxcpp.a(xputtxt.o)
                0x9d006d3c                _Puttxt

.text._Dscale   0x9d007078      0x2dc
 .text._Dscale  0x9d007078      0x2dc c:/program files (x86)/microchip/xc32/v2.15/bin/bin/../../lib/gcc/pic32mx/4.8.3/../../../../pic32mx/lib/fpu64\libxcpp.a(xdscale.o)
                0x9d007078                _Dscale

.text._Wctombx  0x9d007354      0x2d8
 .text._Wctombx
                0x9d007354      0x2d8 c:/program files (x86)/microchip/xc32/v2.15/bin/bin/../../lib/gcc/pic32mx/4.8.3/../../../../pic32mx/lib/fpu64\libxcpp.a(xwctomb.o)
                0x9d007354                _Wctombx

.text._Litob    0x9d00762c      0x2bc
 .text._Litob   0x9d00762c      0x2bc c:/program files (x86)/microchip/xc32/v2.15/bin/bin/../../lib/gcc/pic32mx/4.8.3/../../../../pic32mx/lib/fpu64\libxcpp.a(xlitob.o)
                0x9d00762c                _Litob

.text._DRV_USBHS_DEVICE_Tasks_ISR_USBDMA
                0x9d0078e8      0x2a4
 .text._DRV_USBHS_DEVICE_Tasks_ISR_USBDMA
                0x9d0078e8      0x2a4 build/default/production/_ext/490896790/drv_usbhs_device.o
                0x9d0078e8                _DRV_USBHS_DEVICE_Tasks_ISR_USBDMA

.text.DRV_USBHS_Tasks
                0x9d007b8c      0x290
 .text.DRV_USBHS_Tasks
                0x9d007b8c      0x290 build/default/production/_ext/490896790/drv_usbhs.o
                0x9d007b8c                DRV_USBHS_Tasks

.text.DRV_USBHS_DEVICE_EndpointDisable
                0x9d007e1c      0x26c
 .text.DRV_USBHS_DEVICE_EndpointDisable
                0x9d007e1c      0x26c build/default/production/_ext/490896790/drv_usbhs_device.o
                0x9d007e1c                DRV_USBHS_DEVICE_EndpointDisable

.text           0x9d008088      0x258
 .text          0x9d008088      0x258 c:/program files (x86)/microchip/xc32/v2.15/bin/bin/../../lib/gcc/pic32mx/4.8.3/fpu64/crtbegin.o

.text._LXp_mulh
                0x9d0082e0      0x254
 .text._LXp_mulh
                0x9d0082e0      0x254 c:/program files (x86)/microchip/xc32/v2.15/bin/bin/../../lib/gcc/pic32mx/4.8.3/../../../../pic32mx/lib/fpu64\libxcpp.a(xlprec.o)
                0x9d0082e0                _LXp_mulh

.text._Mbtowcx  0x9d008534      0x254
 .text._Mbtowcx
                0x9d008534      0x254 c:/program files (x86)/microchip/xc32/v2.15/bin/bin/../../lib/gcc/pic32mx/4.8.3/../../../../pic32mx/lib/fpu64\libxcpp.a(xmbtowc.o)
                0x9d008534                _Mbtowcx

.rodata         0x9d008788      0x250
 .rodata        0x9d008788      0x250 build/default/production/_ext/1003616436/main.o

.text.DRV_USBHS_DEVICE_Detach
                0x9d0089d8      0x238
 .text.DRV_USBHS_DEVICE_Detach
                0x9d0089d8      0x238 build/default/production/_ext/490896790/drv_usbhs_device.o
                0x9d0089d8                DRV_USBHS_DEVICE_Detach

.text._Putstr   0x9d008c10      0x22c
 .text._Putstr  0x9d008c10      0x22c c:/program files (x86)/microchip/xc32/v2.15/bin/bin/../../lib/gcc/pic32mx/4.8.3/../../../../pic32mx/lib/fpu64\libxcpp.a(xputstr.o)
                0x9d008c10                _Putstr

.text._USB_DEVICE_Other_Speed_Descriptor_Request
                0x9d008e3c      0x224
 .text._USB_DEVICE_Other_Speed_Descriptor_Request
                0x9d008e3c      0x224 build/default/production/_ext/763370911/usb_device.o
                0x9d008e3c                _USB_DEVICE_Other_Speed_Descriptor_Request

.text.malloc    0x9d009060      0x220
 .text.malloc   0x9d009060      0x220 c:/program files (x86)/microchip/xc32/v2.15/bin/bin/../../lib/gcc/pic32mx/4.8.3/../../../../pic32mx/lib/fpu64\libxcpp.a(malloc.o)
                0x9d009060                malloc

.text._USB_DEVICE_EventHandler
                0x9d009280      0x21c
 .text._USB_DEVICE_EventHandler
                0x9d009280      0x21c build/default/production/_ext/763370911/usb_device.o
                0x9d009280                _USB_DEVICE_EventHandler

.text._USB_DEVICE_ProcessStandardDeviceSetRequests
                0x9d00949c      0x214
 .text._USB_DEVICE_ProcessStandardDeviceSetRequests
                0x9d00949c      0x214 build/default/production/_ext/763370911/usb_device.o
                0x9d00949c                _USB_DEVICE_ProcessStandardDeviceSetRequests

.text.DRV_USBHS_DEVICE_EndpointStall
                0x9d0096b0      0x20c
 .text.DRV_USBHS_DEVICE_EndpointStall
                0x9d0096b0      0x20c build/default/production/_ext/490896790/drv_usbhs_device.o
                0x9d0096b0                DRV_USBHS_DEVICE_EndpointStall

.text._USB_DEVICE_ProcessStandardDeviceGetRequests
                0x9d0098bc      0x204
 .text._USB_DEVICE_ProcessStandardDeviceGetRequests
                0x9d0098bc      0x204 build/default/production/_ext/763370911/usb_device.o
                0x9d0098bc                _USB_DEVICE_ProcessStandardDeviceGetRequests

.text._USB_DEVICE_ControlTransferHandler
                0x9d009ac0      0x204
 .text._USB_DEVICE_ControlTransferHandler
                0x9d009ac0      0x204 build/default/production/_ext/763370911/usb_device.o
                0x9d009ac0                _USB_DEVICE_ControlTransferHandler

.rodata         0x9d009cc4      0x204
 .rodata        0x9d009cc4      0x204 c:/program files (x86)/microchip/xc32/v2.15/bin/bin/../../lib/gcc/pic32mx/4.8.3/../../../../pic32mx/lib/fpu64\libxcpp.a(xctype.o)

.text.DRV_USBHS_DEVICE_EndpointStallClear
                0x9d009ec8      0x1dc
 .text.DRV_USBHS_DEVICE_EndpointStallClear
                0x9d009ec8      0x1dc build/default/production/_ext/490896790/drv_usbhs_device.o
                0x9d009ec8                DRV_USBHS_DEVICE_EndpointStallClear

.text.USB_DEVICE_CDC_Write
                0x9d00a0a4      0x1cc
 .text.USB_DEVICE_CDC_Write
                0x9d00a0a4      0x1cc build/default/production/_ext/763370911/usb_device_cdc.o
                0x9d00a0a4                USB_DEVICE_CDC_Write

.text.DRV_USBHS_DEVICE_IRPCancelAll
                0x9d00a270      0x1ac
 .text.DRV_USBHS_DEVICE_IRPCancelAll
                0x9d00a270      0x1ac build/default/production/_ext/490896790/drv_usbhs_device.o
                0x9d00a270                DRV_USBHS_DEVICE_IRPCancelAll

.text.USB_DEVICE_CDC_Read
                0x9d00a41c      0x1ac
 .text.USB_DEVICE_CDC_Read
                0x9d00a41c      0x1ac build/default/production/_ext/763370911/usb_device_cdc.o
                0x9d00a41c                USB_DEVICE_CDC_Read

.rodata         0x9d00a5c8      0x1a4
 .rodata        0x9d00a5c8      0x1a4 build/default/production/_ext/1160401513/usb_device_init_data.o
                0x9d00a5c8                usbDevInitData
                0x9d00a5fc                usbMasterDescriptor
                0x9d00a628                stringDescriptors
                0x9d00a634                sd002
                0x9d00a664                sd001
                0x9d00a698                sd000
                0x9d00a69c                fullSpeedConfigDescSet
                0x9d00a6a0                fullSpeedConfigurationDescriptor
                0x9d00a6e4                highSpeedConfigDescSet
                0x9d00a6e8                highSpeedConfigurationDescriptor
                0x9d00a72c                deviceQualifierDescriptor1
                0x9d00a738                deviceDescriptor
                0x9d00a74c                funcRegistrationTable
                0x9d00a760                cdcInit0

.text.USB_Handler
                0x9d00a76c      0x1a0
 .text.USB_Handler
                0x9d00a76c      0x1a0 build/default/production/_ext/1160401513/interrupts.o
                0x9d00a76c                USB_Handler

.text.USB_DMA_Handler
                0x9d00a90c      0x1a0
 .text.USB_DMA_Handler
                0x9d00a90c      0x1a0 build/default/production/_ext/1160401513/interrupts.o
                0x9d00a90c                USB_DMA_Handler

.text.UART6_FAULT_Handler
                0x9d00aaac      0x1a0
 .text.UART6_FAULT_Handler
                0x9d00aaac      0x1a0 build/default/production/_ext/1160401513/interrupts.o
                0x9d00aaac                UART6_FAULT_Handler

.text.UART6_RX_Handler
                0x9d00ac4c      0x1a0
 .text.UART6_RX_Handler
                0x9d00ac4c      0x1a0 build/default/production/_ext/1160401513/interrupts.o
                0x9d00ac4c                UART6_RX_Handler

.text.UART6_TX_Handler
                0x9d00adec      0x1a0
 .text.UART6_TX_Handler
                0x9d00adec      0x1a0 build/default/production/_ext/1160401513/interrupts.o
                0x9d00adec                UART6_TX_Handler

.text.fputs     0x9d00af8c      0x194
 .text.fputs    0x9d00af8c      0x194 c:/program files (x86)/microchip/xc32/v2.15/bin/bin/../../lib/gcc/pic32mx/4.8.3/../../../../pic32mx/lib/fpu64\libxcpp.a(fputs.o)
                0x9d00af8c                fputs

.text._sbrk_init
                0x9d00b120      0x194
 .text._sbrk_init
                0x9d00b120      0x194 c:/program files (x86)/microchip/xc32/v2.15/bin/bin/../../lib/gcc/pic32mx/4.8.3/../../../../pic32mx/lib/fpu64\libpic32.a(sbrk.o)
                0x9d00b120                _sbrk_init

.text._USB_DEVICE_Ep0ReceiveCompleteCallback
                0x9d00b2b4      0x184
 .text._USB_DEVICE_Ep0ReceiveCompleteCallback
                0x9d00b2b4      0x184 build/default/production/_ext/763370911/usb_device.o
                0x9d00b2b4                _USB_DEVICE_Ep0ReceiveCompleteCallback

.text._ZL28read_encoded_value_with_basehjPKhPj
                0x9d00b438      0x17c
 .text._ZL28read_encoded_value_with_basehjPKhPj
                0x9d00b438      0x17c c:/program files (x86)/microchip/xc32/v2.15/bin/bin/../../lib/gcc/pic32mx/4.8.3/../../../../pic32mx/lib/fpu64\libsupc++.a(eh_personality.o)

.text.USB_DEVICE_Tasks
                0x9d00b5b4      0x178
 .text.USB_DEVICE_Tasks
                0x9d00b5b4      0x178 build/default/production/_ext/763370911/usb_device.o
                0x9d00b5b4                USB_DEVICE_Tasks

.text._USB_DEVICE_CDC_ACMSetUpPacketHandler
                0x9d00b72c      0x170
 .text._USB_DEVICE_CDC_ACMSetUpPacketHandler
                0x9d00b72c      0x170 build/default/production/_ext/763370911/usb_device_cdc_acm.o
                0x9d00b72c                _USB_DEVICE_CDC_ACMSetUpPacketHandler

.text._LXp_mulx
                0x9d00b89c      0x170
 .text._LXp_mulx
                0x9d00b89c      0x170 c:/program files (x86)/microchip/xc32/v2.15/bin/bin/../../lib/gcc/pic32mx/4.8.3/../../../../pic32mx/lib/fpu64\libxcpp.a(xlprec.o)
                0x9d00b89c                _LXp_mulx

.text._ZNK10__cxxabiv120__si_class_type_info12__do_dyncastElNS_17__class_type_info10__sub_kindEPKS1_PKvS4_S6_RNS1_16__dyncast_resultE
                0x9d00ba0c      0x16c
 .text._ZNK10__cxxabiv120__si_class_type_info12__do_dyncastElNS_17__class_type_info10__sub_kindEPKS1_PKvS4_S6_RNS1_16__dyncast_resultE
                0x9d00ba0c      0x16c c:/program files (x86)/microchip/xc32/v2.15/bin/bin/../../lib/gcc/pic32mx/4.8.3/../../../../pic32mx/lib/fpu64\libsupc++.a(si_class_type_info.o)
                0x9d00ba0c                __cxxabiv1::__si_class_type_info::__do_dyncast(long, __cxxabiv1::__class_type_info::__sub_kind, __cxxabiv1::__class_type_info const*, void const*, __cxxabiv1::__class_type_info const*, void const*, __cxxabiv1::__class_type_info::__dyncast_result&) const

.text._Dnorm    0x9d00bb78      0x16c
 .text._Dnorm   0x9d00bb78      0x16c c:/program files (x86)/microchip/xc32/v2.15/bin/bin/../../lib/gcc/pic32mx/4.8.3/../../../../pic32mx/lib/fpu64\libxcpp.a(xdnorm.o)
                0x9d00bb78                _Dnorm

.text           0x9d00bce4      0x2d0
 .text          0x9d00bce4      0x168 c:/program files (x86)/microchip/xc32/v2.15/bin/bin/../../lib/gcc/pic32mx/4.8.3/../../../../pic32mx/lib/fpu64\libpic32.a(memcpy.o)
                0x9d00bce4                memcpy
 .text          0x9d00be4c      0x168 c:/program files (x86)/microchip/xc32/v2.15/bin/bin/../../lib/gcc/pic32mx/4.8.3/../../../../pic32mx/lib/fpu64\libpic32.a(strlen.o)
                0x9d00be4c                strlen

.text.DRV_USBHS_DEVICE_TestModeEnter
                0x9d00bfb4      0x164
 .text.DRV_USBHS_DEVICE_TestModeEnter
                0x9d00bfb4      0x164 build/default/production/_ext/490896790/drv_usbhs_device.o
                0x9d00bfb4                DRV_USBHS_DEVICE_TestModeEnter

.text._Dint     0x9d00c118      0x160
 .text._Dint    0x9d00c118      0x160 c:/program files (x86)/microchip/xc32/v2.15/bin/bin/../../lib/gcc/pic32mx/4.8.3/../../../../pic32mx/lib/fpu64\libxcpp.a(xdint.o)
                0x9d00c118                _Dint

.text.USB_DEVICE_Initialize
                0x9d00c278      0x15c
 .text.USB_DEVICE_Initialize
                0x9d00c278      0x15c build/default/production/_ext/763370911/usb_device.o
                0x9d00c278                USB_DEVICE_Initialize

.text.fflush    0x9d00c3d4      0x154
 .text.fflush   0x9d00c3d4      0x154 c:/program files (x86)/microchip/xc32/v2.15/bin/bin/../../lib/gcc/pic32mx/4.8.3/../../../../pic32mx/lib/fpu64\libxcpp.a(fflush.o)
                0x9d00c3d4                fflush

.text._Fwprep   0x9d00c528      0x150
 .text._Fwprep  0x9d00c528      0x150 c:/program files (x86)/microchip/xc32/v2.15/bin/bin/../../lib/gcc/pic32mx/4.8.3/../../../../pic32mx/lib/fpu64\libxcpp.a(xfwprep.o)
                0x9d00c528                _Fwprep

.text._LXp_setw
                0x9d00c678      0x150
 .text._LXp_setw
                0x9d00c678      0x150 c:/program files (x86)/microchip/xc32/v2.15/bin/bin/../../lib/gcc/pic32mx/4.8.3/../../../../pic32mx/lib/fpu64\libxcpp.a(xlprec.o)
                0x9d00c678                _LXp_setw

.text._USB_DEVICE_CDC_Initialization
                0x9d00c7c8      0x14c
 .text._USB_DEVICE_CDC_Initialization
                0x9d00c7c8      0x14c build/default/production/_ext/763370911/usb_device_cdc.o
                0x9d00c7c8                _USB_DEVICE_CDC_Initialization

.text._DRV_USBHS_DEVICE_FIFOAllocate
                0x9d00c914      0x13c
 .text._DRV_USBHS_DEVICE_FIFOAllocate
                0x9d00c914      0x13c build/default/production/_ext/490896790/drv_usbhs_device.o
                0x9d00c914                _DRV_USBHS_DEVICE_FIFOAllocate

.text._ZL17parse_lsda_headerP15_Unwind_ContextPKhP16lsda_header_info
                0x9d00ca50      0x12c
 .text._ZL17parse_lsda_headerP15_Unwind_ContextPKhP16lsda_header_info
                0x9d00ca50      0x12c c:/program files (x86)/microchip/xc32/v2.15/bin/bin/../../lib/gcc/pic32mx/4.8.3/../../../../pic32mx/lib/fpu64\libsupc++.a(eh_personality.o)

.text           0x9d00cb7c      0x120
 .text          0x9d00cb7c      0x120 c:/program files (x86)/microchip/xc32/v2.15/bin/bin/../../lib/gcc/pic32mx/4.8.3/../../../../pic32mx/lib/fpu64\libpic32.a(strcmp.o)
                0x9d00cb7c                strcmp

.text._ZN7USB_CDC16_CDCEventHandlerEj20USB_DEVICE_CDC_EVENTPvj
                0x9d00cc9c      0x114
 .text._ZN7USB_CDC16_CDCEventHandlerEj20USB_DEVICE_CDC_EVENTPvj
                0x9d00cc9c      0x114 build/default/production/_ext/1003616436/usb_com_port.o
                0x9d00cc9c                USB_CDC::_CDCEventHandler(unsigned int, USB_DEVICE_CDC_EVENT, void*, unsigned int)

.text           0x9d00cdb0      0x10c
 .text          0x9d00cdb0      0x10c c:/program files (x86)/microchip/xc32/v2.15/bin/bin/../../lib/gcc/pic32mx/4.8.3/../../../../pic32mx/lib/fpu64\libxcpp.a(fesetenv.o)
                0x9d00cdb0                _Force_raise
                0x9d00ce8c                fesetenv

.text._Atrealloc
                0x9d00cebc      0x108
 .text._Atrealloc
                0x9d00cebc      0x108 c:/program files (x86)/microchip/xc32/v2.15/bin/bin/../../lib/gcc/pic32mx/4.8.3/../../../../pic32mx/lib/fpu64\libxcpp.a(exit.o)
                0x9d00cebc                _Atrealloc

.text._USB_DEVICE_ConfigureDevice
                0x9d00cfc4      0x100
 .text._USB_DEVICE_ConfigureDevice
                0x9d00cfc4      0x100 build/default/production/_ext/763370911/usb_device.o
                0x9d00cfc4                _USB_DEVICE_ConfigureDevice

.text._USB_DEVICE_ProcessStandardEndpointRequest
                0x9d00d0c4      0x100
 .text._USB_DEVICE_ProcessStandardEndpointRequest
                0x9d00d0c4      0x100 build/default/production/_ext/763370911/usb_device.o
                0x9d00d0c4                _USB_DEVICE_ProcessStandardEndpointRequest

.text._Wctomb   0x9d00d1c4       0xfc
 .text._Wctomb  0x9d00d1c4       0xfc c:/program files (x86)/microchip/xc32/v2.15/bin/bin/../../lib/gcc/pic32mx/4.8.3/../../../../pic32mx/lib/fpu64\libxcpp.a(xwctomb.o)
                0x9d00d1c4                _Wctomb

.text._USB_DEVICE_CDC_ControlTransferHandler
                0x9d00d2c0       0xf8
 .text._USB_DEVICE_CDC_ControlTransferHandler
                0x9d00d2c0       0xf8 build/default/production/_ext/763370911/usb_device_cdc.o
                0x9d00d2c0                _USB_DEVICE_CDC_ControlTransferHandler

.text.UART6_RX_InterruptHandler
                0x9d00d3b8       0xf4
 .text.UART6_RX_InterruptHandler
                0x9d00d3b8       0xf4 build/default/production/_ext/301408759/plib_uart6.o
                0x9d00d3b8                UART6_RX_InterruptHandler

.text.fclose    0x9d00d4ac       0xf4
 .text.fclose   0x9d00d4ac       0xf4 c:/program files (x86)/microchip/xc32/v2.15/bin/bin/../../lib/gcc/pic32mx/4.8.3/../../../../pic32mx/lib/fpu64\libxcpp.a(fclose.o)
                0x9d00d4ac                fclose

.text.free      0x9d000010       0xe8
 .text.free     0x9d000010       0xe8 c:/program files (x86)/microchip/xc32/v2.15/bin/bin/../../lib/gcc/pic32mx/4.8.3/../../../../pic32mx/lib/fpu64\libxcpp.a(free.o)
                0x9d000010                free

.text._Dunscale
                0x9d00d5a0       0xe4
 .text._Dunscale
                0x9d00d5a0       0xe4 c:/program files (x86)/microchip/xc32/v2.15/bin/bin/../../lib/gcc/pic32mx/4.8.3/../../../../pic32mx/lib/fpu64\libxcpp.a(xdunscal.o)
                0x9d00d5a0                _Dunscale

.text._ZNK10__cxxabiv117__class_type_info10__do_catchEPKSt9type_infoPPvj
                0x9d00d684       0xe0
 .text._ZNK10__cxxabiv117__class_type_info10__do_catchEPKSt9type_infoPPvj
                0x9d00d684       0xe0 c:/program files (x86)/microchip/xc32/v2.15/bin/bin/../../lib/gcc/pic32mx/4.8.3/../../../../pic32mx/lib/fpu64\libsupc++.a(class_type_info.o)
                0x9d00d684                __cxxabiv1::__class_type_info::__do_catch(std::type_info const*, void**, unsigned int) const

.text.general_exception
                0x9d00d764       0xdc
 .text.general_exception
                0x9d00d764       0xdc c:/program files (x86)/microchip/xc32/v2.15/bin/bin/../../lib/gcc/pic32mx/4.8.3/../../../../pic32mx/lib/fpu64\libpic32.a(general-exception.o)
                0x9d00d764                _general_exception_context

.text.UART6_TX_InterruptHandler
                0x9d00d840       0xd8
 .text.UART6_TX_InterruptHandler
                0x9d00d840       0xd8 build/default/production/_ext/301408759/plib_uart6.o
                0x9d00d840                UART6_TX_InterruptHandler

.text._cache_err_exception_context
                0x9d00d918       0xd8
 .text._cache_err_exception_context
                0x9d00d918       0xd8 c:/program files (x86)/microchip/xc32/v2.15/bin/bin/../../lib/gcc/pic32mx/4.8.3/../../../../pic32mx/lib/fpu64\libpic32.a(cache-err-exception.o)
                0x9d00d918                _cache_err_exception_context

.text.simple_tlb_refill_context
                0x9d00d9f0       0xd8
 .text.simple_tlb_refill_context
                0x9d00d9f0       0xd8 c:/program files (x86)/microchip/xc32/v2.15/bin/bin/../../lib/gcc/pic32mx/4.8.3/../../../../pic32mx/lib/fpu64\libpic32.a(simple-tlb-refill-exception.o)
                0x9d00d9f0                _simple_tlb_refill_exception_context

.text._ZNK10__cxxabiv117__class_type_info12__do_dyncastElNS0_10__sub_kindEPKS0_PKvS3_S5_RNS0_16__dyncast_resultE
                0x9d00dac8       0xd4
 .text._ZNK10__cxxabiv117__class_type_info12__do_dyncastElNS0_10__sub_kindEPKS0_PKvS3_S5_RNS0_16__dyncast_resultE
                0x9d00dac8       0xd4 c:/program files (x86)/microchip/xc32/v2.15/bin/bin/../../lib/gcc/pic32mx/4.8.3/../../../../pic32mx/lib/fpu64\libsupc++.a(class_type_info.o)
                0x9d00dac8                __cxxabiv1::__class_type_info::__do_dyncast(long, __cxxabiv1::__class_type_info::__sub_kind, __cxxabiv1::__class_type_info const*, void const*, __cxxabiv1::__class_type_info const*, void const*, __cxxabiv1::__class_type_info::__dyncast_result&) const

.text._USB_DEVICE_GetStringDescriptorRequestProcess
                0x9d00db9c       0xd0
 .text._USB_DEVICE_GetStringDescriptorRequestProcess
                0x9d00db9c       0xd0 build/default/production/_ext/763370911/usb_device.o
                0x9d00db9c                _USB_DEVICE_GetStringDescriptorRequestProcess

.text._ZN7USB_CDC7startupEjb
                0x9d00dc6c       0xd0
 .text._ZN7USB_CDC7startupEjb
                0x9d00dc6c       0xd0 build/default/production/_ext/1003616436/usb_com_port.o
                0x9d00dc6c                USB_CDC::startup(unsigned int, bool)

.text.__cxa_end_catch
                0x9d00dd3c       0xd0
 .text.__cxa_end_catch
                0x9d00dd3c       0xd0 c:/program files (x86)/microchip/xc32/v2.15/bin/bin/../../lib/gcc/pic32mx/4.8.3/../../../../pic32mx/lib/fpu64\libsupc++.a(eh_catch.o)
                0x9d00dd3c                __cxa_end_catch

.text.SYS_Initialize
                0x9d00de0c       0xcc
 .text.SYS_Initialize
                0x9d00de0c       0xcc build/default/production/_ext/1160401513/initialization.o
                0x9d00de0c                SYS_Initialize

.text.fputc     0x9d00ded8       0xcc
 .text.fputc    0x9d00ded8       0xcc c:/program files (x86)/microchip/xc32/v2.15/bin/bin/../../lib/gcc/pic32mx/4.8.3/../../../../pic32mx/lib/fpu64\libxcpp.a(fputc.o)
                0x9d00ded8                fputc

.text._DRV_USBHS_DEVICE_FIFOFree
                0x9d00dfa4       0xc8
 .text._DRV_USBHS_DEVICE_FIFOFree
                0x9d00dfa4       0xc8 build/default/production/_ext/490896790/drv_usbhs_device.o
                0x9d00dfa4                _DRV_USBHS_DEVICE_FIFOFree

.text.exit      0x9d00e06c       0xc8
 .text.exit     0x9d00e06c       0xc8 c:/program files (x86)/microchip/xc32/v2.15/bin/bin/../../lib/gcc/pic32mx/4.8.3/../../../../pic32mx/lib/fpu64\libxcpp.a(exit.o)
                0x9d00e06c                exit

.text._sbrk     0x9d00e134       0xc8
 .text._sbrk    0x9d00e134       0xc8 c:/program files (x86)/microchip/xc32/v2.15/bin/bin/../../lib/gcc/pic32mx/4.8.3/../../../../pic32mx/lib/fpu64\libpic32.a(sbrk.o)
                0x9d00e134                _sbrk

.text.GPIO_Initialize
                0x9d00e1fc       0xc4
 .text.GPIO_Initialize
                0x9d00e1fc       0xc4 build/default/production/_ext/301811702/plib_gpio.o
                0x9d00e1fc                GPIO_Initialize

.text.__cxa_begin_catch
                0x9d00e2c0       0xc4
 .text.__cxa_begin_catch
                0x9d00e2c0       0xc4 c:/program files (x86)/microchip/xc32/v2.15/bin/bin/../../lib/gcc/pic32mx/4.8.3/../../../../pic32mx/lib/fpu64\libsupc++.a(eh_catch.o)
                0x9d00e2c0                __cxa_begin_catch

.text._USB_DEVICE_Ep0TransmitCompleteCallback
                0x9d00e384       0xc0
 .text._USB_DEVICE_Ep0TransmitCompleteCallback
                0x9d00e384       0xc0 build/default/production/_ext/763370911/usb_device.o
                0x9d00e384                _USB_DEVICE_Ep0TransmitCompleteCallback

.tlb.__pic32_tlb_init_ebi_sqi
                0x9d00e444       0xbc
 .tlb.__pic32_tlb_init_ebi_sqi
                0x9d00e444       0xbc c:/program files (x86)/microchip/xc32/v2.15/bin/bin/../../lib/gcc/pic32mx/4.8.3/../../../../pic32mx/lib/fpu64\libpic32.a(pic32_init_tlb_ebi_sqi.o)
                0x9d00e444                __pic32_tlb_init_ebi_sqi

.text._LXp_addx
                0x9d00e500       0xbc
 .text._LXp_addx
                0x9d00e500       0xbc c:/program files (x86)/microchip/xc32/v2.15/bin/bin/../../lib/gcc/pic32mx/4.8.3/../../../../pic32mx/lib/fpu64\libxcpp.a(xlprec.o)
                0x9d00e500                _LXp_addx

.text.DRV_USBHS_Initialize
                0x9d00e5bc       0xb8
 .text.DRV_USBHS_Initialize
                0x9d00e5bc       0xb8 build/default/production/_ext/490896790/drv_usbhs.o
                0x9d00e5bc                DRV_USBHS_Initialize

.text.DRV_USBHS_Open
                0x9d00e674       0xb8
 .text.DRV_USBHS_Open
                0x9d00e674       0xb8 build/default/production/_ext/490896790/drv_usbhs.o
                0x9d00e674                DRV_USBHS_Open

.text._ZSt14_Xlength_errorPKc
                0x9d00e72c       0xb8
 .text._ZSt14_Xlength_errorPKc
                0x9d00e72c       0xb8 c:/program files (x86)/microchip/xc32/v2.15/bin/bin/../../lib/gcc/pic32mx/4.8.3/../../../../pic32mx/lib/fpu64\libxcpp.a(xthrow.o)
                0x9d00e72c                std::_Xlength_error(char const*)

.text._ZSt14_Xout_of_rangePKc
                0x9d00e7e4       0xb8
 .text._ZSt14_Xout_of_rangePKc
                0x9d00e7e4       0xb8 c:/program files (x86)/microchip/xc32/v2.15/bin/bin/../../lib/gcc/pic32mx/4.8.3/../../../../pic32mx/lib/fpu64\libxcpp.a(xthrow.o)
                0x9d00e7e4                std::_Xout_of_range(char const*)

.text._Fail_s   0x9d00e89c       0xb0
 .text._Fail_s  0x9d00e89c       0xb0 c:/program files (x86)/microchip/xc32/v2.15/bin/bin/../../lib/gcc/pic32mx/4.8.3/../../../../pic32mx/lib/fpu64\libxcpp.a(xfail_s.o)
                0x9d00e89c                _Fail_s

.text.UART6_Write
                0x9d00e94c       0xac
 .text.UART6_Write
                0x9d00e94c       0xac build/default/production/_ext/301408759/plib_uart6.o
                0x9d00e94c                UART6_Write

.text._ZL20check_exception_specP16lsda_header_infoPKSt9type_infoPvl
                0x9d00e9f8       0xac
 .text._ZL20check_exception_specP16lsda_header_infoPKSt9type_infoPvl
                0x9d00e9f8       0xac c:/program files (x86)/microchip/xc32/v2.15/bin/bin/../../lib/gcc/pic32mx/4.8.3/../../../../pic32mx/lib/fpu64\libsupc++.a(eh_personality.o)

.text.DRV_USBHS_ClientEventCallBackSet
                0x9d00eaa4       0xa8
 .text.DRV_USBHS_ClientEventCallBackSet
                0x9d00eaa4       0xa8 build/default/production/_ext/490896790/drv_usbhs.o
                0x9d00eaa4                DRV_USBHS_ClientEventCallBackSet

.text._USB_DEVICE_DeInitializeAllFunctionDrivers
                0x9d00eb4c       0xa8
 .text._USB_DEVICE_DeInitializeAllFunctionDrivers
                0x9d00eb4c       0xa8 build/default/production/_ext/763370911/usb_device.o
                0x9d00eb4c                _USB_DEVICE_DeInitializeAllFunctionDrivers

.text._ZL21size_of_encoded_valueh
                0x9d00ebf4       0xa8
 .text._ZL21size_of_encoded_valueh
                0x9d00ebf4       0xa8 c:/program files (x86)/microchip/xc32/v2.15/bin/bin/../../lib/gcc/pic32mx/4.8.3/../../../../pic32mx/lib/fpu64\libsupc++.a(eh_personality.o)

.text           0x9d00ec9c       0xa8
 .text          0x9d00ec9c       0xa8 c:/program files (x86)/microchip/xc32/v2.15/bin/bin/../../lib/gcc/pic32mx/4.8.3/../../../../pic32mx/lib/fpu64\libpic32.a(memset.o)
                0x9d00ec9c                memset

.text._ZN7USB_CDC19_deviceEventHandlerE16USB_DEVICE_EVENTPvj
                0x9d00ed44       0xa4
 .text._ZN7USB_CDC19_deviceEventHandlerE16USB_DEVICE_EVENTPvj
                0x9d00ed44       0xa4 build/default/production/_ext/1003616436/usb_com_port.o
                0x9d00ed44                USB_CDC::_deviceEventHandler(USB_DEVICE_EVENT, void*, unsigned int)

.text.__cxa_allocate_exception
                0x9d00ede8       0xa4
 .text.__cxa_allocate_exception
                0x9d00ede8       0xa4 c:/program files (x86)/microchip/xc32/v2.15/bin/bin/../../lib/gcc/pic32mx/4.8.3/../../../../pic32mx/lib/fpu64\libsupc++.a(eh_alloc.o)
                0x9d00ede8                __cxa_allocate_exception

.text._ZL21base_of_encoded_valuehP15_Unwind_Context
                0x9d00ee8c       0xa4
 .text._ZL21base_of_encoded_valuehP15_Unwind_Context
                0x9d00ee8c       0xa4 c:/program files (x86)/microchip/xc32/v2.15/bin/bin/../../lib/gcc/pic32mx/4.8.3/../../../../pic32mx/lib/fpu64\libsupc++.a(eh_personality.o)

.text._Fofree   0x9d00ef30       0xa4
 .text._Fofree  0x9d00ef30       0xa4 c:/program files (x86)/microchip/xc32/v2.15/bin/bin/../../lib/gcc/pic32mx/4.8.3/../../../../pic32mx/lib/fpu64\libxcpp.a(xfofind.o)
                0x9d00ef30                _Fofree

.text._USB_DEVICE_CDC_ReadIRPCallback
                0x9d00efd4       0xa0
 .text._USB_DEVICE_CDC_ReadIRPCallback
                0x9d00efd4       0xa0 build/default/production/_ext/763370911/usb_device_cdc.o
                0x9d00efd4                _USB_DEVICE_CDC_ReadIRPCallback

.text._USB_DEVICE_CDC_WriteIRPCallback
                0x9d00f074       0xa0
 .text._USB_DEVICE_CDC_WriteIRPCallback
                0x9d00f074       0xa0 build/default/production/_ext/763370911/usb_device_cdc.o
                0x9d00f074                _USB_DEVICE_CDC_WriteIRPCallback

.text._Z14UART6_TxStringPKcz
                0x9d00f114       0xa0
 .text._Z14UART6_TxStringPKcz
                0x9d00f114       0xa0 build/default/production/_ext/1003616436/main.o
                0x9d00f114                UART6_TxString(char const*, ...)

.text           0x9d00f1b4       0xa0
 .text          0x9d00f1b4       0xa0 c:/program files (x86)/microchip/xc32/v2.15/bin/bin/../../lib/gcc/pic32mx/4.8.3/../../../../pic32mx/lib/fpu64\libxcpp.a(feraiseexcept.o)
                0x9d00f1b4                feraiseexcept

.text.DRV_USBHS_Tasks_ISR
                0x9d00f254       0x9c
 .text.DRV_USBHS_Tasks_ISR
                0x9d00f254       0x9c build/default/production/_ext/490896790/drv_usbhs.o
                0x9d00f254                DRV_USBHS_Tasks_ISR

.text._USB_DEVICE_ForwardControlXfrToFunction
                0x9d00f2f0       0x9c
 .text._USB_DEVICE_ForwardControlXfrToFunction
                0x9d00f2f0       0x9c build/default/production/_ext/763370911/usb_device.o
                0x9d00f2f0                _USB_DEVICE_ForwardControlXfrToFunction

.text.__cxa_throw
                0x9d00f38c       0x9c
 .text.__cxa_throw
                0x9d00f38c       0x9c c:/program files (x86)/microchip/xc32/v2.15/bin/bin/../../lib/gcc/pic32mx/4.8.3/../../../../pic32mx/lib/fpu64\libsupc++.a(eh_throw.o)
                0x9d00f38c                __cxa_throw

.text._Atexit   0x9d00f428       0x9c
 .text._Atexit  0x9d00f428       0x9c c:/program files (x86)/microchip/xc32/v2.15/bin/bin/../../lib/gcc/pic32mx/4.8.3/../../../../pic32mx/lib/fpu64\libxcpp.a(xatexit.o)
                0x9d00f428                _Atexit

.text.write     0x9d00f4c4       0x9c
 .text.write    0x9d00f4c4       0x9c c:/program files (x86)/microchip/xc32/v2.15/bin/bin/../../lib/gcc/pic32mx/4.8.3/../../../../pic32mx/lib/fpu64\libpic32.a(write.o)
                0x9d00f4c4                write

.text.CLK_Initialize
                0x9d00f560       0x94
 .text.CLK_Initialize
                0x9d00f560       0x94 build/default/production/_ext/2068470151/plib_clk.o
                0x9d00f560                CLK_Initialize

.text._ZNK10__cxxabiv120__si_class_type_info20__do_find_public_srcElPKvPKNS_17__class_type_infoES2_
                0x9d00f5f4       0x94
 .text._ZNK10__cxxabiv120__si_class_type_info20__do_find_public_srcElPKvPKNS_17__class_type_infoES2_
                0x9d00f5f4       0x94 c:/program files (x86)/microchip/xc32/v2.15/bin/bin/../../lib/gcc/pic32mx/4.8.3/../../../../pic32mx/lib/fpu64\libsupc++.a(si_class_type_info.o)
                0x9d00f5f4                __cxxabiv1::__si_class_type_info::__do_find_public_src(long, void const*, __cxxabiv1::__class_type_info const*, void const*) const

.text.DRV_USBHS_Tasks_ISR_USBDMA
                0x9d00f688       0x90
 .text.DRV_USBHS_Tasks_ISR_USBDMA
                0x9d00f688       0x90 build/default/production/_ext/490896790/drv_usbhs.o
                0x9d00f688                DRV_USBHS_Tasks_ISR_USBDMA

.text._DRV_USBHS_DEVICE_AttachStateMachine
                0x9d00f718       0x8c
 .text._DRV_USBHS_DEVICE_AttachStateMachine
                0x9d00f718       0x8c build/default/production/_ext/490896790/drv_usbhs_device.o
                0x9d00f718                _DRV_USBHS_DEVICE_AttachStateMachine

.text.__cxa_rethrow
                0x9d00f7a4       0x8c
 .text.__cxa_rethrow
                0x9d00f7a4       0x8c c:/program files (x86)/microchip/xc32/v2.15/bin/bin/../../lib/gcc/pic32mx/4.8.3/../../../../pic32mx/lib/fpu64\libsupc++.a(eh_throw.o)
                0x9d00f7a4                __cxa_rethrow

.text._Znwm     0x9d00f830       0x8c
 .text._Znwm    0x9d00f830       0x8c c:/program files (x86)/microchip/xc32/v2.15/bin/bin/../../lib/gcc/pic32mx/4.8.3/../../../../pic32mx/lib/fpu64\libsupc++.a(new_op.o)
                0x9d00f830                operator new(unsigned long)

.text.UART6_ErrorGet
                0x9d00f8bc       0x88
 .text.UART6_ErrorGet
                0x9d00f8bc       0x88 build/default/production/_ext/301408759/plib_uart6.o
                0x9d00f8bc                UART6_ErrorGet

.text._Dtest    0x9d00f944       0x88
 .text._Dtest   0x9d00f944       0x88 c:/program files (x86)/microchip/xc32/v2.15/bin/bin/../../lib/gcc/pic32mx/4.8.3/../../../../pic32mx/lib/fpu64\libxcpp.a(xdtest.o)
                0x9d00f944                _Dtest

.text.UART6_Initialize
                0x9d00f9cc       0x84
 .text.UART6_Initialize
                0x9d00f9cc       0x84 build/default/production/_ext/301408759/plib_uart6.o
                0x9d00f9cc                UART6_Initialize

.text._USB_DEVICE_GetFunctionDriverEntryByInterface
                0x9d00fa50       0x84
 .text._USB_DEVICE_GetFunctionDriverEntryByInterface
                0x9d00fa50       0x84 build/default/production/_ext/763370911/usb_device.o
                0x9d00fa50                _USB_DEVICE_GetFunctionDriverEntryByInterface

.text._USB_DEVICE_FindEndpoint
                0x9d00fad4       0x84
 .text._USB_DEVICE_FindEndpoint
                0x9d00fad4       0x84 build/default/production/_ext/763370911/usb_device.o
                0x9d00fad4                _USB_DEVICE_FindEndpoint

.text.USB_DEVICE_ControlSend
                0x9d00fb58       0x84
 .text.USB_DEVICE_ControlSend
                0x9d00fb58       0x84 build/default/production/_ext/763370911/usb_device.o
                0x9d00fb58                USB_DEVICE_ControlSend

.text._ZNK10__cxxabiv117__class_type_info11__do_upcastEPKS0_PKvRNS0_15__upcast_resultE
                0x9d00fbdc       0x84
 .text._ZNK10__cxxabiv117__class_type_info11__do_upcastEPKS0_PKvRNS0_15__upcast_resultE
                0x9d00fbdc       0x84 c:/program files (x86)/microchip/xc32/v2.15/bin/bin/../../lib/gcc/pic32mx/4.8.3/../../../../pic32mx/lib/fpu64\libsupc++.a(class_type_info.o)
                0x9d00fbdc                __cxxabiv1::__class_type_info::__do_upcast(__cxxabiv1::__class_type_info const*, void const*, __cxxabiv1::__class_type_info::__upcast_result&) const

.text           0x9d00fc60       0x84
 .text          0x9d00fc60       0x84 c:/program files (x86)/microchip/xc32/v2.15/bin/bin/../../lib/gcc/pic32mx/4.8.3/../../../../pic32mx/lib/fpu64\libpic32.a(pic32_data_init.o)
                0x9d00fc60                __pic32_data_init

.text.UART6_Read
                0x9d00fce4       0x80
 .text.UART6_Read
                0x9d00fce4       0x80 build/default/production/_ext/301408759/plib_uart6.o
                0x9d00fce4                UART6_Read

.text._ZL16get_adjusted_ptrPKSt9type_infoS1_PPv
                0x9d00fd64       0x80
 .text._ZL16get_adjusted_ptrPKSt9type_infoS1_PPv
                0x9d00fd64       0x80 c:/program files (x86)/microchip/xc32/v2.15/bin/bin/../../lib/gcc/pic32mx/4.8.3/../../../../pic32mx/lib/fpu64\libsupc++.a(eh_personality.o)

.text.USB_DEVICE_ControlStatus
                0x9d00fde4       0x7c
 .text.USB_DEVICE_ControlStatus
                0x9d00fde4       0x7c build/default/production/_ext/763370911/usb_device.o
                0x9d00fde4                USB_DEVICE_ControlStatus

.text._ZN10__cxxabiv111__terminateEPFvvE
                0x9d00fe60       0x74
 .text._ZN10__cxxabiv111__terminateEPFvvE
                0x9d00fe60       0x74 c:/program files (x86)/microchip/xc32/v2.15/bin/bin/../../lib/gcc/pic32mx/4.8.3/../../../../pic32mx/lib/fpu64\libsupc++.a(eh_terminate.o)
                0x9d00fe60                __cxxabiv1::__terminate(void (*)())

.text._ZL23__gxx_exception_cleanup19_Unwind_Reason_CodeP17_Unwind_Exception
                0x9d000110       0x70
 .text._ZL23__gxx_exception_cleanup19_Unwind_Reason_CodeP17_Unwind_Exception
                0x9d000110       0x70 c:/program files (x86)/microchip/xc32/v2.15/bin/bin/../../lib/gcc/pic32mx/4.8.3/../../../../pic32mx/lib/fpu64\libsupc++.a(eh_throw.o)

.text._USB_DEVICE_CDC_Deinitialization
                0x9d000190       0x6c
 .text._USB_DEVICE_CDC_Deinitialization
                0x9d000190       0x6c build/default/production/_ext/763370911/usb_device_cdc.o
                0x9d000190                _USB_DEVICE_CDC_Deinitialization

.text.APP_Initialize
                0x9d00fed4       0x6c
 .text.APP_Initialize
                0x9d00fed4       0x6c build/default/production/_ext/1003616436/app.o
                0x9d00fed4                APP_Initialize

.text._Z16LED_RGB_setColorttt
                0x9d00ff40       0x6c
 .text._Z16LED_RGB_setColorttt
                0x9d00ff40       0x6c build/default/production/_ext/1003616436/main.o
                0x9d00ff40                LED_RGB_setColor(unsigned short, unsigned short, unsigned short)

.text.__cxa_free_exception
                0x9d00ffac       0x6c
 .text.__cxa_free_exception
                0x9d00ffac       0x6c c:/program files (x86)/microchip/xc32/v2.15/bin/bin/../../lib/gcc/pic32mx/4.8.3/../../../../pic32mx/lib/fpu64\libsupc++.a(eh_alloc.o)
                0x9d00ffac                __cxa_free_exception

.text._ZNK10__cxxabiv120__si_class_type_info11__do_upcastEPKNS_17__class_type_infoEPKvRNS1_15__upcast_resultE
                0x9d010018       0x6c
 .text._ZNK10__cxxabiv120__si_class_type_info11__do_upcastEPKNS_17__class_type_infoEPKvRNS1_15__upcast_resultE
                0x9d010018       0x6c c:/program files (x86)/microchip/xc32/v2.15/bin/bin/../../lib/gcc/pic32mx/4.8.3/../../../../pic32mx/lib/fpu64\libsupc++.a(si_class_type_info.o)
                0x9d010018                __cxxabiv1::__si_class_type_info::__do_upcast(__cxxabiv1::__class_type_info const*, void const*, __cxxabiv1::__class_type_info::__upcast_result&) const

.text.memmove   0x9d010084       0x6c
 .text.memmove  0x9d010084       0x6c c:/program files (x86)/microchip/xc32/v2.15/bin/bin/../../lib/gcc/pic32mx/4.8.3/../../../../pic32mx/lib/fpu64\libxcpp.a(memmove.o)
                0x9d010084                memmove

.text._Feraise  0x9d0100f0       0x6c
 .text._Feraise
                0x9d0100f0       0x6c c:/program files (x86)/microchip/xc32/v2.15/bin/bin/../../lib/gcc/pic32mx/4.8.3/../../../../pic32mx/lib/fpu64\libxcpp.a(xferaise.o)
                0x9d0100f0                _Feraise

.text._ZNK10__cxxabiv117__class_type_info11__do_upcastEPKS0_PPv
                0x9d01015c       0x68
 .text._ZNK10__cxxabiv117__class_type_info11__do_upcastEPKS0_PPv
                0x9d01015c       0x68 c:/program files (x86)/microchip/xc32/v2.15/bin/bin/../../lib/gcc/pic32mx/4.8.3/../../../../pic32mx/lib/fpu64\libsupc++.a(class_type_info.o)
                0x9d01015c                __cxxabiv1::__class_type_info::__do_upcast(__cxxabiv1::__class_type_info const*, void**) const

.rodata         0x9d0101c4       0x68
 .rodata        0x9d0101c4       0x68 c:/program files (x86)/microchip/xc32/v2.15/bin/bin/../../lib/gcc/pic32mx/4.8.3/../../../../pic32mx/lib/fpu64\libxcpp.a(xputfld.o)

.text.closeall  0x9d01022c       0x68
 .text.closeall
                0x9d01022c       0x68 c:/program files (x86)/microchip/xc32/v2.15/bin/bin/../../lib/gcc/pic32mx/4.8.3/../../../../pic32mx/lib/fpu64\libxcpp.a(fclose.o)

.text._DRV_USBHS_DEVICE_IRPQueueFlush
                0x9d010294       0x64
 .text._DRV_USBHS_DEVICE_IRPQueueFlush
                0x9d010294       0x64 build/default/production/_ext/490896790/drv_usbhs_device.o
                0x9d010294                _DRV_USBHS_DEVICE_IRPQueueFlush

.text._DRV_USBHS_DEVICE_Get_FreeDMAChannel
                0x9d0102f8       0x64
 .text._DRV_USBHS_DEVICE_Get_FreeDMAChannel
                0x9d0102f8       0x64 build/default/production/_ext/490896790/drv_usbhs_device.o
                0x9d0102f8                _DRV_USBHS_DEVICE_Get_FreeDMAChannel

.text._ZN7USB_CDC10openDeviceEv
                0x9d01035c       0x64
 .text._ZN7USB_CDC10openDeviceEv
                0x9d01035c       0x64 build/default/production/_ext/1003616436/usb_com_port.o
                0x9d01035c                USB_CDC::openDevice()

.text.__cxa_call_terminate
                0x9d0103c0       0x64
 .text.__cxa_call_terminate
                0x9d0103c0       0x64 c:/program files (x86)/microchip/xc32/v2.15/bin/bin/../../lib/gcc/pic32mx/4.8.3/../../../../pic32mx/lib/fpu64\libsupc++.a(eh_call.o)
                0x9d0103c0                __cxa_call_terminate

.text.prout     0x9d010424       0x64
 .text.prout    0x9d010424       0x64 c:/program files (x86)/microchip/xc32/v2.15/bin/bin/../../lib/gcc/pic32mx/4.8.3/../../../../pic32mx/lib/fpu64\libxcpp.a(vsnprint.o)

.text._ZL15get_ttype_entryP16lsda_header_infom
                0x9d010488       0x60
 .text._ZL15get_ttype_entryP16lsda_header_infom
                0x9d010488       0x60 c:/program files (x86)/microchip/xc32/v2.15/bin/bin/../../lib/gcc/pic32mx/4.8.3/../../../../pic32mx/lib/fpu64\libsupc++.a(eh_personality.o)

.text.CORETIMER_Start
                0x9d0104e8       0x5c
 .text.CORETIMER_Start
                0x9d0104e8       0x5c build/default/production/_ext/1465287765/plib_coretimer.o
                0x9d0104e8                CORETIMER_Start

.text.USB_DEVICE_EndpointEnable
                0x9d010544       0x5c
 .text.USB_DEVICE_EndpointEnable
                0x9d010544       0x5c build/default/production/_ext/763370911/usb_device.o
                0x9d010544                USB_DEVICE_EndpointEnable

.text._ZSt9_AllocateIcEPT_mS1_.isra.12
                0x9d0105a0       0x5c
 .text._ZSt9_AllocateIcEPT_mS1_.isra.12
                0x9d0105a0       0x5c c:/program files (x86)/microchip/xc32/v2.15/bin/bin/../../lib/gcc/pic32mx/4.8.3/../../../../pic32mx/lib/fpu64\libxcpp.a(xthrow.o)

.text.SYS_INT_SourceDisable
                0x9d0105fc       0x58
 .text.SYS_INT_SourceDisable
                0x9d0105fc       0x58 build/default/production/_ext/404994212/sys_int.o
                0x9d0105fc                SYS_INT_SourceDisable

.text.USB_DEVICE_EventHandlerSet
                0x9d010654       0x58
 .text.USB_DEVICE_EventHandlerSet
                0x9d010654       0x58 build/default/production/_ext/763370911/usb_device.o
                0x9d010654                USB_DEVICE_EventHandlerSet

.text.USB_DEVICE_IRPSubmit
                0x9d0106ac       0x58
 .text.USB_DEVICE_IRPSubmit
                0x9d0106ac       0x58 build/default/production/_ext/763370911/usb_device.o
                0x9d0106ac                USB_DEVICE_IRPSubmit

.text._Mbtowc   0x9d010704       0x58
 .text._Mbtowc  0x9d010704       0x58 c:/program files (x86)/microchip/xc32/v2.15/bin/bin/../../lib/gcc/pic32mx/4.8.3/../../../../pic32mx/lib/fpu64\libxcpp.a(xmbtowc.o)
                0x9d010704                _Mbtowc

.text           0x9d01075c       0x58
 .text          0x9d01075c       0x58 c:/program files (x86)/microchip/xc32/v2.15/bin/bin/../../lib/gcc/pic32mx/4.8.3/fpu64/crtend.o

.text.main_entry
                0x9d0107b4       0x54
 .text.main_entry
                0x9d0107b4       0x54 C:\Users\Andrew\AppData\Local\Temp\ccsLlpbg.o
                0x9d0107e8                __crt0_exit

.text.strnlen_s
                0x9d010808       0x54
 .text.strnlen_s
                0x9d010808       0x54 c:/program files (x86)/microchip/xc32/v2.15/bin/bin/../../lib/gcc/pic32mx/4.8.3/../../../../pic32mx/lib/fpu64\libxcpp.a(strnlen_s.o)
                0x9d010808                strnlen_s

.text.DRV_USBHS_DEVICE_EndpointIsEnabled
                0x9d01085c       0x50
 .text.DRV_USBHS_DEVICE_EndpointIsEnabled
                0x9d01085c       0x50 build/default/production/_ext/490896790/drv_usbhs_device.o
                0x9d01085c                DRV_USBHS_DEVICE_EndpointIsEnabled

.text.DRV_USBHS_DEVICE_EndpointIsStalled
                0x9d0108ac       0x50
 .text.DRV_USBHS_DEVICE_EndpointIsStalled
                0x9d0108ac       0x50 build/default/production/_ext/490896790/drv_usbhs_device.o
                0x9d0108ac                DRV_USBHS_DEVICE_EndpointIsStalled

.text.USB_DEVICE_Detach
                0x9d0108fc       0x50
 .text.USB_DEVICE_Detach
                0x9d0108fc       0x50 build/default/production/_ext/763370911/usb_device.o
                0x9d0108fc                USB_DEVICE_Detach

.text._ZL12read_sleb128PKhPl
                0x9d01094c       0x50
 .text._ZL12read_sleb128PKhPl
                0x9d01094c       0x50 c:/program files (x86)/microchip/xc32/v2.15/bin/bin/../../lib/gcc/pic32mx/4.8.3/../../../../pic32mx/lib/fpu64\libsupc++.a(eh_personality.o)

.text._ZNKSt9type_info10__do_catchEPKS_PPvj
                0x9d01099c       0x50
 .text._ZNKSt9type_info10__do_catchEPKS_PPvj
                0x9d01099c       0x50 c:/program files (x86)/microchip/xc32/v2.15/bin/bin/../../lib/gcc/pic32mx/4.8.3/../../../../pic32mx/lib/fpu64\libsupc++.a(tinfo.o)
                0x9d01099c                std::type_info::__do_catch(std::type_info const*, void**, unsigned int) const

.text.vsnprintf
                0x9d0109ec       0x50
 .text.vsnprintf
                0x9d0109ec       0x50 c:/program files (x86)/microchip/xc32/v2.15/bin/bin/../../lib/gcc/pic32mx/4.8.3/../../../../pic32mx/lib/fpu64\libxcpp.a(vsnprint.o)
                0x9d0109ec                vsnprintf

.rodata         0x9d010a40       0x50
 .rodata        0x9d010a40       0x50 c:/program files (x86)/microchip/xc32/v2.15/bin/bin/../../lib/gcc/pic32mx/4.8.3/../../../../pic32mx/lib/fpu64\libxcpp.a(xldtob.o)

.text.sbrk      0x9d010a90       0x50
 .text.sbrk     0x9d010a90       0x50 c:/program files (x86)/microchip/xc32/v2.15/bin/bin/../../lib/gcc/pic32mx/4.8.3/../../../../pic32mx/lib/fpu64\libpic32.a(sbrk.o)
                0x9d010a90                sbrk

.text.DRV_USBHS_DEVICE_CurrentSpeedGet
                0x9d010ae0       0x4c
 .text.DRV_USBHS_DEVICE_CurrentSpeedGet
                0x9d010ae0       0x4c build/default/production/_ext/490896790/drv_usbhs_device.o
                0x9d010ae0                DRV_USBHS_DEVICE_CurrentSpeedGet

.text._DRV_USBHS_DEVICE_Initialize
                0x9d010b2c       0x4c
 .text._DRV_USBHS_DEVICE_Initialize
                0x9d010b2c       0x4c build/default/production/_ext/490896790/drv_usbhs_device.o
                0x9d010b2c                _DRV_USBHS_DEVICE_Initialize

.text.EVIC_Initialize
                0x9d010b78       0x4c
 .text.EVIC_Initialize
                0x9d010b78       0x4c build/default/production/_ext/301865530/plib_evic.o
                0x9d010b78                EVIC_Initialize

.text.UART6_FAULT_InterruptHandler
                0x9d010bc4       0x4c
 .text.UART6_FAULT_InterruptHandler
                0x9d010bc4       0x4c build/default/production/_ext/301408759/plib_uart6.o
                0x9d010bc4                UART6_FAULT_InterruptHandler

.text.USB_DEVICE_Open
                0x9d010c10       0x4c
 .text.USB_DEVICE_Open
                0x9d010c10       0x4c build/default/production/_ext/763370911/usb_device.o
                0x9d010c10                USB_DEVICE_Open

.text._USB_DEVICE_RedirectControlXfrToClient
                0x9d010c5c       0x4c
 .text._USB_DEVICE_RedirectControlXfrToClient
                0x9d010c5c       0x4c build/default/production/_ext/763370911/usb_device.o
                0x9d010c5c                _USB_DEVICE_RedirectControlXfrToClient

.text._USB_DEVICE_CDC_EndpointDisable
                0x9d010ca8       0x4c
 .text._USB_DEVICE_CDC_EndpointDisable
                0x9d010ca8       0x4c build/default/production/_ext/763370911/usb_device_cdc.o
                0x9d010ca8                _USB_DEVICE_CDC_EndpointDisable

.text.DRV_USBHS_DEVICE_Attach
                0x9d010cf4       0x48
 .text.DRV_USBHS_DEVICE_Attach
                0x9d010cf4       0x48 build/default/production/_ext/490896790/drv_usbhs_device.o
                0x9d010cf4                DRV_USBHS_DEVICE_Attach

.text.USB_DEVICE_Attach
                0x9d010d3c       0x48
 .text.USB_DEVICE_Attach
                0x9d010d3c       0x48 build/default/production/_ext/763370911/usb_device.o
                0x9d010d3c                USB_DEVICE_Attach

.text.USB_DEVICE_EndpointDisable
                0x9d010d84       0x48
 .text.USB_DEVICE_EndpointDisable
                0x9d010d84       0x48 build/default/production/_ext/763370911/usb_device.o
                0x9d010d84                USB_DEVICE_EndpointDisable

.text.USB_DEVICE_ControlReceive
                0x9d010dcc       0x48
 .text.USB_DEVICE_ControlReceive
                0x9d010dcc       0x48 build/default/production/_ext/763370911/usb_device.o
                0x9d010dcc                USB_DEVICE_ControlReceive

.text.USB_DEVICE_IRPCancelAll
                0x9d010e14       0x48
 .text.USB_DEVICE_IRPCancelAll
                0x9d010e14       0x48 build/default/production/_ext/763370911/usb_device.o
                0x9d010e14                USB_DEVICE_IRPCancelAll

.rodata         0x9d010e5c       0x48
 .rodata        0x9d010e5c       0x48 c:/program files (x86)/microchip/xc32/v2.15/bin/bin/../../lib/gcc/pic32mx/4.8.3/../../../../pic32mx/lib/fpu64\libxcpp.a(xputtxt.o)

.text.memchr    0x9d010ea4       0x48
 .text.memchr   0x9d010ea4       0x48 c:/program files (x86)/microchip/xc32/v2.15/bin/bin/../../lib/gcc/pic32mx/4.8.3/../../../../pic32mx/lib/fpu64\libxcpp.a(memchr.o)
                0x9d010ea4                memchr

.text.SUSB_DefaultContext
                0x9d010eec       0x44
 .text.SUSB_DefaultContext
                0x9d010eec       0x44 build/default/production/_ext/1003616436/app.o
                0x9d010eec                SUSB_DefaultContext

.text           0x9d010f30       0x44
 .text          0x9d010f30       0x44 c:/program files (x86)/microchip/xc32/v2.15/bin/bin/../../lib/gcc/pic32mx/4.8.3/../../../../pic32mx/lib/fpu64\pic32_software_reset.o
                0x9d010f30                __pic32_software_reset

.text._ZN7USB_CDCC2Ev
                0x9d010f74       0x40
 .text._ZN7USB_CDCC2Ev
                0x9d010f74       0x40 build/default/production/_ext/1003616436/usb_com_port.o
                0x9d010f74                USB_CDC::USB_CDC()
                0x9d010f74                USB_CDC::USB_CDC()

.text._Closreg  0x9d010fb4       0x40
 .text._Closreg
                0x9d010fb4       0x40 c:/program files (x86)/microchip/xc32/v2.15/bin/bin/../../lib/gcc/pic32mx/4.8.3/../../../../pic32mx/lib/fpu64\libxcpp.a(fclose.o)
                0x9d010fb4                _Closreg

.text.CORETIMER_Initialize
                0x9d010ff4       0x3c
 .text.CORETIMER_Initialize
                0x9d010ff4       0x3c build/default/production/_ext/1465287765/plib_coretimer.o
                0x9d010ff4                CORETIMER_Initialize

.text._Getmbcurmax
                0x9d011030       0x3c
 .text._Getmbcurmax
                0x9d011030       0x3c c:/program files (x86)/microchip/xc32/v2.15/bin/bin/../../lib/gcc/pic32mx/4.8.3/../../../../pic32mx/lib/fpu64\libxcpp.a(xstate.o)
                0x9d011030                _Getmbcurmax

.text.remove    0x9d01106c       0x3c
 .text.remove   0x9d01106c       0x3c c:/program files (x86)/microchip/xc32/v2.15/bin/bin/../../lib/gcc/pic32mx/4.8.3/../../../../pic32mx/lib/fpu64\libxcpp.a(remove.o)
                0x9d01106c                remove

.text.DRV_USBHS_DEVICE_AddressSet
                0x9d0110a8       0x38
 .text.DRV_USBHS_DEVICE_AddressSet
                0x9d0110a8       0x38 build/default/production/_ext/490896790/drv_usbhs_device.o
                0x9d0110a8                DRV_USBHS_DEVICE_AddressSet

.rodata         0x9d0110e0       0x38
 .rodata        0x9d0110e0       0x38 build/default/production/_ext/490896790/drv_usbhs_device.o

.text.USB_DEVICE_CDC_EventHandlerSet
                0x9d011118       0x38
 .text.USB_DEVICE_CDC_EventHandlerSet
                0x9d011118       0x38 build/default/production/_ext/763370911/usb_device_cdc.o
                0x9d011118                USB_DEVICE_CDC_EventHandlerSet

.text._ZN10__cxxabiv117__class_type_infoD0Ev
                0x9d011150       0x38
 .text._ZN10__cxxabiv117__class_type_infoD0Ev
                0x9d011150       0x38 c:/program files (x86)/microchip/xc32/v2.15/bin/bin/../../lib/gcc/pic32mx/4.8.3/../../../../pic32mx/lib/fpu64\libsupc++.a(class_type_info.o)
                0x9d011150                __cxxabiv1::__class_type_info::~__class_type_info()

.text._ZN10__cxxabiv120__si_class_type_infoD0Ev
                0x9d011188       0x38
 .text._ZN10__cxxabiv120__si_class_type_infoD0Ev
                0x9d011188       0x38 c:/program files (x86)/microchip/xc32/v2.15/bin/bin/../../lib/gcc/pic32mx/4.8.3/../../../../pic32mx/lib/fpu64\libsupc++.a(si_class_type_info.o)
                0x9d011188                __cxxabiv1::__si_class_type_info::~__si_class_type_info()

.rodata         0x9d0111c0       0x38
 .rodata        0x9d0111c0       0x38 c:/program files (x86)/microchip/xc32/v2.15/bin/bin/../../lib/gcc/pic32mx/4.8.3/../../../../pic32mx/lib/fpu64\libxcpp.a(xthrow.o)

.text._Z14LED_RGB_enablev
                0x9d0111f8       0x34
 .text._Z14LED_RGB_enablev
                0x9d0111f8       0x34 build/default/production/_ext/1003616436/main.o
                0x9d0111f8                LED_RGB_enable()

.text._GLOBAL__sub_I_rxByte
                0x9d01122c       0x34
 .text._GLOBAL__sub_I_rxByte
                0x9d01122c       0x34 build/default/production/_ext/1003616436/main.o

.text._Getmem   0x9d011260       0x34
 .text._Getmem  0x9d011260       0x34 c:/program files (x86)/microchip/xc32/v2.15/bin/bin/../../lib/gcc/pic32mx/4.8.3/../../../../pic32mx/lib/fpu64\libxcpp.a(xgetmem.o)
                0x9d011260                _Getmem

.text.strchr    0x9d011294       0x34
 .text.strchr   0x9d011294       0x34 c:/program files (x86)/microchip/xc32/v2.15/bin/bin/../../lib/gcc/pic32mx/4.8.3/../../../../pic32mx/lib/fpu64\libxcpp.a(strchr.o)
                0x9d011294                strchr

.text._LXp_movx
                0x9d0112c8       0x34
 .text._LXp_movx
                0x9d0112c8       0x34 c:/program files (x86)/microchip/xc32/v2.15/bin/bin/../../lib/gcc/pic32mx/4.8.3/../../../../pic32mx/lib/fpu64\libxcpp.a(xlprec.o)
                0x9d0112c8                _LXp_movx

.text.DRV_USBHS_Close
                0x9d0112fc       0x30
 .text.DRV_USBHS_Close
                0x9d0112fc       0x30 build/default/production/_ext/490896790/drv_usbhs.o
                0x9d0112fc                DRV_USBHS_Close

.text.TMR2_Initialize
                0x9d01132c       0x30
 .text.TMR2_Initialize
                0x9d01132c       0x30 build/default/production/_ext/2068486526/plib_tmr2.o
                0x9d01132c                TMR2_Initialize

.rodata         0x9d01135c       0x30
 .rodata        0x9d01135c       0x30 build/default/production/_ext/1160401513/initialization.o
                0x9d01135c                drvUSBInit

.text._Z16UART6_RxCallbackj
                0x9d01138c       0x30
 .text._Z16UART6_RxCallbackj
                0x9d01138c       0x30 build/default/production/_ext/1003616436/main.o
                0x9d01138c                UART6_RxCallback(unsigned int)

.text.raise     0x9d0113bc       0x30
 .text.raise    0x9d0113bc       0x30 c:/program files (x86)/microchip/xc32/v2.15/bin/bin/../../lib/gcc/pic32mx/4.8.3/../../../../pic32mx/lib/fpu64\libxcpp.a(raise.o)
                0x9d0113bc                raise

.rodata         0x9d0113ec       0x30
 .rodata        0x9d0113ec       0x30 c:/program files (x86)/microchip/xc32/v2.15/bin/bin/../../lib/gcc/pic32mx/4.8.3/../../../../pic32mx/lib/fpu64\libxcpp.a(xdint.o)

.text           0x9d01141c       0x30
 .text          0x9d01141c       0x30 c:/program files (x86)/microchip/xc32/v2.15/bin/bin/../../lib/gcc/pic32mx/4.8.3/../../../../pic32mx/lib/fpu64\libxcpp.a(fegetenv.o)
                0x9d01141c                fegetenv

.text.SYS_Tasks
                0x9d01144c       0x2c
 .text.SYS_Tasks
                0x9d01144c       0x2c build/default/production/_ext/1160401513/tasks.o
                0x9d01144c                SYS_Tasks

.text._Z16UART6_TxCallbackj
                0x9d011478       0x2c
 .text._Z16UART6_TxCallbackj
                0x9d011478       0x2c build/default/production/_ext/1003616436/main.o
                0x9d011478                UART6_TxCallback(unsigned int)

.text._ZN7USB_CDC13scheduleWriteEPjPvm
                0x9d0114a4       0x2c
 .text._ZN7USB_CDC13scheduleWriteEPjPvm
                0x9d0114a4       0x2c build/default/production/_ext/1003616436/usb_com_port.o
                0x9d0114a4                USB_CDC::scheduleWrite(unsigned int*, void*, unsigned long)

.rodata         0x9d0114d0       0x2c
 .rodata        0x9d0114d0       0x2c c:/program files (x86)/microchip/xc32/v2.15/bin/bin/../../lib/gcc/pic32mx/4.8.3/../../../../pic32mx/lib/fpu64\libxcpp.a(xprintf.o)

.text._stub_sbd_memlayout
                0x9d0114fc       0x2c
 .text._stub_sbd_memlayout
                0x9d0114fc       0x2c c:/program files (x86)/microchip/xc32/v2.15/bin/bin/../../lib/gcc/pic32mx/4.8.3/../../../../pic32mx/lib/fpu64\libpic32.a(sbrk.o)
                0x9d0114fc                _sbd_memlayout
                0x9d0114fc                _stub_sbd_memlayout

.text.EVIC_SourceEnable
                0x9d011528       0x28
 .text.EVIC_SourceEnable
                0x9d011528       0x28 build/default/production/_ext/301865530/plib_evic.o
                0x9d011528                EVIC_SourceEnable

.text.EVIC_SourceDisable
                0x9d011550       0x28
 .text.EVIC_SourceDisable
                0x9d011550       0x28 build/default/production/_ext/301865530/plib_evic.o
                0x9d011550                EVIC_SourceDisable

.text.EVIC_SourceStatusClear
                0x9d011578       0x28
 .text.EVIC_SourceStatusClear
                0x9d011578       0x28 build/default/production/_ext/301865530/plib_evic.o
                0x9d011578                EVIC_SourceStatusClear

.text.OCMP8_Initialize
                0x9d0115a0       0x28
 .text.OCMP8_Initialize
                0x9d0115a0       0x28 build/default/production/_ext/301585742/plib_ocmp8.o
                0x9d0115a0                OCMP8_Initialize

.text.OCMP5_Initialize
                0x9d0115c8       0x28
 .text.OCMP5_Initialize
                0x9d0115c8       0x28 build/default/production/_ext/301585742/plib_ocmp5.o
                0x9d0115c8                OCMP5_Initialize

.text.OCMP3_Initialize
                0x9d0115f0       0x28
 .text.OCMP3_Initialize
                0x9d0115f0       0x28 build/default/production/_ext/301585742/plib_ocmp3.o
                0x9d0115f0                OCMP3_Initialize

.text._USB_DEVICE_ClientHandleValidate
                0x9d011618       0x28
 .text._USB_DEVICE_ClientHandleValidate
                0x9d011618       0x28 build/default/production/_ext/763370911/usb_device.o
                0x9d011618                _USB_DEVICE_ClientHandleValidate

.text._GLOBAL__sub_D_rxByte
                0x9d011640       0x28
 .text._GLOBAL__sub_D_rxByte
                0x9d011640       0x28 build/default/production/_ext/1003616436/main.o

.text._ZdlPv    0x9d011668       0x28
 .text._ZdlPv   0x9d011668       0x28 c:/program files (x86)/microchip/xc32/v2.15/bin/bin/../../lib/gcc/pic32mx/4.8.3/../../../../pic32mx/lib/fpu64\libsupc++.a(del_op.o)
                0x9d011668                operator delete(void*)

.text.strrchr   0x9d011690       0x28
 .text.strrchr  0x9d011690       0x28 c:/program files (x86)/microchip/xc32/v2.15/bin/bin/../../lib/gcc/pic32mx/4.8.3/../../../../pic32mx/lib/fpu64\libxcpp.a(strrchr.o)
                0x9d011690                strrchr

.rodata         0x9d0116b8       0x28
 .rodata        0x9d0116b8       0x28 c:/program files (x86)/microchip/xc32/v2.15/bin/bin/../../lib/gcc/pic32mx/4.8.3/../../../../pic32mx/lib/fpu64\libxcpp.a(xlitob.o)

.text._DRV_USBHS_DEVICE_FIFOFreeAll
                0x9d0116e0       0x24
 .text._DRV_USBHS_DEVICE_FIFOFreeAll
                0x9d0116e0       0x24 build/default/production/_ext/490896790/drv_usbhs_device.o
                0x9d0116e0                _DRV_USBHS_DEVICE_FIFOFreeAll

.text.SYS_INT_Restore
                0x9d011704       0x24
 .text.SYS_INT_Restore
                0x9d011704       0x24 build/default/production/_ext/404994212/sys_int.o
                0x9d011704                SYS_INT_Restore

.text._general_exception_handler
                0x9d011728       0x24
 .text._general_exception_handler
                0x9d011728       0x24 build/default/production/_ext/1160401513/exceptions.o
                0x9d011728                _general_exception_handler

.text._bootstrap_exception_handler
                0x9d01174c       0x24
 .text._bootstrap_exception_handler
                0x9d01174c       0x24 build/default/production/_ext/1160401513/exceptions.o
                0x9d01174c                _bootstrap_exception_handler

.text._cache_err_exception_handler
                0x9d011770       0x24
 .text._cache_err_exception_handler
                0x9d011770       0x24 build/default/production/_ext/1160401513/exceptions.o
                0x9d011770                _cache_err_exception_handler

.text._simple_tlb_refill_exception_handler
                0x9d011794       0x24
 .text._simple_tlb_refill_exception_handler
                0x9d011794       0x24 build/default/production/_ext/1160401513/exceptions.o
                0x9d011794                _simple_tlb_refill_exception_handler

.text._ZN7USB_CDC12scheduleReadEPjPvm
                0x9d0117b8       0x24
 .text._ZN7USB_CDC12scheduleReadEPjPvm
                0x9d0117b8       0x24 build/default/production/_ext/1003616436/usb_com_port.o
                0x9d0117b8                USB_CDC::scheduleRead(unsigned int*, void*, unsigned long)

.text._ZN10__cxxabiv117__class_type_infoD2Ev
                0x9d0117dc       0x24
 .text._ZN10__cxxabiv117__class_type_infoD2Ev
                0x9d0117dc       0x24 c:/program files (x86)/microchip/xc32/v2.15/bin/bin/../../lib/gcc/pic32mx/4.8.3/../../../../pic32mx/lib/fpu64\libsupc++.a(class_type_info.o)
                0x9d0117dc                __cxxabiv1::__class_type_info::~__class_type_info()
                0x9d0117dc                __cxxabiv1::__class_type_info::~__class_type_info()

.rodata         0x9d011800       0x24
 .rodata        0x9d011800       0x24 c:/program files (x86)/microchip/xc32/v2.15/bin/bin/../../lib/gcc/pic32mx/4.8.3/../../../../pic32mx/lib/fpu64\libsupc++.a(eh_exception.o)

.text._ZNSt9exceptionD0Ev
                0x9d011824       0x24
 .text._ZNSt9exceptionD0Ev
                0x9d011824       0x24 c:/program files (x86)/microchip/xc32/v2.15/bin/bin/../../lib/gcc/pic32mx/4.8.3/../../../../pic32mx/lib/fpu64\libsupc++.a(eh_exception.o)
                0x9d011824                std::exception::~exception()

.text._ZN10__cxxabiv120__si_class_type_infoD2Ev
                0x9d011848       0x24
 .text._ZN10__cxxabiv120__si_class_type_infoD2Ev
                0x9d011848       0x24 c:/program files (x86)/microchip/xc32/v2.15/bin/bin/../../lib/gcc/pic32mx/4.8.3/../../../../pic32mx/lib/fpu64\libsupc++.a(si_class_type_info.o)
                0x9d011848                __cxxabiv1::__si_class_type_info::~__si_class_type_info()
                0x9d011848                __cxxabiv1::__si_class_type_info::~__si_class_type_info()

.text._ZNSt9type_infoD0Ev
                0x9d01186c       0x24
 .text._ZNSt9type_infoD0Ev
                0x9d01186c       0x24 c:/program files (x86)/microchip/xc32/v2.15/bin/bin/../../lib/gcc/pic32mx/4.8.3/../../../../pic32mx/lib/fpu64\libsupc++.a(tinfo.o)
                0x9d01186c                std::type_info::~type_info()

.text._Vacopy   0x9d011890       0x24
 .text._Vacopy  0x9d011890       0x24 c:/program files (x86)/microchip/xc32/v2.15/bin/bin/../../lib/gcc/pic32mx/4.8.3/../../../../pic32mx/lib/fpu64\libxcpp.a(xvacopy.o)
                0x9d011890                _Vacopy

.text.ldiv      0x9d0118b4       0x24
 .text.ldiv     0x9d0118b4       0x24 c:/program files (x86)/microchip/xc32/v2.15/bin/bin/../../lib/gcc/pic32mx/4.8.3/../../../../pic32mx/lib/fpu64\libxcpp.a(ldiv.o)
                0x9d0118b4                ldiv

.text.div       0x9d0118d8       0x24
 .text.div      0x9d0118d8       0x24 c:/program files (x86)/microchip/xc32/v2.15/bin/bin/../../lib/gcc/pic32mx/4.8.3/../../../../pic32mx/lib/fpu64\libxcpp.a(div.o)
                0x9d0118d8                div

.text.EVIC_SourceIsEnabled
                0x9d0118fc       0x20
 .text.EVIC_SourceIsEnabled
                0x9d0118fc       0x20 build/default/production/_ext/301865530/plib_evic.o
                0x9d0118fc                EVIC_SourceIsEnabled

.text.SYS_INT_Disable
                0x9d01191c       0x20
 .text.SYS_INT_Disable
                0x9d01191c       0x20 build/default/production/_ext/404994212/sys_int.o
                0x9d01191c                SYS_INT_Disable

.text._USB_DEVICE_CDC_GlobalInitialize
                0x9d01193c       0x20
 .text._USB_DEVICE_CDC_GlobalInitialize
                0x9d01193c       0x20 build/default/production/_ext/763370911/usb_device_cdc.o
                0x9d01193c                _USB_DEVICE_CDC_GlobalInitialize

.rodata         0x9d01195c       0x20
 .rodata        0x9d01195c       0x20 c:/program files (x86)/microchip/xc32/v2.15/bin/bin/../../lib/gcc/pic32mx/4.8.3/../../../../pic32mx/lib/fpu64\libxcpp.a(xfail_s.o)

.text.DRV_USBHS_InterruptHandler
                0x9d01197c       0x1c
 .text.DRV_USBHS_InterruptHandler
                0x9d01197c       0x1c build/default/production/_ext/490896790/drv_usbhs.o
                0x9d01197c                DRV_USBHS_InterruptHandler

.text.DRV_USBHS_DMAInterruptHandler
                0x9d011998       0x1c
 .text.DRV_USBHS_DMAInterruptHandler
                0x9d011998       0x1c build/default/production/_ext/490896790/drv_usbhs.o
                0x9d011998                DRV_USBHS_DMAInterruptHandler

.text._ZNK10__cxxabiv117__class_type_info20__do_find_public_srcElPKvPKS0_S2_
                0x9d0119b4       0x1c
 .text._ZNK10__cxxabiv117__class_type_info20__do_find_public_srcElPKvPKS0_S2_
                0x9d0119b4       0x1c c:/program files (x86)/microchip/xc32/v2.15/bin/bin/../../lib/gcc/pic32mx/4.8.3/../../../../pic32mx/lib/fpu64\libsupc++.a(class_type_info.o)
                0x9d0119b4                __cxxabiv1::__class_type_info::__do_find_public_src(long, void const*, __cxxabiv1::__class_type_info const*, void const*) const

.text._LDunscale
                0x9d0119d0       0x1c
 .text._LDunscale
                0x9d0119d0       0x1c c:/program files (x86)/microchip/xc32/v2.15/bin/bin/../../lib/gcc/pic32mx/4.8.3/../../../../pic32mx/lib/fpu64\libxcpp.a(xldunsca.o)
                0x9d0119d0                _LDunscale

.text._LDint    0x9d0119ec       0x1c
 .text._LDint   0x9d0119ec       0x1c c:/program files (x86)/microchip/xc32/v2.15/bin/bin/../../lib/gcc/pic32mx/4.8.3/../../../../pic32mx/lib/fpu64\libxcpp.a(xldint.o)
                0x9d0119ec                _LDint

.text._LDscale  0x9d011a08       0x1c
 .text._LDscale
                0x9d011a08       0x1c c:/program files (x86)/microchip/xc32/v2.15/bin/bin/../../lib/gcc/pic32mx/4.8.3/../../../../pic32mx/lib/fpu64\libxcpp.a(xldscale.o)
                0x9d011a08                _LDscale

.text._LDtest   0x9d011a24       0x1c
 .text._LDtest  0x9d011a24       0x1c c:/program files (x86)/microchip/xc32/v2.15/bin/bin/../../lib/gcc/pic32mx/4.8.3/../../../../pic32mx/lib/fpu64\libxcpp.a(xldtest.o)
                0x9d011a24                _LDtest

.text.CORETIMER_CounterGet
                0x9d011a40       0x18
 .text.CORETIMER_CounterGet
                0x9d011a40       0x18 build/default/production/_ext/1465287765/plib_coretimer.o
                0x9d011a40                CORETIMER_CounterGet

.text._ZN10__cxxabiv112__unexpectedEPFvvE
                0x9d011a58       0x18
 .text._ZN10__cxxabiv112__unexpectedEPFvvE
                0x9d011a58       0x18 c:/program files (x86)/microchip/xc32/v2.15/bin/bin/../../lib/gcc/pic32mx/4.8.3/../../../../pic32mx/lib/fpu64\libsupc++.a(eh_terminate.o)
                0x9d011a58                __cxxabiv1::__unexpected(void (*)())

.text           0x9d011a70       0x18
 .text          0x9d011a70       0x18 c:/program files (x86)/microchip/xc32/v2.15/bin/bin/../../lib/gcc/pic32mx/4.8.3/../../../../pic32mx/lib/fpu64\libpic32.a(default-nmi-handler.o)
                0x9d011a70                _nmi_handler

.text.abort     0x9d011a88       0x18
 .text.abort    0x9d011a88       0x18 c:/program files (x86)/microchip/xc32/v2.15/bin/bin/../../lib/gcc/pic32mx/4.8.3/../../../../pic32mx/lib/fpu64\libxcpp.a(abort.o)
                0x9d011a88                abort

.rodata         0x9d011aa0       0x18
 .rodata        0x9d011aa0       0x18 c:/program files (x86)/microchip/xc32/v2.15/bin/bin/../../lib/gcc/pic32mx/4.8.3/../../../../pic32mx/lib/fpu64\libxcpp.a(localeco.o)

.text.OCMP8_Enable
                0x9d011ab8       0x14
 .text.OCMP8_Enable
                0x9d011ab8       0x14 build/default/production/_ext/301585742/plib_ocmp8.o
                0x9d011ab8                OCMP8_Enable

.text.OCMP5_Enable
                0x9d011acc       0x14
 .text.OCMP5_Enable
                0x9d011acc       0x14 build/default/production/_ext/301585742/plib_ocmp5.o
                0x9d011acc                OCMP5_Enable

.text.OCMP3_Enable
                0x9d011ae0       0x14
 .text.OCMP3_Enable
                0x9d011ae0       0x14 build/default/production/_ext/301585742/plib_ocmp3.o
                0x9d011ae0                OCMP3_Enable

.text.TMR2_Start
                0x9d011af4       0x14
 .text.TMR2_Start
                0x9d011af4       0x14 build/default/production/_ext/2068486526/plib_tmr2.o
                0x9d011af4                TMR2_Start

.text.UART6_ReadCallbackRegister
                0x9d011b08       0x14
 .text.UART6_ReadCallbackRegister
                0x9d011b08       0x14 build/default/production/_ext/301408759/plib_uart6.o
                0x9d011b08                UART6_ReadCallbackRegister

.text.UART6_WriteCallbackRegister
                0x9d011b1c       0x14
 .text.UART6_WriteCallbackRegister
                0x9d011b1c       0x14 build/default/production/_ext/301408759/plib_uart6.o
                0x9d011b1c                UART6_WriteCallbackRegister

.rodata         0x9d011b30       0x14
 .rodata        0x9d011b30       0x14 build/default/production/_ext/763370911/usb_device_cdc.o
                0x9d011b30                cdcFunctionDriver

.text._Z14USB_RxCallbackP40USB_DEVICE_CDC_EVENT_DATA_WRITE_COMPLETEPv
                0x9d011b44       0x14
 .text._Z14USB_RxCallbackP40USB_DEVICE_CDC_EVENT_DATA_WRITE_COMPLETEPv
                0x9d011b44       0x14 build/default/production/_ext/1003616436/main.o
                0x9d011b44                USB_RxCallback(USB_DEVICE_CDC_EVENT_DATA_WRITE_COMPLETE*, void*)

.text._ZSt9terminatev
                0x9d011b58       0x14
 .text._ZSt9terminatev
                0x9d011b58       0x14 c:/program files (x86)/microchip/xc32/v2.15/bin/bin/../../lib/gcc/pic32mx/4.8.3/../../../../pic32mx/lib/fpu64\libsupc++.a(eh_terminate.o)
                0x9d011b58                std::terminate()

.text._ZSt10unexpectedv
                0x9d011b6c       0x14
 .text._ZSt10unexpectedv
                0x9d011b6c       0x14 c:/program files (x86)/microchip/xc32/v2.15/bin/bin/../../lib/gcc/pic32mx/4.8.3/../../../../pic32mx/lib/fpu64\libsupc++.a(eh_terminate.o)
                0x9d011b6c                std::unexpected()

.text.unlink    0x9d011b80       0x14
 .text.unlink   0x9d011b80       0x14 c:/program files (x86)/microchip/xc32/v2.15/bin/bin/../../lib/gcc/pic32mx/4.8.3/../../../../pic32mx/lib/fpu64\libpic32.a(unlink.o)
                0x9d011b80                unlink

.text.rmdir     0x9d011b94       0x14
 .text.rmdir    0x9d011b94       0x14 c:/program files (x86)/microchip/xc32/v2.15/bin/bin/../../lib/gcc/pic32mx/4.8.3/../../../../pic32mx/lib/fpu64\libpic32.a(rmdir.o)
                0x9d011b94                rmdir

.text.OCMP8_CompareSecondaryValueSet
                0x9d011ba8       0x10
 .text.OCMP8_CompareSecondaryValueSet
                0x9d011ba8       0x10 build/default/production/_ext/301585742/plib_ocmp8.o
                0x9d011ba8                OCMP8_CompareSecondaryValueSet

.text.OCMP5_CompareSecondaryValueSet
                0x9d011bb8       0x10
 .text.OCMP5_CompareSecondaryValueSet
                0x9d011bb8       0x10 build/default/production/_ext/301585742/plib_ocmp5.o
                0x9d011bb8                OCMP5_CompareSecondaryValueSet

.text.OCMP3_CompareSecondaryValueSet
                0x9d011bc8       0x10
 .text.OCMP3_CompareSecondaryValueSet
                0x9d011bc8       0x10 build/default/production/_ext/301585742/plib_ocmp3.o
                0x9d011bc8                OCMP3_CompareSecondaryValueSet

.text.TMR2_PeriodSet
                0x9d011bd8       0x10
 .text.TMR2_PeriodSet
                0x9d011bd8       0x10 build/default/production/_ext/2068486526/plib_tmr2.o
                0x9d011bd8                TMR2_PeriodSet

.text.TMR2_PeriodGet
                0x9d011be8       0x10
 .text.TMR2_PeriodGet
                0x9d011be8       0x10 build/default/production/_ext/2068486526/plib_tmr2.o
                0x9d011be8                TMR2_PeriodGet

.text._Z14USB_TxCallbackP40USB_DEVICE_CDC_EVENT_DATA_WRITE_COMPLETEPv
                0x9d011bf8       0x10
 .text._Z14USB_TxCallbackP40USB_DEVICE_CDC_EVENT_DATA_WRITE_COMPLETEPv
                0x9d011bf8       0x10 build/default/production/_ext/1003616436/main.o
                0x9d011bf8                USB_TxCallback(USB_DEVICE_CDC_EVENT_DATA_WRITE_COMPLETE*, void*)

.text._ZNSt9exceptionD2Ev
                0x9d011c08       0x10
 .text._ZNSt9exceptionD2Ev
                0x9d011c08       0x10 c:/program files (x86)/microchip/xc32/v2.15/bin/bin/../../lib/gcc/pic32mx/4.8.3/../../../../pic32mx/lib/fpu64\libsupc++.a(eh_exception.o)
                0x9d011c08                std::exception::~exception()
                0x9d011c08                std::exception::~exception()

.text._ZNSt9type_infoD2Ev
                0x9d011c18       0x10
 .text._ZNSt9type_infoD2Ev
                0x9d011c18       0x10 c:/program files (x86)/microchip/xc32/v2.15/bin/bin/../../lib/gcc/pic32mx/4.8.3/../../../../pic32mx/lib/fpu64\libsupc++.a(tinfo.o)
                0x9d011c18                std::type_info::~type_info()
                0x9d011c18                std::type_info::~type_info()

.text._Exit     0x9d011c28       0x10
 .text._Exit    0x9d011c28       0x10 c:/program files (x86)/microchip/xc32/v2.15/bin/bin/../../lib/gcc/pic32mx/4.8.3/../../../../pic32mx/lib/fpu64\libxcpp.a(xexit.o)
                0x9d011c28                _Exit

.text.UART6_WriteIsBusy
                0x9d011c38        0xc
 .text.UART6_WriteIsBusy
                0x9d011c38        0xc build/default/production/_ext/301408759/plib_uart6.o
                0x9d011c38                UART6_WriteIsBusy

.text._ZN7USB_CDC20readCallbackRegisterEPFvP40USB_DEVICE_CDC_EVENT_DATA_WRITE_COMPLETEPvES2_
                0x9d011c44        0xc
 .text._ZN7USB_CDC20readCallbackRegisterEPFvP40USB_DEVICE_CDC_EVENT_DATA_WRITE_COMPLETEPvES2_
                0x9d011c44        0xc build/default/production/_ext/1003616436/usb_com_port.o
                0x9d011c44                USB_CDC::readCallbackRegister(void (*)(USB_DEVICE_CDC_EVENT_DATA_WRITE_COMPLETE*, void*), void*)

.text._ZN7USB_CDC21writeCallbackRegisterEPFvP40USB_DEVICE_CDC_EVENT_DATA_WRITE_COMPLETEPvES2_
                0x9d011c50        0xc
 .text._ZN7USB_CDC21writeCallbackRegisterEPFvP40USB_DEVICE_CDC_EVENT_DATA_WRITE_COMPLETEPvES2_
                0x9d011c50        0xc build/default/production/_ext/1003616436/usb_com_port.o
                0x9d011c50                USB_CDC::writeCallbackRegister(void (*)(USB_DEVICE_CDC_EVENT_DATA_WRITE_COMPLETE*, void*), void*)

.text._ZNKSt9exception4whatEv
                0x9d011c5c        0xc
 .text._ZNKSt9exception4whatEv
                0x9d011c5c        0xc c:/program files (x86)/microchip/xc32/v2.15/bin/bin/../../lib/gcc/pic32mx/4.8.3/../../../../pic32mx/lib/fpu64\libsupc++.a(eh_exception.o)
                0x9d011c5c                std::exception::what() const

.text.__cxa_get_globals_fast
                0x9d011c68        0xc
 .text.__cxa_get_globals_fast
                0x9d011c68        0xc c:/program files (x86)/microchip/xc32/v2.15/bin/bin/../../lib/gcc/pic32mx/4.8.3/../../../../pic32mx/lib/fpu64\libsupc++.a(eh_globals.o)
                0x9d011c68                __cxa_get_globals_fast

.text.__cxa_get_globals
                0x9d011c74        0xc
 .text.__cxa_get_globals
                0x9d011c74        0xc c:/program files (x86)/microchip/xc32/v2.15/bin/bin/../../lib/gcc/pic32mx/4.8.3/../../../../pic32mx/lib/fpu64\libsupc++.a(eh_globals.o)
                0x9d011c74                __cxa_get_globals

.text.localeconv
                0x9d011c80        0xc
 .text.localeconv
                0x9d011c80        0xc c:/program files (x86)/microchip/xc32/v2.15/bin/bin/../../lib/gcc/pic32mx/4.8.3/../../../../pic32mx/lib/fpu64\libxcpp.a(localeco.o)
                0x9d011c80                localeconv

.text.BSP_Initialize
                0x9d0000f8        0x8
 .text.BSP_Initialize
                0x9d0000f8        0x8 build/default/production/_ext/694295097/bsp.o
                0x9d0000f8                BSP_Initialize

.text.DRV_USBHS_DEVICE_RemoteWakeupStart
                0x9d011c8c        0x8
 .text.DRV_USBHS_DEVICE_RemoteWakeupStart
                0x9d011c8c        0x8 build/default/production/_ext/490896790/drv_usbhs_device.o
                0x9d011c8c                DRV_USBHS_DEVICE_RemoteWakeupStart

.text.DRV_USBHS_DEVICE_RemoteWakeupStop
                0x9d011c94        0x8
 .text.DRV_USBHS_DEVICE_RemoteWakeupStop
                0x9d011c94        0x8 build/default/production/_ext/490896790/drv_usbhs_device.o
                0x9d011c94                DRV_USBHS_DEVICE_RemoteWakeupStop

.text.DRV_USBHS_DEVICE_SOFNumberGet
                0x9d011c9c        0x8
 .text.DRV_USBHS_DEVICE_SOFNumberGet
                0x9d011c9c        0x8 build/default/production/_ext/490896790/drv_usbhs_device.o
                0x9d011c9c                DRV_USBHS_DEVICE_SOFNumberGet

.text._mon_putc
                0x9d011ca4        0x8
 .text._mon_putc
                0x9d011ca4        0x8 build/default/production/_ext/1481935855/xc32_monitor.o
                0x9d011ca4                _mon_putc

.text.APP_Tasks
                0x9d011cac        0x8
 .text.APP_Tasks
                0x9d011cac        0x8 build/default/production/_ext/1003616436/app.o
                0x9d011cac                APP_Tasks

.text._ZNKSt9type_info14__is_pointer_pEv
                0x9d011cb4        0x8
 .text._ZNKSt9type_info14__is_pointer_pEv
                0x9d011cb4        0x8 c:/program files (x86)/microchip/xc32/v2.15/bin/bin/../../lib/gcc/pic32mx/4.8.3/../../../../pic32mx/lib/fpu64\libsupc++.a(tinfo.o)
                0x9d011cb4                std::type_info::__is_pointer_p() const

.text._ZNKSt9type_info15__is_function_pEv
                0x9d011cbc        0x8
 .text._ZNKSt9type_info15__is_function_pEv
                0x9d011cbc        0x8 c:/program files (x86)/microchip/xc32/v2.15/bin/bin/../../lib/gcc/pic32mx/4.8.3/../../../../pic32mx/lib/fpu64\libsupc++.a(tinfo.o)
                0x9d011cbc                std::type_info::__is_function_p() const

.text._ZNKSt9type_info11__do_upcastEPKN10__cxxabiv117__class_type_infoEPPv
                0x9d011cc4        0x8
 .text._ZNKSt9type_info11__do_upcastEPKN10__cxxabiv117__class_type_infoEPPv
                0x9d011cc4        0x8 c:/program files (x86)/microchip/xc32/v2.15/bin/bin/../../lib/gcc/pic32mx/4.8.3/../../../../pic32mx/lib/fpu64\libsupc++.a(tinfo.o)
                0x9d011cc4                std::type_info::__do_upcast(__cxxabiv1::__class_type_info const*, void**) const

.text._on_reset
                0x9d011ccc        0x8
 .text._on_reset
                0x9d011ccc        0x8 c:/program files (x86)/microchip/xc32/v2.15/bin/bin/../../lib/gcc/pic32mx/4.8.3/../../../../pic32mx/lib/fpu64\libpic32.a(default-on-reset.o)
                0x9d011ccc                _on_reset

.text._on_bootstrap
                0x9d011cd4        0x8
 .text._on_bootstrap
                0x9d011cd4        0x8 c:/program files (x86)/microchip/xc32/v2.15/bin/bin/../../lib/gcc/pic32mx/4.8.3/../../../../pic32mx/lib/fpu64\libpic32.a(default-on-bootstrap.o)
                0x9d011cd4                _on_bootstrap

.text._exit     0x9d011cdc        0x8
 .text._exit    0x9d011cdc        0x8 c:/program files (x86)/microchip/xc32/v2.15/bin/bin/../../lib/gcc/pic32mx/4.8.3/../../../../pic32mx/lib/fpu64\libpic32.a(_exit.o)
                0x9d011cdc                _exit

.text.isatty    0x9d011ce4        0x8
 .text.isatty   0x9d011ce4        0x8 c:/program files (x86)/microchip/xc32/v2.15/bin/bin/../../lib/gcc/pic32mx/4.8.3/../../../../pic32mx/lib/fpu64\libpic32.a(isatty.o)
                0x9d011ce4                isatty

.text.close     0x9d011cec        0x8
 .text.close    0x9d011cec        0x8 c:/program files (x86)/microchip/xc32/v2.15/bin/bin/../../lib/gcc/pic32mx/4.8.3/../../../../pic32mx/lib/fpu64\libpic32.a(close.o)
                0x9d011cec                close

.text.kill      0x9d011cf4        0x8
 .text.kill     0x9d011cf4        0x8 c:/program files (x86)/microchip/xc32/v2.15/bin/bin/../../lib/gcc/pic32mx/4.8.3/../../../../pic32mx/lib/fpu64\libpic32.a(kill.o)
                0x9d011cf4                kill

.text.getpid    0x9d011cfc        0x8
 .text.getpid   0x9d011cfc        0x8 c:/program files (x86)/microchip/xc32/v2.15/bin/bin/../../lib/gcc/pic32mx/4.8.3/../../../../pic32mx/lib/fpu64\libpic32.a(getpid.o)
                0x9d011cfc                getpid

.rodata         0x9d0001fc        0x4
 .rodata        0x9d0001fc        0x4 c:/program files (x86)/microchip/xc32/v2.15/bin/bin/../../lib/gcc/pic32mx/4.8.3/../../../../pic32mx/lib/fpu64\libxcpp.a(xgenld.o)
